
build/f7-firmware-D/.extapps/battery_test_d.elf:     file format elf32-littlearm


Disassembly of section .text:

00000000 <draw_battery>:
    canvas_draw_box(canvas, x - 4, y + 16, 24, 6);
    canvas_set_color(canvas, ColorBlack);
    canvas_draw_str_aligned(canvas, x + 8, y + 22, AlignCenter, AlignBottom, val);
}

static void draw_battery(Canvas* canvas, BatteryInfoModel* data, int x, int y) {
   0:	e92d 47f0 	stmdb	sp!, {r4, r5, r6, r7, r8, r9, sl, lr}
   4:	b092      	sub	sp, #72	@ 0x48
   6:	4605      	mov	r5, r0
   8:	460f      	mov	r7, r1
   a:	4690      	mov	r8, r2
   c:	461e      	mov	r6, r3
    char emote[20] = {};
   e:	2400      	movs	r4, #0
  10:	940d      	str	r4, [sp, #52]	@ 0x34
  12:	940e      	str	r4, [sp, #56]	@ 0x38
  14:	940f      	str	r4, [sp, #60]	@ 0x3c
  16:	9410      	str	r4, [sp, #64]	@ 0x40
  18:	9411      	str	r4, [sp, #68]	@ 0x44
    char header[20] = {};
  1a:	9408      	str	r4, [sp, #32]
  1c:	9409      	str	r4, [sp, #36]	@ 0x24
  1e:	940a      	str	r4, [sp, #40]	@ 0x28
  20:	940b      	str	r4, [sp, #44]	@ 0x2c
  22:	940c      	str	r4, [sp, #48]	@ 0x30
    char value[20] = {};
  24:	9403      	str	r4, [sp, #12]
  26:	9404      	str	r4, [sp, #16]
  28:	9405      	str	r4, [sp, #20]
  2a:	9406      	str	r4, [sp, #24]
  2c:	9407      	str	r4, [sp, #28]

    int32_t drain_current = data->gauge_current * (-1000);
  2e:	edd1 7a02 	vldr	s15, [r1, #8]
  32:	ed9f 7a7a 	vldr	s14, [pc, #488]	@ 21c <draw_battery+0x21c>
  36:	ee67 7a87 	vmul.f32	s15, s15, s14
  3a:	eebd 7ae7 	vcvt.s32.f32	s14, s15
  3e:	ee17 9a10 	vmov	r9, s14
    uint32_t charge_current = data->gauge_current * 1000;
  42:	eef1 7a67 	vneg.f32	s15, s15
  46:	eefc 7ae7 	vcvt.u32.f32	s15, s15
  4a:	ee17 4a90 	vmov	r4, s15

    // Draw battery
    canvas_draw_icon(canvas, x, y, &I_BatteryBody_52x28);
  4e:	4b74      	ldr	r3, [pc, #464]	@ (220 <draw_battery+0x220>)
  50:	4632      	mov	r2, r6
  52:	4641      	mov	r1, r8
  54:	f8df a224 	ldr.w	sl, [pc, #548]	@ 27c <draw_battery+0x27c>
  58:	47d0      	blx	sl
    if(charge_current > 0) {
  5a:	b974      	cbnz	r4, 7a <draw_battery+0x7a>
        canvas_draw_icon(canvas, x + 16, y + 7, &I_FaceCharging_29x14);
    } else if(drain_current > HIGH_DRAIN_CURRENT_THRESHOLD) {
  5c:	f1b9 0f64 	cmp.w	r9, #100	@ 0x64
  60:	dc5a      	bgt.n	118 <draw_battery+0x118>
        canvas_draw_icon(canvas, x + 16, y + 7, &I_FaceConfused_29x14);
    } else if(data->charge < LOW_CHARGE_THRESHOLD) {
  62:	7d3b      	ldrb	r3, [r7, #20]
  64:	2b09      	cmp	r3, #9
  66:	d860      	bhi.n	12a <draw_battery+0x12a>
        canvas_draw_icon(canvas, x + 16, y + 7, &I_FaceNopower_29x14);
  68:	4b6e      	ldr	r3, [pc, #440]	@ (224 <draw_battery+0x224>)
  6a:	1df2      	adds	r2, r6, #7
  6c:	f108 0110 	add.w	r1, r8, #16
  70:	4628      	mov	r0, r5
  72:	f8df 8208 	ldr.w	r8, [pc, #520]	@ 27c <draw_battery+0x27c>
  76:	47c0      	blx	r8
  78:	e005      	b.n	86 <draw_battery+0x86>
        canvas_draw_icon(canvas, x + 16, y + 7, &I_FaceCharging_29x14);
  7a:	4b6b      	ldr	r3, [pc, #428]	@ (228 <draw_battery+0x228>)
  7c:	1df2      	adds	r2, r6, #7
  7e:	f108 0110 	add.w	r1, r8, #16
  82:	4628      	mov	r0, r5
  84:	47d0      	blx	sl
    } else {
        canvas_draw_icon(canvas, x + 16, y + 7, &I_FaceNormal_29x14);
    }

    // Draw bubble
    elements_bubble(canvas, 53, 0, 71, 39);
  86:	2327      	movs	r3, #39	@ 0x27
  88:	9300      	str	r3, [sp, #0]
  8a:	2347      	movs	r3, #71	@ 0x47
  8c:	2200      	movs	r2, #0
  8e:	2135      	movs	r1, #53	@ 0x35
  90:	4628      	mov	r0, r5
  92:	f8df 81ec 	ldr.w	r8, [pc, #492]	@ 280 <draw_battery+0x280>
  96:	47c0      	blx	r8

    // Set text
    if(charge_current > 0) {
  98:	2c00      	cmp	r4, #0
  9a:	d14f      	bne.n	13c <draw_battery+0x13c>
            sizeof(value),
            "%lu.%luV   %lumA",
            (uint32_t)(data->vbus_voltage),
            (uint32_t)(data->vbus_voltage * 10) % 10,
            charge_current);
    } else if(drain_current > 0) {
  9c:	f1b9 0f00 	cmp.w	r9, #0
  a0:	dd7c      	ble.n	19c <draw_battery+0x19c>
        snprintf(
  a2:	f1b9 0f64 	cmp.w	r9, #100	@ 0x64
  a6:	dd75      	ble.n	194 <draw_battery+0x194>
  a8:	4b60      	ldr	r3, [pc, #384]	@ (22c <draw_battery+0x22c>)
  aa:	4a61      	ldr	r2, [pc, #388]	@ (230 <draw_battery+0x230>)
  ac:	2114      	movs	r1, #20
  ae:	a80d      	add	r0, sp, #52	@ 0x34
  b0:	4c60      	ldr	r4, [pc, #384]	@ (234 <draw_battery+0x234>)
  b2:	47a0      	blx	r4
            emote,
            sizeof(emote),
            "%s",
            drain_current > HIGH_DRAIN_CURRENT_THRESHOLD ? "Oh no!" : "Om-nom-nom!");
        snprintf(header, sizeof(header), "%s", "Consumption is");
  b4:	4b60      	ldr	r3, [pc, #384]	@ (238 <draw_battery+0x238>)
  b6:	ac08      	add	r4, sp, #32
  b8:	cb0f      	ldmia	r3, {r0, r1, r2, r3}
  ba:	c407      	stmia	r4!, {r0, r1, r2}
  bc:	f824 3b02 	strh.w	r3, [r4], #2
  c0:	0c1b      	lsrs	r3, r3, #16
  c2:	7023      	strb	r3, [r4, #0]
        snprintf(
  c4:	f1b9 0f64 	cmp.w	r9, #100	@ 0x64
  c8:	dd66      	ble.n	198 <draw_battery+0x198>
  ca:	4b5c      	ldr	r3, [pc, #368]	@ (23c <draw_battery+0x23c>)
  cc:	9300      	str	r3, [sp, #0]
  ce:	464b      	mov	r3, r9
  d0:	4a5b      	ldr	r2, [pc, #364]	@ (240 <draw_battery+0x240>)
  d2:	2114      	movs	r1, #20
  d4:	a803      	add	r0, sp, #12
  d6:	4c57      	ldr	r4, [pc, #348]	@ (234 <draw_battery+0x234>)
  d8:	47a0      	blx	r4
            (uint32_t)(data->charging_voltage * 10) % 10);
    } else {
        snprintf(header, sizeof(header), "Charged!");
    }

    canvas_draw_str_aligned(canvas, 92, y + 3, AlignCenter, AlignCenter, emote);
  da:	ab0d      	add	r3, sp, #52	@ 0x34
  dc:	9301      	str	r3, [sp, #4]
  de:	2404      	movs	r4, #4
  e0:	9400      	str	r4, [sp, #0]
  e2:	4623      	mov	r3, r4
  e4:	1cf2      	adds	r2, r6, #3
  e6:	215c      	movs	r1, #92	@ 0x5c
  e8:	4628      	mov	r0, r5
  ea:	4f56      	ldr	r7, [pc, #344]	@ (244 <draw_battery+0x244>)
  ec:	47b8      	blx	r7
    canvas_draw_str_aligned(canvas, 92, y + 15, AlignCenter, AlignCenter, header);
  ee:	ab08      	add	r3, sp, #32
  f0:	9301      	str	r3, [sp, #4]
  f2:	9400      	str	r4, [sp, #0]
  f4:	4623      	mov	r3, r4
  f6:	f106 020f 	add.w	r2, r6, #15
  fa:	215c      	movs	r1, #92	@ 0x5c
  fc:	4628      	mov	r0, r5
  fe:	47b8      	blx	r7
    canvas_draw_str_aligned(canvas, 92, y + 27, AlignCenter, AlignCenter, value);
 100:	ab03      	add	r3, sp, #12
 102:	9301      	str	r3, [sp, #4]
 104:	9400      	str	r4, [sp, #0]
 106:	4623      	mov	r3, r4
 108:	f106 021b 	add.w	r2, r6, #27
 10c:	215c      	movs	r1, #92	@ 0x5c
 10e:	4628      	mov	r0, r5
 110:	47b8      	blx	r7
}
 112:	b012      	add	sp, #72	@ 0x48
 114:	e8bd 87f0 	ldmia.w	sp!, {r4, r5, r6, r7, r8, r9, sl, pc}
        canvas_draw_icon(canvas, x + 16, y + 7, &I_FaceConfused_29x14);
 118:	4b4b      	ldr	r3, [pc, #300]	@ (248 <draw_battery+0x248>)
 11a:	1df2      	adds	r2, r6, #7
 11c:	f108 0110 	add.w	r1, r8, #16
 120:	4628      	mov	r0, r5
 122:	f8df 8158 	ldr.w	r8, [pc, #344]	@ 27c <draw_battery+0x27c>
 126:	47c0      	blx	r8
 128:	e7ad      	b.n	86 <draw_battery+0x86>
        canvas_draw_icon(canvas, x + 16, y + 7, &I_FaceNormal_29x14);
 12a:	4b48      	ldr	r3, [pc, #288]	@ (24c <draw_battery+0x24c>)
 12c:	1df2      	adds	r2, r6, #7
 12e:	f108 0110 	add.w	r1, r8, #16
 132:	4628      	mov	r0, r5
 134:	f8df 8144 	ldr.w	r8, [pc, #324]	@ 27c <draw_battery+0x27c>
 138:	47c0      	blx	r8
 13a:	e7a4      	b.n	86 <draw_battery+0x86>
        snprintf(emote, sizeof(emote), "%s", "Yummy!");
 13c:	4b44      	ldr	r3, [pc, #272]	@ (250 <draw_battery+0x250>)
 13e:	e893 0003 	ldmia.w	r3, {r0, r1}
 142:	900d      	str	r0, [sp, #52]	@ 0x34
 144:	f8ad 1038 	strh.w	r1, [sp, #56]	@ 0x38
 148:	0c09      	lsrs	r1, r1, #16
 14a:	f88d 103a 	strb.w	r1, [sp, #58]	@ 0x3a
        snprintf(header, sizeof(header), "%s", "Charging at");
 14e:	ab08      	add	r3, sp, #32
 150:	4a40      	ldr	r2, [pc, #256]	@ (254 <draw_battery+0x254>)
 152:	ca07      	ldmia	r2, {r0, r1, r2}
 154:	e883 0007 	stmia.w	r3, {r0, r1, r2}
            (uint32_t)(data->vbus_voltage),
 158:	ed97 7a00 	vldr	s14, [r7]
            (uint32_t)(data->vbus_voltage * 10) % 10,
 15c:	eef2 7a04 	vmov.f32	s15, #36	@ 0x41200000  10.0
 160:	ee67 7a27 	vmul.f32	s15, s14, s15
 164:	eefc 7ae7 	vcvt.u32.f32	s15, s15
 168:	ee17 3a90 	vmov	r3, s15
        snprintf(
 16c:	9401      	str	r4, [sp, #4]
 16e:	4a3a      	ldr	r2, [pc, #232]	@ (258 <draw_battery+0x258>)
 170:	fba2 1203 	umull	r1, r2, r2, r3
 174:	08d2      	lsrs	r2, r2, #3
 176:	eb02 0282 	add.w	r2, r2, r2, lsl #2
 17a:	eba3 0342 	sub.w	r3, r3, r2, lsl #1
 17e:	9300      	str	r3, [sp, #0]
 180:	eefc 7ac7 	vcvt.u32.f32	s15, s14
 184:	ee17 3a90 	vmov	r3, s15
 188:	4a34      	ldr	r2, [pc, #208]	@ (25c <draw_battery+0x25c>)
 18a:	2114      	movs	r1, #20
 18c:	a803      	add	r0, sp, #12
 18e:	4c29      	ldr	r4, [pc, #164]	@ (234 <draw_battery+0x234>)
 190:	47a0      	blx	r4
 192:	e7a2      	b.n	da <draw_battery+0xda>
        snprintf(
 194:	4b32      	ldr	r3, [pc, #200]	@ (260 <draw_battery+0x260>)
 196:	e788      	b.n	aa <draw_battery+0xaa>
        snprintf(
 198:	4b32      	ldr	r3, [pc, #200]	@ (264 <draw_battery+0x264>)
 19a:	e797      	b.n	cc <draw_battery+0xcc>
    } else if(drain_current != 0) {
 19c:	f1b9 0f00 	cmp.w	r9, #0
 1a0:	d132      	bne.n	208 <draw_battery+0x208>
    } else if(data->charging_voltage < 4.2f) {
 1a2:	ed97 7a04 	vldr	s14, [r7, #16]
 1a6:	eddf 7a30 	vldr	s15, [pc, #192]	@ 268 <draw_battery+0x268>
 1aa:	eeb4 7ae7 	vcmpe.f32	s14, s15
 1ae:	eef1 fa10 	vmrs	APSR_nzcv, fpscr
 1b2:	d52c      	bpl.n	20e <draw_battery+0x20e>
        snprintf(emote, sizeof(emote), "Charged!");
 1b4:	4a2d      	ldr	r2, [pc, #180]	@ (26c <draw_battery+0x26c>)
 1b6:	ab0d      	add	r3, sp, #52	@ 0x34
 1b8:	ca07      	ldmia	r2, {r0, r1, r2}
 1ba:	c303      	stmia	r3!, {r0, r1}
 1bc:	701a      	strb	r2, [r3, #0]
        snprintf(header, sizeof(header), "Limited to");
 1be:	4a2c      	ldr	r2, [pc, #176]	@ (270 <draw_battery+0x270>)
 1c0:	ab08      	add	r3, sp, #32
 1c2:	ca07      	ldmia	r2, {r0, r1, r2}
 1c4:	c303      	stmia	r3!, {r0, r1}
 1c6:	f823 2b02 	strh.w	r2, [r3], #2
 1ca:	0c12      	lsrs	r2, r2, #16
 1cc:	701a      	strb	r2, [r3, #0]
            (uint32_t)(data->charging_voltage),
 1ce:	ed97 7a04 	vldr	s14, [r7, #16]
            (uint32_t)(data->charging_voltage * 10) % 10);
 1d2:	eef2 7a04 	vmov.f32	s15, #36	@ 0x41200000  10.0
 1d6:	ee67 7a27 	vmul.f32	s15, s14, s15
 1da:	eefc 7ae7 	vcvt.u32.f32	s15, s15
 1de:	ee17 3a90 	vmov	r3, s15
        snprintf(
 1e2:	4a1d      	ldr	r2, [pc, #116]	@ (258 <draw_battery+0x258>)
 1e4:	fba2 1203 	umull	r1, r2, r2, r3
 1e8:	08d2      	lsrs	r2, r2, #3
 1ea:	eb02 0282 	add.w	r2, r2, r2, lsl #2
 1ee:	eba3 0342 	sub.w	r3, r3, r2, lsl #1
 1f2:	9300      	str	r3, [sp, #0]
 1f4:	eefc 7ac7 	vcvt.u32.f32	s15, s14
 1f8:	ee17 3a90 	vmov	r3, s15
 1fc:	4a1d      	ldr	r2, [pc, #116]	@ (274 <draw_battery+0x274>)
 1fe:	2114      	movs	r1, #20
 200:	a803      	add	r0, sp, #12
 202:	4c0c      	ldr	r4, [pc, #48]	@ (234 <draw_battery+0x234>)
 204:	47a0      	blx	r4
 206:	e768      	b.n	da <draw_battery+0xda>
        snprintf(header, 20, "...");
 208:	4b1b      	ldr	r3, [pc, #108]	@ (278 <draw_battery+0x278>)
 20a:	9308      	str	r3, [sp, #32]
 20c:	e765      	b.n	da <draw_battery+0xda>
        snprintf(header, sizeof(header), "Charged!");
 20e:	4a17      	ldr	r2, [pc, #92]	@ (26c <draw_battery+0x26c>)
 210:	ab08      	add	r3, sp, #32
 212:	ca07      	ldmia	r2, {r0, r1, r2}
 214:	c303      	stmia	r3!, {r0, r1}
 216:	701a      	strb	r2, [r3, #0]
 218:	e75f      	b.n	da <draw_battery+0xda>
 21a:	bf00      	nop
 21c:	c47a0000 	.word	0xc47a0000
	...
 230:	00000044 	.word	0x00000044
 234:	00000000 	.word	0x00000000
 238:	00000048 	.word	0x00000048
 23c:	00000014 	.word	0x00000014
 240:	00000058 	.word	0x00000058
	...
 250:	0000001c 	.word	0x0000001c
 254:	00000024 	.word	0x00000024
 258:	cccccccd 	.word	0xcccccccd
 25c:	00000030 	.word	0x00000030
 260:	00000008 	.word	0x00000008
 264:	00000018 	.word	0x00000018
 268:	40866666 	.word	0x40866666
 26c:	00000060 	.word	0x00000060
 270:	0000006c 	.word	0x0000006c
 274:	00000078 	.word	0x00000078
 278:	002e2e2e 	.word	0x002e2e2e
	...

00000284 <draw_stat>:
static void draw_stat(Canvas* canvas, int x, int y, const Icon* icon, char* val) {
 284:	e92d 41f0 	stmdb	sp!, {r4, r5, r6, r7, r8, lr}
 288:	b082      	sub	sp, #8
 28a:	4604      	mov	r4, r0
 28c:	460d      	mov	r5, r1
 28e:	4616      	mov	r6, r2
 290:	461f      	mov	r7, r3
    canvas_draw_frame(canvas, x - 7, y + 7, 30, 13);
 292:	230d      	movs	r3, #13
 294:	9300      	str	r3, [sp, #0]
 296:	231e      	movs	r3, #30
 298:	3207      	adds	r2, #7
 29a:	3907      	subs	r1, #7
 29c:	f8df 805c 	ldr.w	r8, [pc, #92]	@ 2fc <draw_stat+0x78>
 2a0:	47c0      	blx	r8
    canvas_draw_icon(canvas, x, y, icon);
 2a2:	463b      	mov	r3, r7
 2a4:	4632      	mov	r2, r6
 2a6:	4629      	mov	r1, r5
 2a8:	4620      	mov	r0, r4
 2aa:	4f11      	ldr	r7, [pc, #68]	@ (2f0 <draw_stat+0x6c>)
 2ac:	47b8      	blx	r7
    canvas_set_color(canvas, ColorWhite);
 2ae:	2100      	movs	r1, #0
 2b0:	4620      	mov	r0, r4
 2b2:	4f10      	ldr	r7, [pc, #64]	@ (2f4 <draw_stat+0x70>)
 2b4:	47b8      	blx	r7
    canvas_draw_box(canvas, x - 4, y + 16, 24, 6);
 2b6:	2306      	movs	r3, #6
 2b8:	9300      	str	r3, [sp, #0]
 2ba:	2318      	movs	r3, #24
 2bc:	f106 0210 	add.w	r2, r6, #16
 2c0:	1f29      	subs	r1, r5, #4
 2c2:	4620      	mov	r0, r4
 2c4:	f8df 8038 	ldr.w	r8, [pc, #56]	@ 300 <draw_stat+0x7c>
 2c8:	47c0      	blx	r8
    canvas_set_color(canvas, ColorBlack);
 2ca:	2101      	movs	r1, #1
 2cc:	4620      	mov	r0, r4
 2ce:	47b8      	blx	r7
    canvas_draw_str_aligned(canvas, x + 8, y + 22, AlignCenter, AlignBottom, val);
 2d0:	9b08      	ldr	r3, [sp, #32]
 2d2:	9301      	str	r3, [sp, #4]
 2d4:	2303      	movs	r3, #3
 2d6:	9300      	str	r3, [sp, #0]
 2d8:	2304      	movs	r3, #4
 2da:	f106 0216 	add.w	r2, r6, #22
 2de:	f105 0108 	add.w	r1, r5, #8
 2e2:	4620      	mov	r0, r4
 2e4:	4c04      	ldr	r4, [pc, #16]	@ (2f8 <draw_stat+0x74>)
 2e6:	47a0      	blx	r4
}
 2e8:	b002      	add	sp, #8
 2ea:	e8bd 81f0 	ldmia.w	sp!, {r4, r5, r6, r7, r8, pc}
 2ee:	bf00      	nop
	...

00000304 <battery_info_draw_callback>:

static void battery_info_draw_callback(Canvas* canvas, void* context) {
 304:	e92d 47f0 	stmdb	sp!, {r4, r5, r6, r7, r8, r9, sl, lr}
 308:	b08e      	sub	sp, #56	@ 0x38
    furi_assert(context);
 30a:	2900      	cmp	r1, #0
 30c:	d063      	beq.n	3d6 <battery_info_draw_callback+0xd2>
 30e:	4604      	mov	r4, r0
 310:	460d      	mov	r5, r1
    BatteryInfoModel* model = context;

    canvas_clear(canvas);
 312:	4b33      	ldr	r3, [pc, #204]	@ (3e0 <sukima693+0x6>)
 314:	4798      	blx	r3
    canvas_set_color(canvas, ColorBlack);
 316:	2101      	movs	r1, #1
 318:	4620      	mov	r0, r4
 31a:	4b32      	ldr	r3, [pc, #200]	@ (3e4 <sukima693+0xa>)
 31c:	4798      	blx	r3
    draw_battery(canvas, model, 0, 5);
 31e:	2305      	movs	r3, #5
 320:	2200      	movs	r2, #0
 322:	4629      	mov	r1, r5
 324:	4620      	mov	r0, r4
 326:	4e30      	ldr	r6, [pc, #192]	@ (3e8 <sukima693+0xe>)
 328:	47b0      	blx	r6
    char batt_level[10];
    char temperature[10];
    char voltage[10];
    char health[10];

    snprintf(batt_level, sizeof(batt_level), "%lu%%", (uint32_t)model->charge);
 32a:	f10d 092c 	add.w	r9, sp, #44	@ 0x2c
 32e:	7d2b      	ldrb	r3, [r5, #20]
 330:	4a2e      	ldr	r2, [pc, #184]	@ (3ec <sukima693+0x12>)
 332:	210a      	movs	r1, #10
 334:	4648      	mov	r0, r9
 336:	4e2e      	ldr	r6, [pc, #184]	@ (3f0 <sukima693+0x16>)
 338:	47b0      	blx	r6
    snprintf(temperature, sizeof(temperature), "%lu C", (uint32_t)model->gauge_temperature);
 33a:	edd5 7a03 	vldr	s15, [r5, #12]
 33e:	f10d 0820 	add.w	r8, sp, #32
 342:	eefc 7ae7 	vcvt.u32.f32	s15, s15
 346:	ee17 3a90 	vmov	r3, s15
 34a:	4a2a      	ldr	r2, [pc, #168]	@ (3f4 <sukima693+0x1a>)
 34c:	210a      	movs	r1, #10
 34e:	4640      	mov	r0, r8
 350:	47b0      	blx	r6
    snprintf(
        voltage,
        sizeof(voltage),
        "%lu.%01lu V",
        (uint32_t)model->gauge_voltage,
 352:	ed95 7a01 	vldr	s14, [r5, #4]
        (uint32_t)(model->gauge_voltage * 10) % 10UL);
 356:	eef2 7a04 	vmov.f32	s15, #36	@ 0x41200000  10.0
 35a:	ee67 7a27 	vmul.f32	s15, s14, s15
 35e:	eefc 7ae7 	vcvt.u32.f32	s15, s15
 362:	ee17 3a90 	vmov	r3, s15
    snprintf(
 366:	af05      	add	r7, sp, #20
 368:	4a23      	ldr	r2, [pc, #140]	@ (3f8 <sukima693+0x1e>)
 36a:	fba2 1203 	umull	r1, r2, r2, r3
 36e:	08d2      	lsrs	r2, r2, #3
 370:	eb02 0282 	add.w	r2, r2, r2, lsl #2
 374:	eba3 0342 	sub.w	r3, r3, r2, lsl #1
 378:	9300      	str	r3, [sp, #0]
 37a:	eefc 7ac7 	vcvt.u32.f32	s15, s14
 37e:	ee17 3a90 	vmov	r3, s15
 382:	4a1e      	ldr	r2, [pc, #120]	@ (3fc <sukima693+0x22>)
 384:	210a      	movs	r1, #10
 386:	4638      	mov	r0, r7
 388:	47b0      	blx	r6
    snprintf(health, sizeof(health), "%d%%", model->health);
 38a:	f10d 0a08 	add.w	sl, sp, #8
 38e:	7d6b      	ldrb	r3, [r5, #21]
 390:	4a1b      	ldr	r2, [pc, #108]	@ (400 <sukima693+0x26>)
 392:	210a      	movs	r1, #10
 394:	4650      	mov	r0, sl
 396:	47b0      	blx	r6

    draw_stat(canvas, 8, 42, &I_Battery_16x16, batt_level);
 398:	f8cd 9000 	str.w	r9, [sp]
 39c:	4b19      	ldr	r3, [pc, #100]	@ (404 <sukima693+0x2a>)
 39e:	222a      	movs	r2, #42	@ 0x2a
 3a0:	2108      	movs	r1, #8
 3a2:	4620      	mov	r0, r4
 3a4:	4d18      	ldr	r5, [pc, #96]	@ (408 <sukima693+0x2e>)
 3a6:	47a8      	blx	r5
    draw_stat(canvas, 40, 42, &I_Temperature_16x16, temperature);
 3a8:	f8cd 8000 	str.w	r8, [sp]
 3ac:	4b17      	ldr	r3, [pc, #92]	@ (40c <sukima693+0x32>)
 3ae:	222a      	movs	r2, #42	@ 0x2a
 3b0:	2128      	movs	r1, #40	@ 0x28
 3b2:	4620      	mov	r0, r4
 3b4:	47a8      	blx	r5
    draw_stat(canvas, 72, 42, &I_Voltage_16x16, voltage);
 3b6:	9700      	str	r7, [sp, #0]
 3b8:	4b15      	ldr	r3, [pc, #84]	@ (410 <sukima693+0x36>)
 3ba:	222a      	movs	r2, #42	@ 0x2a
 3bc:	2148      	movs	r1, #72	@ 0x48
 3be:	4620      	mov	r0, r4
 3c0:	47a8      	blx	r5
    draw_stat(canvas, 104, 42, &I_Health_16x16, health);
 3c2:	f8cd a000 	str.w	sl, [sp]
 3c6:	4b13      	ldr	r3, [pc, #76]	@ (414 <sukima693+0x3a>)
 3c8:	222a      	movs	r2, #42	@ 0x2a
 3ca:	2168      	movs	r1, #104	@ 0x68
 3cc:	4620      	mov	r0, r4
 3ce:	47a8      	blx	r5
}
 3d0:	b00e      	add	sp, #56	@ 0x38
 3d2:	e8bd 87f0 	ldmia.w	sp!, {r4, r5, r6, r7, r8, r9, sl, pc}
    furi_assert(context);
 3d6:	f04f 0c01 	mov.w	ip, #1

000003da <sukima693>:
 3da:	4b0f      	ldr	r3, [pc, #60]	@ (418 <sukima693+0x3e>)
 3dc:	4798      	blx	r3
 3de:	bf00      	nop
	...
 3ec:	00000084 	.word	0x00000084
 3f0:	00000000 	.word	0x00000000
 3f4:	0000008c 	.word	0x0000008c
 3f8:	cccccccd 	.word	0xcccccccd
 3fc:	00000094 	.word	0x00000094
 400:	000000a0 	.word	0x000000a0
	...

0000041c <battery_info_alloc>:

BatteryInfo* battery_info_alloc(void) {
 41c:	b510      	push	{r4, lr}
    BatteryInfo* battery_info = malloc(sizeof(BatteryInfo));
 41e:	2004      	movs	r0, #4
 420:	4b09      	ldr	r3, [pc, #36]	@ (448 <battery_info_alloc+0x2c>)
 422:	4798      	blx	r3
 424:	4604      	mov	r4, r0
    battery_info->view = view_alloc();
 426:	4b09      	ldr	r3, [pc, #36]	@ (44c <battery_info_alloc+0x30>)
 428:	4798      	blx	r3
 42a:	6020      	str	r0, [r4, #0]
    view_set_context(battery_info->view, battery_info);
 42c:	4621      	mov	r1, r4
 42e:	4b08      	ldr	r3, [pc, #32]	@ (450 <battery_info_alloc+0x34>)
 430:	4798      	blx	r3
    view_allocate_model(battery_info->view, ViewModelTypeLocking, sizeof(BatteryInfoModel));
 432:	2218      	movs	r2, #24
 434:	2102      	movs	r1, #2
 436:	6820      	ldr	r0, [r4, #0]
 438:	4b06      	ldr	r3, [pc, #24]	@ (454 <battery_info_alloc+0x38>)
 43a:	4798      	blx	r3
    view_set_draw_callback(battery_info->view, battery_info_draw_callback);
 43c:	4906      	ldr	r1, [pc, #24]	@ (458 <battery_info_alloc+0x3c>)
 43e:	6820      	ldr	r0, [r4, #0]
 440:	4b06      	ldr	r3, [pc, #24]	@ (45c <battery_info_alloc+0x40>)
 442:	4798      	blx	r3

    return battery_info;
}
 444:	4620      	mov	r0, r4
 446:	bd10      	pop	{r4, pc}
	...

00000460 <battery_info_free>:

void battery_info_free(BatteryInfo* battery_info) {
 460:	b510      	push	{r4, lr}
    furi_assert(battery_info);
 462:	b138      	cbz	r0, 474 <battery_info_free+0x14>
 464:	4604      	mov	r4, r0
    view_free(battery_info->view);
 466:	6800      	ldr	r0, [r0, #0]
 468:	4b04      	ldr	r3, [pc, #16]	@ (47c <sukima818+0x4>)
 46a:	4798      	blx	r3
    free(battery_info);
 46c:	4620      	mov	r0, r4
 46e:	4b04      	ldr	r3, [pc, #16]	@ (480 <sukima818+0x8>)
 470:	4798      	blx	r3
}
 472:	bd10      	pop	{r4, pc}
    furi_assert(battery_info);
 474:	f04f 0c01 	mov.w	ip, #1

00000478 <sukima818>:
 478:	4b02      	ldr	r3, [pc, #8]	@ (484 <sukima818+0xc>)
 47a:	4798      	blx	r3
	...

00000488 <battery_info_get_view>:

View* battery_info_get_view(BatteryInfo* battery_info) {
 488:	b508      	push	{r3, lr}
    furi_assert(battery_info);
 48a:	b108      	cbz	r0, 490 <battery_info_get_view+0x8>
    return battery_info->view;
}
 48c:	6800      	ldr	r0, [r0, #0]
 48e:	bd08      	pop	{r3, pc}
    furi_assert(battery_info);
 490:	f04f 0c01 	mov.w	ip, #1

00000494 <sukima866>:
 494:	4b00      	ldr	r3, [pc, #0]	@ (498 <sukima866+0x4>)
 496:	4798      	blx	r3
 498:	00000000 	.word	0x00000000

0000049c <battery_info_set_data>:

void battery_info_set_data(BatteryInfo* battery_info, BatteryInfoModel* data) {
 49c:	b538      	push	{r3, r4, r5, lr}
    furi_assert(battery_info);
 49e:	b1c0      	cbz	r0, 4d2 <battery_info_set_data+0x36>
 4a0:	460c      	mov	r4, r1
 4a2:	4605      	mov	r5, r0
    furi_assert(data);
 4a4:	b1c9      	cbz	r1, 4da <sukima955+0x4>
    with_view_model(
 4a6:	6800      	ldr	r0, [r0, #0]
 4a8:	4b0e      	ldr	r3, [pc, #56]	@ (4e4 <sukima972+0x6>)
 4aa:	4798      	blx	r3
 4ac:	6822      	ldr	r2, [r4, #0]
 4ae:	6863      	ldr	r3, [r4, #4]
 4b0:	f8d4 c008 	ldr.w	ip, [r4, #8]
 4b4:	68e1      	ldr	r1, [r4, #12]
 4b6:	6002      	str	r2, [r0, #0]
 4b8:	6043      	str	r3, [r0, #4]
 4ba:	f8c0 c008 	str.w	ip, [r0, #8]
 4be:	60c1      	str	r1, [r0, #12]
 4c0:	6922      	ldr	r2, [r4, #16]
 4c2:	6963      	ldr	r3, [r4, #20]
 4c4:	6102      	str	r2, [r0, #16]
 4c6:	6143      	str	r3, [r0, #20]
 4c8:	2101      	movs	r1, #1
 4ca:	6828      	ldr	r0, [r5, #0]
 4cc:	4b06      	ldr	r3, [pc, #24]	@ (4e8 <sukima972+0xa>)
 4ce:	4798      	blx	r3
        battery_info->view,
        BatteryInfoModel * model,
        { memcpy(model, data, sizeof(BatteryInfoModel)); },
        true);
}
 4d0:	bd38      	pop	{r3, r4, r5, pc}
    furi_assert(battery_info);
 4d2:	f04f 0c01 	mov.w	ip, #1

000004d6 <sukima955>:
 4d6:	4b05      	ldr	r3, [pc, #20]	@ (4ec <sukima972+0xe>)
 4d8:	4798      	blx	r3
    furi_assert(data);
 4da:	f04f 0c01 	mov.w	ip, #1

000004de <sukima972>:
 4de:	4b03      	ldr	r3, [pc, #12]	@ (4ec <sukima972+0xe>)
 4e0:	4798      	blx	r3
 4e2:	bf00      	nop
	...

000004f0 <battery_test_exit_confirm_view>:
}

uint32_t battery_test_exit_confirm_view(void* context) {
    UNUSED(context);
    return BatteryTestAppViewExitDialog;
}
 4f0:	2001      	movs	r0, #1
 4f2:	4770      	bx	lr

000004f4 <battery_test_dialog_callback>:
void battery_test_dialog_callback(DialogExResult result, void* context) {
 4f4:	b508      	push	{r3, lr}
    furi_assert(context);
 4f6:	b121      	cbz	r1, 502 <battery_test_dialog_callback+0xe>
 4f8:	460b      	mov	r3, r1
    if(result == DialogExResultLeft) {
 4fa:	b130      	cbz	r0, 50a <sukima61+0x4>
    } else if(result == DialogExResultRight) {
 4fc:	2802      	cmp	r0, #2
 4fe:	d008      	beq.n	512 <sukima61+0xc>
}
 500:	bd08      	pop	{r3, pc}
    furi_assert(context);
 502:	f04f 0c01 	mov.w	ip, #1

00000506 <sukima61>:
 506:	4b05      	ldr	r3, [pc, #20]	@ (51c <sukima61+0x16>)
 508:	4798      	blx	r3
        view_dispatcher_stop(app->view_dispatcher);
 50a:	68c8      	ldr	r0, [r1, #12]
 50c:	4b04      	ldr	r3, [pc, #16]	@ (520 <sukima61+0x1a>)
 50e:	4798      	blx	r3
 510:	e7f6      	b.n	500 <battery_test_dialog_callback+0xc>
        view_dispatcher_switch_to_view(app->view_dispatcher, BatteryTestAppViewBatteryInfo);
 512:	2100      	movs	r1, #0
 514:	68d8      	ldr	r0, [r3, #12]
 516:	4b03      	ldr	r3, [pc, #12]	@ (524 <sukima61+0x1e>)
 518:	4798      	blx	r3
}
 51a:	e7f1      	b.n	500 <battery_test_dialog_callback+0xc>
	...

00000528 <battery_test_battery_info_update_model>:

static void battery_test_battery_info_update_model(void* context) {
 528:	b510      	push	{r4, lr}
 52a:	b086      	sub	sp, #24
 52c:	4604      	mov	r4, r0
    BatteryTestApp* app = context;
    power_get_info(app->power, &app->info);
 52e:	4601      	mov	r1, r0
 530:	f851 0b18 	ldr.w	r0, [r1], #24
 534:	4b11      	ldr	r3, [pc, #68]	@ (57c <battery_test_battery_info_update_model+0x54>)
 536:	4798      	blx	r3
    BatteryInfoModel battery_info_data = {
 538:	2300      	movs	r3, #0
 53a:	9300      	str	r3, [sp, #0]
 53c:	9301      	str	r3, [sp, #4]
 53e:	9302      	str	r3, [sp, #8]
 540:	9303      	str	r3, [sp, #12]
 542:	9304      	str	r3, [sp, #16]
 544:	9305      	str	r3, [sp, #20]
        .vbus_voltage = app->info.voltage_vbus,
 546:	6b23      	ldr	r3, [r4, #48]	@ 0x30
    BatteryInfoModel battery_info_data = {
 548:	9300      	str	r3, [sp, #0]
        .gauge_voltage = app->info.voltage_gauge,
 54a:	6ae3      	ldr	r3, [r4, #44]	@ 0x2c
    BatteryInfoModel battery_info_data = {
 54c:	9301      	str	r3, [sp, #4]
        .gauge_current = app->info.current_gauge,
 54e:	6a23      	ldr	r3, [r4, #32]
    BatteryInfoModel battery_info_data = {
 550:	9302      	str	r3, [sp, #8]
        .gauge_temperature = app->info.temperature_gauge,
 552:	6c23      	ldr	r3, [r4, #64]	@ 0x40
    BatteryInfoModel battery_info_data = {
 554:	9303      	str	r3, [sp, #12]
        .charge = app->info.charge,
 556:	f894 3044 	ldrb.w	r3, [r4, #68]	@ 0x44
    BatteryInfoModel battery_info_data = {
 55a:	f88d 3014 	strb.w	r3, [sp, #20]
        .health = app->info.health,
 55e:	f894 3045 	ldrb.w	r3, [r4, #69]	@ 0x45
    BatteryInfoModel battery_info_data = {
 562:	f88d 3015 	strb.w	r3, [sp, #21]
    };
    battery_info_set_data(app->battery_info, &battery_info_data);
 566:	4669      	mov	r1, sp
 568:	6920      	ldr	r0, [r4, #16]
 56a:	4b05      	ldr	r3, [pc, #20]	@ (580 <battery_test_battery_info_update_model+0x58>)
 56c:	4798      	blx	r3
    notification_message(app->notifications, &sequence_display_backlight_on);
 56e:	4905      	ldr	r1, [pc, #20]	@ (584 <battery_test_battery_info_update_model+0x5c>)
 570:	68a0      	ldr	r0, [r4, #8]
 572:	4b05      	ldr	r3, [pc, #20]	@ (588 <battery_test_battery_info_update_model+0x60>)
 574:	4798      	blx	r3
}
 576:	b006      	add	sp, #24
 578:	bd10      	pop	{r4, pc}
 57a:	bf00      	nop
	...

0000058c <battery_test_alloc>:

BatteryTestApp* battery_test_alloc(void) {
 58c:	b5f0      	push	{r4, r5, r6, r7, lr}
 58e:	b083      	sub	sp, #12
    BatteryTestApp* app = malloc(sizeof(BatteryTestApp));
 590:	2048      	movs	r0, #72	@ 0x48
 592:	4b2e      	ldr	r3, [pc, #184]	@ (64c <battery_test_alloc+0xc0>)
 594:	4798      	blx	r3
 596:	4604      	mov	r4, r0

    // Records
    app->gui = furi_record_open(RECORD_GUI);
 598:	482d      	ldr	r0, [pc, #180]	@ (650 <battery_test_alloc+0xc4>)
 59a:	4d2e      	ldr	r5, [pc, #184]	@ (654 <battery_test_alloc+0xc8>)
 59c:	47a8      	blx	r5
 59e:	6060      	str	r0, [r4, #4]
    app->power = furi_record_open(RECORD_POWER);
 5a0:	482d      	ldr	r0, [pc, #180]	@ (658 <battery_test_alloc+0xcc>)
 5a2:	47a8      	blx	r5
 5a4:	6020      	str	r0, [r4, #0]
    app->notifications = furi_record_open(RECORD_NOTIFICATION);
 5a6:	482d      	ldr	r0, [pc, #180]	@ (65c <battery_test_alloc+0xd0>)
 5a8:	47a8      	blx	r5
 5aa:	60a0      	str	r0, [r4, #8]

    // View dispatcher
    app->view_dispatcher = view_dispatcher_alloc();
 5ac:	4b2c      	ldr	r3, [pc, #176]	@ (660 <battery_test_alloc+0xd4>)
 5ae:	4798      	blx	r3
 5b0:	60e0      	str	r0, [r4, #12]
    view_dispatcher_set_event_callback_context(app->view_dispatcher, app);
 5b2:	4621      	mov	r1, r4
 5b4:	4b2b      	ldr	r3, [pc, #172]	@ (664 <battery_test_alloc+0xd8>)
 5b6:	4798      	blx	r3
    view_dispatcher_set_tick_event_callback(
 5b8:	4d2b      	ldr	r5, [pc, #172]	@ (668 <battery_test_alloc+0xdc>)
 5ba:	f44f 72fa 	mov.w	r2, #500	@ 0x1f4
 5be:	4629      	mov	r1, r5
 5c0:	68e0      	ldr	r0, [r4, #12]
 5c2:	4b2a      	ldr	r3, [pc, #168]	@ (66c <battery_test_alloc+0xe0>)
 5c4:	4798      	blx	r3
        app->view_dispatcher, battery_test_battery_info_update_model, 500);
    view_dispatcher_attach_to_gui(app->view_dispatcher, app->gui, ViewDispatcherTypeFullscreen);
 5c6:	2202      	movs	r2, #2
 5c8:	6861      	ldr	r1, [r4, #4]
 5ca:	68e0      	ldr	r0, [r4, #12]
 5cc:	4b28      	ldr	r3, [pc, #160]	@ (670 <battery_test_alloc+0xe4>)
 5ce:	4798      	blx	r3

    // Views
    app->battery_info = battery_info_alloc();
 5d0:	4b28      	ldr	r3, [pc, #160]	@ (674 <battery_test_alloc+0xe8>)
 5d2:	4798      	blx	r3
 5d4:	6120      	str	r0, [r4, #16]
    view_set_previous_callback(
 5d6:	4e28      	ldr	r6, [pc, #160]	@ (678 <battery_test_alloc+0xec>)
 5d8:	47b0      	blx	r6
 5da:	4928      	ldr	r1, [pc, #160]	@ (67c <battery_test_alloc+0xf0>)
 5dc:	4b28      	ldr	r3, [pc, #160]	@ (680 <battery_test_alloc+0xf4>)
 5de:	4798      	blx	r3
        battery_info_get_view(app->battery_info), battery_test_exit_confirm_view);
    view_dispatcher_add_view(
 5e0:	68e7      	ldr	r7, [r4, #12]
 5e2:	6920      	ldr	r0, [r4, #16]
 5e4:	47b0      	blx	r6
 5e6:	4602      	mov	r2, r0
 5e8:	2100      	movs	r1, #0
 5ea:	4638      	mov	r0, r7
 5ec:	4e25      	ldr	r6, [pc, #148]	@ (684 <battery_test_alloc+0xf8>)
 5ee:	47b0      	blx	r6
        app->view_dispatcher,
        BatteryTestAppViewBatteryInfo,
        battery_info_get_view(app->battery_info));

    app->dialog = dialog_ex_alloc();
 5f0:	4b25      	ldr	r3, [pc, #148]	@ (688 <battery_test_alloc+0xfc>)
 5f2:	4798      	blx	r3
 5f4:	6160      	str	r0, [r4, #20]
    dialog_ex_set_header(app->dialog, "Close Battery Test?", 64, 12, AlignCenter, AlignTop);
 5f6:	2302      	movs	r3, #2
 5f8:	9301      	str	r3, [sp, #4]
 5fa:	2304      	movs	r3, #4
 5fc:	9300      	str	r3, [sp, #0]
 5fe:	230c      	movs	r3, #12
 600:	2240      	movs	r2, #64	@ 0x40
 602:	4922      	ldr	r1, [pc, #136]	@ (68c <battery_test_alloc+0x100>)
 604:	4f22      	ldr	r7, [pc, #136]	@ (690 <battery_test_alloc+0x104>)
 606:	47b8      	blx	r7
    dialog_ex_set_left_button_text(app->dialog, "Exit");
 608:	4922      	ldr	r1, [pc, #136]	@ (694 <battery_test_alloc+0x108>)
 60a:	6960      	ldr	r0, [r4, #20]
 60c:	4b22      	ldr	r3, [pc, #136]	@ (698 <battery_test_alloc+0x10c>)
 60e:	4798      	blx	r3
    dialog_ex_set_right_button_text(app->dialog, "Stay");
 610:	4922      	ldr	r1, [pc, #136]	@ (69c <battery_test_alloc+0x110>)
 612:	6960      	ldr	r0, [r4, #20]
 614:	4b22      	ldr	r3, [pc, #136]	@ (6a0 <battery_test_alloc+0x114>)
 616:	4798      	blx	r3
    dialog_ex_set_result_callback(app->dialog, battery_test_dialog_callback);
 618:	4922      	ldr	r1, [pc, #136]	@ (6a4 <battery_test_alloc+0x118>)
 61a:	6960      	ldr	r0, [r4, #20]
 61c:	4b22      	ldr	r3, [pc, #136]	@ (6a8 <battery_test_alloc+0x11c>)
 61e:	4798      	blx	r3
    dialog_ex_set_context(app->dialog, app);
 620:	4621      	mov	r1, r4
 622:	6960      	ldr	r0, [r4, #20]
 624:	4b21      	ldr	r3, [pc, #132]	@ (6ac <battery_test_alloc+0x120>)
 626:	4798      	blx	r3

    view_dispatcher_add_view(
 628:	68e7      	ldr	r7, [r4, #12]
 62a:	6960      	ldr	r0, [r4, #20]
 62c:	4b20      	ldr	r3, [pc, #128]	@ (6b0 <battery_test_alloc+0x124>)
 62e:	4798      	blx	r3
 630:	4602      	mov	r2, r0
 632:	2101      	movs	r1, #1
 634:	4638      	mov	r0, r7
 636:	47b0      	blx	r6
        app->view_dispatcher, BatteryTestAppViewExitDialog, dialog_ex_get_view(app->dialog));

    battery_test_battery_info_update_model(app);
 638:	4620      	mov	r0, r4
 63a:	47a8      	blx	r5
    view_dispatcher_switch_to_view(app->view_dispatcher, BatteryTestAppViewBatteryInfo);
 63c:	2100      	movs	r1, #0
 63e:	68e0      	ldr	r0, [r4, #12]
 640:	4b1c      	ldr	r3, [pc, #112]	@ (6b4 <battery_test_alloc+0x128>)
 642:	4798      	blx	r3
    return app;
}
 644:	4620      	mov	r0, r4
 646:	b003      	add	sp, #12
 648:	bdf0      	pop	{r4, r5, r6, r7, pc}
 64a:	bf00      	nop
 64c:	00000000 	.word	0x00000000
 650:	000000a8 	.word	0x000000a8
 654:	00000000 	.word	0x00000000
 658:	000000ac 	.word	0x000000ac
 65c:	000000b4 	.word	0x000000b4
	...
 68c:	000000c4 	.word	0x000000c4
 690:	00000000 	.word	0x00000000
 694:	000000d8 	.word	0x000000d8
 698:	00000000 	.word	0x00000000
 69c:	000000e0 	.word	0x000000e0
	...

000006b8 <battery_test_free>:

void battery_test_free(BatteryTestApp* app) {
 6b8:	b538      	push	{r3, r4, r5, lr}
    furi_assert(app);
 6ba:	b1d8      	cbz	r0, 6f4 <battery_test_free+0x3c>
 6bc:	4604      	mov	r4, r0

    // Views
    view_dispatcher_remove_view(app->view_dispatcher, BatteryTestAppViewBatteryInfo);
 6be:	2100      	movs	r1, #0
 6c0:	68c0      	ldr	r0, [r0, #12]
 6c2:	4d0e      	ldr	r5, [pc, #56]	@ (6fc <sukima454+0x4>)
 6c4:	47a8      	blx	r5
    battery_info_free(app->battery_info);
 6c6:	6920      	ldr	r0, [r4, #16]
 6c8:	4b0d      	ldr	r3, [pc, #52]	@ (700 <sukima454+0x8>)
 6ca:	4798      	blx	r3
    view_dispatcher_remove_view(app->view_dispatcher, BatteryTestAppViewExitDialog);
 6cc:	2101      	movs	r1, #1
 6ce:	68e0      	ldr	r0, [r4, #12]
 6d0:	47a8      	blx	r5
    dialog_ex_free(app->dialog);
 6d2:	6960      	ldr	r0, [r4, #20]
 6d4:	4b0b      	ldr	r3, [pc, #44]	@ (704 <sukima454+0xc>)
 6d6:	4798      	blx	r3
    // View dispatcher
    view_dispatcher_free(app->view_dispatcher);
 6d8:	68e0      	ldr	r0, [r4, #12]
 6da:	4b0b      	ldr	r3, [pc, #44]	@ (708 <sukima454+0x10>)
 6dc:	4798      	blx	r3
    // Records
    furi_record_close(RECORD_POWER);
 6de:	480b      	ldr	r0, [pc, #44]	@ (70c <sukima454+0x14>)
 6e0:	4d0b      	ldr	r5, [pc, #44]	@ (710 <sukima454+0x18>)
 6e2:	47a8      	blx	r5
    furi_record_close(RECORD_GUI);
 6e4:	480b      	ldr	r0, [pc, #44]	@ (714 <sukima454+0x1c>)
 6e6:	47a8      	blx	r5
    furi_record_close(RECORD_NOTIFICATION);
 6e8:	480b      	ldr	r0, [pc, #44]	@ (718 <sukima454+0x20>)
 6ea:	47a8      	blx	r5
    free(app);
 6ec:	4620      	mov	r0, r4
 6ee:	4b0b      	ldr	r3, [pc, #44]	@ (71c <sukima454+0x24>)
 6f0:	4798      	blx	r3
}
 6f2:	bd38      	pop	{r3, r4, r5, pc}
    furi_assert(app);
 6f4:	f04f 0c01 	mov.w	ip, #1

000006f8 <sukima454>:
 6f8:	4b09      	ldr	r3, [pc, #36]	@ (720 <sukima454+0x28>)
 6fa:	4798      	blx	r3
	...
 70c:	000000ac 	.word	0x000000ac
 710:	00000000 	.word	0x00000000
 714:	000000a8 	.word	0x000000a8
 718:	000000b4 	.word	0x000000b4
	...

00000724 <battery_test_app>:

int32_t battery_test_app(void* p) {
 724:	b538      	push	{r3, r4, r5, lr}
    UNUSED(p);
    BatteryTestApp* app = battery_test_alloc();
 726:	4b09      	ldr	r3, [pc, #36]	@ (74c <battery_test_app+0x28>)
 728:	4798      	blx	r3
 72a:	4604      	mov	r4, r0
    // Disable battery low level notification
    power_enable_low_battery_level_notification(app->power, false);
 72c:	2100      	movs	r1, #0
 72e:	6800      	ldr	r0, [r0, #0]
 730:	4d07      	ldr	r5, [pc, #28]	@ (750 <battery_test_app+0x2c>)
 732:	47a8      	blx	r5

    view_dispatcher_run(app->view_dispatcher);
 734:	68e0      	ldr	r0, [r4, #12]
 736:	4b07      	ldr	r3, [pc, #28]	@ (754 <battery_test_app+0x30>)
 738:	4798      	blx	r3
    power_enable_low_battery_level_notification(app->power, true);
 73a:	2101      	movs	r1, #1
 73c:	6820      	ldr	r0, [r4, #0]
 73e:	47a8      	blx	r5
    battery_test_free(app);
 740:	4620      	mov	r0, r4
 742:	4b05      	ldr	r3, [pc, #20]	@ (758 <battery_test_app+0x34>)
 744:	4798      	blx	r3
    return 0;
}
 746:	2000      	movs	r0, #0
 748:	bd38      	pop	{r3, r4, r5, pc}
 74a:	bf00      	nop
	...
