
build/f7-firmware-D/.extapps/cli_rfid_d.elf:     file format elf32-littlearm


Disassembly of section .text:

00000000 <__aeabi_drsub>:
       0:	f081 4100 	eor.w	r1, r1, #2147483648	@ 0x80000000
       4:	e002      	b.n	c <__adddf3>
       6:	bf00      	nop

00000008 <__aeabi_dsub>:
       8:	f083 4300 	eor.w	r3, r3, #2147483648	@ 0x80000000

0000000c <__adddf3>:
       c:	b530      	push	{r4, r5, lr}
       e:	ea4f 0441 	mov.w	r4, r1, lsl #1
      12:	ea4f 0543 	mov.w	r5, r3, lsl #1
      16:	ea94 0f05 	teq	r4, r5
      1a:	bf08      	it	eq
      1c:	ea90 0f02 	teqeq	r0, r2
      20:	bf1f      	itttt	ne
      22:	ea54 0c00 	orrsne.w	ip, r4, r0
      26:	ea55 0c02 	orrsne.w	ip, r5, r2
      2a:	ea7f 5c64 	mvnsne.w	ip, r4, asr #21
      2e:	ea7f 5c65 	mvnsne.w	ip, r5, asr #21
      32:	f000 80e2 	beq.w	1fa <__adddf3+0x1ee>
      36:	ea4f 5454 	mov.w	r4, r4, lsr #21
      3a:	ebd4 5555 	rsbs	r5, r4, r5, lsr #21
      3e:	bfb8      	it	lt
      40:	426d      	neglt	r5, r5
      42:	dd0c      	ble.n	5e <__adddf3+0x52>
      44:	442c      	add	r4, r5
      46:	ea80 0202 	eor.w	r2, r0, r2
      4a:	ea81 0303 	eor.w	r3, r1, r3
      4e:	ea82 0000 	eor.w	r0, r2, r0
      52:	ea83 0101 	eor.w	r1, r3, r1
      56:	ea80 0202 	eor.w	r2, r0, r2
      5a:	ea81 0303 	eor.w	r3, r1, r3
      5e:	2d36      	cmp	r5, #54	@ 0x36
      60:	bf88      	it	hi
      62:	bd30      	pophi	{r4, r5, pc}
      64:	f011 4f00 	tst.w	r1, #2147483648	@ 0x80000000
      68:	ea4f 3101 	mov.w	r1, r1, lsl #12
      6c:	f44f 1c80 	mov.w	ip, #1048576	@ 0x100000
      70:	ea4c 3111 	orr.w	r1, ip, r1, lsr #12
      74:	d002      	beq.n	7c <__adddf3+0x70>
      76:	4240      	negs	r0, r0
      78:	eb61 0141 	sbc.w	r1, r1, r1, lsl #1
      7c:	f013 4f00 	tst.w	r3, #2147483648	@ 0x80000000
      80:	ea4f 3303 	mov.w	r3, r3, lsl #12
      84:	ea4c 3313 	orr.w	r3, ip, r3, lsr #12
      88:	d002      	beq.n	90 <__adddf3+0x84>
      8a:	4252      	negs	r2, r2
      8c:	eb63 0343 	sbc.w	r3, r3, r3, lsl #1
      90:	ea94 0f05 	teq	r4, r5
      94:	f000 80a7 	beq.w	1e6 <__adddf3+0x1da>
      98:	f1a4 0401 	sub.w	r4, r4, #1
      9c:	f1d5 0e20 	rsbs	lr, r5, #32
      a0:	db0d      	blt.n	be <__adddf3+0xb2>
      a2:	fa02 fc0e 	lsl.w	ip, r2, lr
      a6:	fa22 f205 	lsr.w	r2, r2, r5
      aa:	1880      	adds	r0, r0, r2
      ac:	f141 0100 	adc.w	r1, r1, #0
      b0:	fa03 f20e 	lsl.w	r2, r3, lr
      b4:	1880      	adds	r0, r0, r2
      b6:	fa43 f305 	asr.w	r3, r3, r5
      ba:	4159      	adcs	r1, r3
      bc:	e00e      	b.n	dc <__adddf3+0xd0>
      be:	f1a5 0520 	sub.w	r5, r5, #32
      c2:	f10e 0e20 	add.w	lr, lr, #32
      c6:	2a01      	cmp	r2, #1
      c8:	fa03 fc0e 	lsl.w	ip, r3, lr
      cc:	bf28      	it	cs
      ce:	f04c 0c02 	orrcs.w	ip, ip, #2
      d2:	fa43 f305 	asr.w	r3, r3, r5
      d6:	18c0      	adds	r0, r0, r3
      d8:	eb51 71e3 	adcs.w	r1, r1, r3, asr #31
      dc:	f001 4500 	and.w	r5, r1, #2147483648	@ 0x80000000
      e0:	d507      	bpl.n	f2 <__adddf3+0xe6>
      e2:	f04f 0e00 	mov.w	lr, #0
      e6:	f1dc 0c00 	rsbs	ip, ip, #0
      ea:	eb7e 0000 	sbcs.w	r0, lr, r0
      ee:	eb6e 0101 	sbc.w	r1, lr, r1
      f2:	f5b1 1f80 	cmp.w	r1, #1048576	@ 0x100000
      f6:	d31b      	bcc.n	130 <__adddf3+0x124>
      f8:	f5b1 1f00 	cmp.w	r1, #2097152	@ 0x200000
      fc:	d30c      	bcc.n	118 <__adddf3+0x10c>
      fe:	0849      	lsrs	r1, r1, #1
     100:	ea5f 0030 	movs.w	r0, r0, rrx
     104:	ea4f 0c3c 	mov.w	ip, ip, rrx
     108:	f104 0401 	add.w	r4, r4, #1
     10c:	ea4f 5244 	mov.w	r2, r4, lsl #21
     110:	f512 0f80 	cmn.w	r2, #4194304	@ 0x400000
     114:	f080 809a 	bcs.w	24c <__adddf3+0x240>
     118:	f1bc 4f00 	cmp.w	ip, #2147483648	@ 0x80000000
     11c:	bf08      	it	eq
     11e:	ea5f 0c50 	movseq.w	ip, r0, lsr #1
     122:	f150 0000 	adcs.w	r0, r0, #0
     126:	eb41 5104 	adc.w	r1, r1, r4, lsl #20
     12a:	ea41 0105 	orr.w	r1, r1, r5
     12e:	bd30      	pop	{r4, r5, pc}
     130:	ea5f 0c4c 	movs.w	ip, ip, lsl #1
     134:	4140      	adcs	r0, r0
     136:	eb41 0101 	adc.w	r1, r1, r1
     13a:	3c01      	subs	r4, #1
     13c:	bf28      	it	cs
     13e:	f5b1 1f80 	cmpcs.w	r1, #1048576	@ 0x100000
     142:	d2e9      	bcs.n	118 <__adddf3+0x10c>
     144:	f091 0f00 	teq	r1, #0
     148:	bf04      	itt	eq
     14a:	4601      	moveq	r1, r0
     14c:	2000      	moveq	r0, #0
     14e:	fab1 f381 	clz	r3, r1
     152:	bf08      	it	eq
     154:	3320      	addeq	r3, #32
     156:	f1a3 030b 	sub.w	r3, r3, #11
     15a:	f1b3 0220 	subs.w	r2, r3, #32
     15e:	da0c      	bge.n	17a <__adddf3+0x16e>
     160:	320c      	adds	r2, #12
     162:	dd08      	ble.n	176 <__adddf3+0x16a>
     164:	f102 0c14 	add.w	ip, r2, #20
     168:	f1c2 020c 	rsb	r2, r2, #12
     16c:	fa01 f00c 	lsl.w	r0, r1, ip
     170:	fa21 f102 	lsr.w	r1, r1, r2
     174:	e00c      	b.n	190 <__adddf3+0x184>
     176:	f102 0214 	add.w	r2, r2, #20
     17a:	bfd8      	it	le
     17c:	f1c2 0c20 	rsble	ip, r2, #32
     180:	fa01 f102 	lsl.w	r1, r1, r2
     184:	fa20 fc0c 	lsr.w	ip, r0, ip
     188:	bfdc      	itt	le
     18a:	ea41 010c 	orrle.w	r1, r1, ip
     18e:	4090      	lslle	r0, r2
     190:	1ae4      	subs	r4, r4, r3
     192:	bfa2      	ittt	ge
     194:	eb01 5104 	addge.w	r1, r1, r4, lsl #20
     198:	4329      	orrge	r1, r5
     19a:	bd30      	popge	{r4, r5, pc}
     19c:	ea6f 0404 	mvn.w	r4, r4
     1a0:	3c1f      	subs	r4, #31
     1a2:	da1c      	bge.n	1de <__adddf3+0x1d2>
     1a4:	340c      	adds	r4, #12
     1a6:	dc0e      	bgt.n	1c6 <__adddf3+0x1ba>
     1a8:	f104 0414 	add.w	r4, r4, #20
     1ac:	f1c4 0220 	rsb	r2, r4, #32
     1b0:	fa20 f004 	lsr.w	r0, r0, r4
     1b4:	fa01 f302 	lsl.w	r3, r1, r2
     1b8:	ea40 0003 	orr.w	r0, r0, r3
     1bc:	fa21 f304 	lsr.w	r3, r1, r4
     1c0:	ea45 0103 	orr.w	r1, r5, r3
     1c4:	bd30      	pop	{r4, r5, pc}
     1c6:	f1c4 040c 	rsb	r4, r4, #12
     1ca:	f1c4 0220 	rsb	r2, r4, #32
     1ce:	fa20 f002 	lsr.w	r0, r0, r2
     1d2:	fa01 f304 	lsl.w	r3, r1, r4
     1d6:	ea40 0003 	orr.w	r0, r0, r3
     1da:	4629      	mov	r1, r5
     1dc:	bd30      	pop	{r4, r5, pc}
     1de:	fa21 f004 	lsr.w	r0, r1, r4
     1e2:	4629      	mov	r1, r5
     1e4:	bd30      	pop	{r4, r5, pc}
     1e6:	f094 0f00 	teq	r4, #0
     1ea:	f483 1380 	eor.w	r3, r3, #1048576	@ 0x100000
     1ee:	bf06      	itte	eq
     1f0:	f481 1180 	eoreq.w	r1, r1, #1048576	@ 0x100000
     1f4:	3401      	addeq	r4, #1
     1f6:	3d01      	subne	r5, #1
     1f8:	e74e      	b.n	98 <__adddf3+0x8c>
     1fa:	ea7f 5c64 	mvns.w	ip, r4, asr #21
     1fe:	bf18      	it	ne
     200:	ea7f 5c65 	mvnsne.w	ip, r5, asr #21
     204:	d029      	beq.n	25a <__adddf3+0x24e>
     206:	ea94 0f05 	teq	r4, r5
     20a:	bf08      	it	eq
     20c:	ea90 0f02 	teqeq	r0, r2
     210:	d005      	beq.n	21e <__adddf3+0x212>
     212:	ea54 0c00 	orrs.w	ip, r4, r0
     216:	bf04      	itt	eq
     218:	4619      	moveq	r1, r3
     21a:	4610      	moveq	r0, r2
     21c:	bd30      	pop	{r4, r5, pc}
     21e:	ea91 0f03 	teq	r1, r3
     222:	bf1e      	ittt	ne
     224:	2100      	movne	r1, #0
     226:	2000      	movne	r0, #0
     228:	bd30      	popne	{r4, r5, pc}
     22a:	ea5f 5c54 	movs.w	ip, r4, lsr #21
     22e:	d105      	bne.n	23c <__adddf3+0x230>
     230:	0040      	lsls	r0, r0, #1
     232:	4149      	adcs	r1, r1
     234:	bf28      	it	cs
     236:	f041 4100 	orrcs.w	r1, r1, #2147483648	@ 0x80000000
     23a:	bd30      	pop	{r4, r5, pc}
     23c:	f514 0480 	adds.w	r4, r4, #4194304	@ 0x400000
     240:	bf3c      	itt	cc
     242:	f501 1180 	addcc.w	r1, r1, #1048576	@ 0x100000
     246:	bd30      	popcc	{r4, r5, pc}
     248:	f001 4500 	and.w	r5, r1, #2147483648	@ 0x80000000
     24c:	f045 41fe 	orr.w	r1, r5, #2130706432	@ 0x7f000000
     250:	f441 0170 	orr.w	r1, r1, #15728640	@ 0xf00000
     254:	f04f 0000 	mov.w	r0, #0
     258:	bd30      	pop	{r4, r5, pc}
     25a:	ea7f 5c64 	mvns.w	ip, r4, asr #21
     25e:	bf1a      	itte	ne
     260:	4619      	movne	r1, r3
     262:	4610      	movne	r0, r2
     264:	ea7f 5c65 	mvnseq.w	ip, r5, asr #21
     268:	bf1c      	itt	ne
     26a:	460b      	movne	r3, r1
     26c:	4602      	movne	r2, r0
     26e:	ea50 3401 	orrs.w	r4, r0, r1, lsl #12
     272:	bf06      	itte	eq
     274:	ea52 3503 	orrseq.w	r5, r2, r3, lsl #12
     278:	ea91 0f03 	teqeq	r1, r3
     27c:	f441 2100 	orrne.w	r1, r1, #524288	@ 0x80000
     280:	bd30      	pop	{r4, r5, pc}
     282:	bf00      	nop

00000284 <__aeabi_ui2d>:
     284:	f090 0f00 	teq	r0, #0
     288:	bf04      	itt	eq
     28a:	2100      	moveq	r1, #0
     28c:	4770      	bxeq	lr
     28e:	b530      	push	{r4, r5, lr}
     290:	f44f 6480 	mov.w	r4, #1024	@ 0x400
     294:	f104 0432 	add.w	r4, r4, #50	@ 0x32
     298:	f04f 0500 	mov.w	r5, #0
     29c:	f04f 0100 	mov.w	r1, #0
     2a0:	e750      	b.n	144 <__adddf3+0x138>
     2a2:	bf00      	nop

000002a4 <__aeabi_i2d>:
     2a4:	f090 0f00 	teq	r0, #0
     2a8:	bf04      	itt	eq
     2aa:	2100      	moveq	r1, #0
     2ac:	4770      	bxeq	lr
     2ae:	b530      	push	{r4, r5, lr}
     2b0:	f44f 6480 	mov.w	r4, #1024	@ 0x400
     2b4:	f104 0432 	add.w	r4, r4, #50	@ 0x32
     2b8:	f010 4500 	ands.w	r5, r0, #2147483648	@ 0x80000000
     2bc:	bf48      	it	mi
     2be:	4240      	negmi	r0, r0
     2c0:	f04f 0100 	mov.w	r1, #0
     2c4:	e73e      	b.n	144 <__adddf3+0x138>
     2c6:	bf00      	nop

000002c8 <__aeabi_f2d>:
     2c8:	0042      	lsls	r2, r0, #1
     2ca:	ea4f 01e2 	mov.w	r1, r2, asr #3
     2ce:	ea4f 0131 	mov.w	r1, r1, rrx
     2d2:	ea4f 7002 	mov.w	r0, r2, lsl #28
     2d6:	bf1f      	itttt	ne
     2d8:	f012 437f 	andsne.w	r3, r2, #4278190080	@ 0xff000000
     2dc:	f093 4f7f 	teqne	r3, #4278190080	@ 0xff000000
     2e0:	f081 5160 	eorne.w	r1, r1, #939524096	@ 0x38000000
     2e4:	4770      	bxne	lr
     2e6:	f032 427f 	bics.w	r2, r2, #4278190080	@ 0xff000000
     2ea:	bf08      	it	eq
     2ec:	4770      	bxeq	lr
     2ee:	f093 4f7f 	teq	r3, #4278190080	@ 0xff000000
     2f2:	bf04      	itt	eq
     2f4:	f441 2100 	orreq.w	r1, r1, #524288	@ 0x80000
     2f8:	4770      	bxeq	lr
     2fa:	b530      	push	{r4, r5, lr}
     2fc:	f44f 7460 	mov.w	r4, #896	@ 0x380
     300:	f001 4500 	and.w	r5, r1, #2147483648	@ 0x80000000
     304:	f021 4100 	bic.w	r1, r1, #2147483648	@ 0x80000000
     308:	e71c      	b.n	144 <__adddf3+0x138>
     30a:	bf00      	nop

0000030c <__aeabi_ul2d>:
     30c:	ea50 0201 	orrs.w	r2, r0, r1
     310:	bf08      	it	eq
     312:	4770      	bxeq	lr
     314:	b530      	push	{r4, r5, lr}
     316:	f04f 0500 	mov.w	r5, #0
     31a:	e00a      	b.n	332 <__aeabi_l2d+0x16>

0000031c <__aeabi_l2d>:
     31c:	ea50 0201 	orrs.w	r2, r0, r1
     320:	bf08      	it	eq
     322:	4770      	bxeq	lr
     324:	b530      	push	{r4, r5, lr}
     326:	f011 4500 	ands.w	r5, r1, #2147483648	@ 0x80000000
     32a:	d502      	bpl.n	332 <__aeabi_l2d+0x16>
     32c:	4240      	negs	r0, r0
     32e:	eb61 0141 	sbc.w	r1, r1, r1, lsl #1
     332:	f44f 6480 	mov.w	r4, #1024	@ 0x400
     336:	f104 0432 	add.w	r4, r4, #50	@ 0x32
     33a:	ea5f 5c91 	movs.w	ip, r1, lsr #22
     33e:	f43f aed8 	beq.w	f2 <__adddf3+0xe6>
     342:	f04f 0203 	mov.w	r2, #3
     346:	ea5f 0cdc 	movs.w	ip, ip, lsr #3
     34a:	bf18      	it	ne
     34c:	3203      	addne	r2, #3
     34e:	ea5f 0cdc 	movs.w	ip, ip, lsr #3
     352:	bf18      	it	ne
     354:	3203      	addne	r2, #3
     356:	eb02 02dc 	add.w	r2, r2, ip, lsr #3
     35a:	f1c2 0320 	rsb	r3, r2, #32
     35e:	fa00 fc03 	lsl.w	ip, r0, r3
     362:	fa20 f002 	lsr.w	r0, r0, r2
     366:	fa01 fe03 	lsl.w	lr, r1, r3
     36a:	ea40 000e 	orr.w	r0, r0, lr
     36e:	fa21 f102 	lsr.w	r1, r1, r2
     372:	4414      	add	r4, r2
     374:	e6bd      	b.n	f2 <__adddf3+0xe6>
     376:	bf00      	nop

00000378 <lfrfid_cli_print_usage>:
#include <toolbox/protocols/protocol_dict.h>
#include <lfrfid/protocols/lfrfid_protocols.h>
#include <lfrfid/lfrfid_raw_file.h>
#include <toolbox/pulse_protocols/pulse_glue.h>

static void lfrfid_cli_print_usage(void) {
     378:	b510      	push	{r4, lr}
    printf("Usage:\r\n");
     37a:	4807      	ldr	r0, [pc, #28]	@ (398 <lfrfid_cli_print_usage+0x20>)
     37c:	4c07      	ldr	r4, [pc, #28]	@ (39c <lfrfid_cli_print_usage+0x24>)
     37e:	47a0      	blx	r4
    printf("rfid read <optional: normal | indala>         - read in ASK/PSK mode\r\n");
     380:	4807      	ldr	r0, [pc, #28]	@ (3a0 <lfrfid_cli_print_usage+0x28>)
     382:	47a0      	blx	r4
    printf("rfid <write | emulate> <key_type> <key_data>  - write or emulate a card\r\n");
     384:	4807      	ldr	r0, [pc, #28]	@ (3a4 <lfrfid_cli_print_usage+0x2c>)
     386:	47a0      	blx	r4
    printf("rfid raw_read <ask | psk> <filename>          - read and save raw data to a file\r\n");
     388:	4807      	ldr	r0, [pc, #28]	@ (3a8 <lfrfid_cli_print_usage+0x30>)
     38a:	47a0      	blx	r4
    printf(
     38c:	4807      	ldr	r0, [pc, #28]	@ (3ac <lfrfid_cli_print_usage+0x34>)
     38e:	47a0      	blx	r4
        "rfid raw_emulate <filename>                   - emulate raw data (not very useful, but helps debug protocols)\r\n");
    printf(
     390:	4807      	ldr	r0, [pc, #28]	@ (3b0 <lfrfid_cli_print_usage+0x38>)
     392:	47a0      	blx	r4
        "rfid raw_analyze <filename>                   - outputs raw data to the cli and tries to decode it (useful for protocol development)\r\n");
}
     394:	bd10      	pop	{r4, pc}
     396:	bf00      	nop
	...
     3a0:	00000008 	.word	0x00000008
     3a4:	00000050 	.word	0x00000050
     3a8:	0000009c 	.word	0x0000009c
     3ac:	000000f0 	.word	0x000000f0
     3b0:	00000160 	.word	0x00000160

000003b4 <lfrfid_cli_read>:
        FURI_SW_MEMBARRIER();
    }
    furi_event_flag_set(context->event, 1 << result);
}

static void lfrfid_cli_read(PipeSide* pipe, FuriString* args) {
     3b4:	e92d 41f0 	stmdb	sp!, {r4, r5, r6, r7, r8, lr}
     3b8:	b082      	sub	sp, #8
     3ba:	4605      	mov	r5, r0
     3bc:	460e      	mov	r6, r1
    FuriString* type_string;
    type_string = furi_string_alloc();
     3be:	4b59      	ldr	r3, [pc, #356]	@ (524 <lfrfid_cli_read+0x170>)
     3c0:	4798      	blx	r3
     3c2:	4604      	mov	r4, r0
    LFRFIDWorkerReadType type = LFRFIDWorkerReadTypeAuto;

    if(args_read_string_and_trim(args, type_string)) {
     3c4:	4601      	mov	r1, r0
     3c6:	4630      	mov	r0, r6
     3c8:	4b57      	ldr	r3, [pc, #348]	@ (528 <lfrfid_cli_read+0x174>)
     3ca:	4798      	blx	r3
     3cc:	b328      	cbz	r0, 41a <lfrfid_cli_read+0x66>
        if(furi_string_cmp_str(type_string, "normal") == 0 ||
     3ce:	4957      	ldr	r1, [pc, #348]	@ (52c <lfrfid_cli_read+0x178>)
     3d0:	4620      	mov	r0, r4
     3d2:	4b57      	ldr	r3, [pc, #348]	@ (530 <lfrfid_cli_read+0x17c>)
     3d4:	4798      	blx	r3
     3d6:	b910      	cbnz	r0, 3de <lfrfid_cli_read+0x2a>
           furi_string_cmp_str(type_string, "ask") == 0) {
            // ask
            type = LFRFIDWorkerReadTypeASKOnly;
     3d8:	f04f 0801 	mov.w	r8, #1
     3dc:	e01f      	b.n	41e <lfrfid_cli_read+0x6a>
           furi_string_cmp_str(type_string, "ask") == 0) {
     3de:	4955      	ldr	r1, [pc, #340]	@ (534 <lfrfid_cli_read+0x180>)
     3e0:	4620      	mov	r0, r4
     3e2:	4b53      	ldr	r3, [pc, #332]	@ (530 <lfrfid_cli_read+0x17c>)
     3e4:	4798      	blx	r3
        if(furi_string_cmp_str(type_string, "normal") == 0 ||
     3e6:	b910      	cbnz	r0, 3ee <lfrfid_cli_read+0x3a>
            type = LFRFIDWorkerReadTypeASKOnly;
     3e8:	f04f 0801 	mov.w	r8, #1
     3ec:	e017      	b.n	41e <lfrfid_cli_read+0x6a>
        } else if(
            furi_string_cmp_str(type_string, "indala") == 0 ||
     3ee:	4952      	ldr	r1, [pc, #328]	@ (538 <lfrfid_cli_read+0x184>)
     3f0:	4620      	mov	r0, r4
     3f2:	4b4f      	ldr	r3, [pc, #316]	@ (530 <lfrfid_cli_read+0x17c>)
     3f4:	4798      	blx	r3
        } else if(
     3f6:	b910      	cbnz	r0, 3fe <lfrfid_cli_read+0x4a>
            furi_string_cmp_str(type_string, "psk") == 0) {
            // psk
            type = LFRFIDWorkerReadTypePSKOnly;
     3f8:	f04f 0802 	mov.w	r8, #2
     3fc:	e00f      	b.n	41e <lfrfid_cli_read+0x6a>
            furi_string_cmp_str(type_string, "psk") == 0) {
     3fe:	494f      	ldr	r1, [pc, #316]	@ (53c <lfrfid_cli_read+0x188>)
     400:	4620      	mov	r0, r4
     402:	4b4b      	ldr	r3, [pc, #300]	@ (530 <lfrfid_cli_read+0x17c>)
     404:	4798      	blx	r3
            furi_string_cmp_str(type_string, "indala") == 0 ||
     406:	b910      	cbnz	r0, 40e <lfrfid_cli_read+0x5a>
            type = LFRFIDWorkerReadTypePSKOnly;
     408:	f04f 0802 	mov.w	r8, #2
     40c:	e007      	b.n	41e <lfrfid_cli_read+0x6a>
        } else {
            lfrfid_cli_print_usage();
     40e:	4b4c      	ldr	r3, [pc, #304]	@ (540 <lfrfid_cli_read+0x18c>)
     410:	4798      	blx	r3
            furi_string_free(type_string);
     412:	4620      	mov	r0, r4
     414:	4b4b      	ldr	r3, [pc, #300]	@ (544 <lfrfid_cli_read+0x190>)
     416:	4798      	blx	r3
            return;
     418:	e045      	b.n	4a6 <lfrfid_cli_read+0xf2>
    LFRFIDWorkerReadType type = LFRFIDWorkerReadTypeAuto;
     41a:	f04f 0800 	mov.w	r8, #0
        }
    }
    furi_string_free(type_string);
     41e:	4620      	mov	r0, r4
     420:	4b48      	ldr	r3, [pc, #288]	@ (544 <lfrfid_cli_read+0x190>)
     422:	4798      	blx	r3

    ProtocolDict* dict = protocol_dict_alloc(lfrfid_protocols, LFRFIDProtocolMax);
     424:	2118      	movs	r1, #24
     426:	4848      	ldr	r0, [pc, #288]	@ (548 <lfrfid_cli_read+0x194>)
     428:	4b48      	ldr	r3, [pc, #288]	@ (54c <lfrfid_cli_read+0x198>)
     42a:	4798      	blx	r3
     42c:	4606      	mov	r6, r0
    LFRFIDWorker* worker = lfrfid_worker_alloc(dict);
     42e:	4b48      	ldr	r3, [pc, #288]	@ (550 <lfrfid_cli_read+0x19c>)
     430:	4798      	blx	r3
     432:	4607      	mov	r7, r0
    LFRFIDCliReadContext context;
    context.protocol = PROTOCOL_NO;
     434:	f04f 33ff 	mov.w	r3, #4294967295	@ 0xffffffff
     438:	9300      	str	r3, [sp, #0]
    context.event = furi_event_flag_alloc();
     43a:	4b46      	ldr	r3, [pc, #280]	@ (554 <lfrfid_cli_read+0x1a0>)
     43c:	4798      	blx	r3
     43e:	9001      	str	r0, [sp, #4]

    lfrfid_worker_start_thread(worker);
     440:	4638      	mov	r0, r7
     442:	4b45      	ldr	r3, [pc, #276]	@ (558 <lfrfid_cli_read+0x1a4>)
     444:	4798      	blx	r3

    printf("Reading RFID...\r\nPress Ctrl+C to abort\r\n");
     446:	4845      	ldr	r0, [pc, #276]	@ (55c <lfrfid_cli_read+0x1a8>)
     448:	4b45      	ldr	r3, [pc, #276]	@ (560 <lfrfid_cli_read+0x1ac>)
     44a:	4798      	blx	r3

    const uint32_t available_flags = (1 << LFRFIDWorkerReadDone);

    lfrfid_worker_read_start(worker, type, lfrfid_cli_read_callback, &context);
     44c:	466b      	mov	r3, sp
     44e:	4a45      	ldr	r2, [pc, #276]	@ (564 <lfrfid_cli_read+0x1b0>)
     450:	4641      	mov	r1, r8
     452:	4638      	mov	r0, r7
     454:	4c44      	ldr	r4, [pc, #272]	@ (568 <lfrfid_cli_read+0x1b4>)
     456:	47a0      	blx	r4
     458:	e003      	b.n	462 <lfrfid_cli_read+0xae>
            if(FURI_BIT(flags, LFRFIDWorkerReadDone)) {
                break;
            }
        }

        if(cli_is_pipe_broken_or_is_etx_next_char(pipe)) break;
     45a:	4628      	mov	r0, r5
     45c:	4b43      	ldr	r3, [pc, #268]	@ (56c <lfrfid_cli_read+0x1b8>)
     45e:	4798      	blx	r3
     460:	b958      	cbnz	r0, 47a <lfrfid_cli_read+0xc6>
            furi_event_flag_wait(context.event, available_flags, FuriFlagWaitAny, 100);
     462:	2364      	movs	r3, #100	@ 0x64
     464:	2200      	movs	r2, #0
     466:	2140      	movs	r1, #64	@ 0x40
     468:	9801      	ldr	r0, [sp, #4]
     46a:	4c41      	ldr	r4, [pc, #260]	@ (570 <lfrfid_cli_read+0x1bc>)
     46c:	47a0      	blx	r4
        if(flags != (unsigned)FuriFlagErrorTimeout) {
     46e:	f110 0f02 	cmn.w	r0, #2
     472:	d0f2      	beq.n	45a <lfrfid_cli_read+0xa6>
            if(FURI_BIT(flags, LFRFIDWorkerReadDone)) {
     474:	f010 0f40 	tst.w	r0, #64	@ 0x40
     478:	d0ef      	beq.n	45a <lfrfid_cli_read+0xa6>
    }

    lfrfid_worker_stop(worker);
     47a:	4638      	mov	r0, r7
     47c:	4b3d      	ldr	r3, [pc, #244]	@ (574 <lfrfid_cli_read+0x1c0>)
     47e:	4798      	blx	r3
    lfrfid_worker_stop_thread(worker);
     480:	4638      	mov	r0, r7
     482:	4b3d      	ldr	r3, [pc, #244]	@ (578 <lfrfid_cli_read+0x1c4>)
     484:	4798      	blx	r3
    lfrfid_worker_free(worker);
     486:	4638      	mov	r0, r7
     488:	4b3c      	ldr	r3, [pc, #240]	@ (57c <lfrfid_cli_read+0x1c8>)
     48a:	4798      	blx	r3

    if(context.protocol != PROTOCOL_NO) {
     48c:	9900      	ldr	r1, [sp, #0]
     48e:	f1b1 3fff 	cmp.w	r1, #4294967295	@ 0xffffffff
     492:	d10b      	bne.n	4ac <lfrfid_cli_read+0xf8>
            printf("%s\r\n", furi_string_get_cstr(info));
        }
        furi_string_free(info);
    }

    printf("Reading stopped\r\n");
     494:	483a      	ldr	r0, [pc, #232]	@ (580 <lfrfid_cli_read+0x1cc>)
     496:	4b32      	ldr	r3, [pc, #200]	@ (560 <lfrfid_cli_read+0x1ac>)
     498:	4798      	blx	r3
    protocol_dict_free(dict);
     49a:	4630      	mov	r0, r6
     49c:	4b39      	ldr	r3, [pc, #228]	@ (584 <lfrfid_cli_read+0x1d0>)
     49e:	4798      	blx	r3

    furi_event_flag_free(context.event);
     4a0:	9801      	ldr	r0, [sp, #4]
     4a2:	4b39      	ldr	r3, [pc, #228]	@ (588 <lfrfid_cli_read+0x1d4>)
     4a4:	4798      	blx	r3
}
     4a6:	b002      	add	sp, #8
     4a8:	e8bd 81f0 	ldmia.w	sp!, {r4, r5, r6, r7, r8, pc}
        printf("%s ", protocol_dict_get_name(dict, context.protocol));
     4ac:	4630      	mov	r0, r6
     4ae:	4b37      	ldr	r3, [pc, #220]	@ (58c <lfrfid_cli_read+0x1d8>)
     4b0:	4798      	blx	r3
     4b2:	4601      	mov	r1, r0
     4b4:	4836      	ldr	r0, [pc, #216]	@ (590 <lfrfid_cli_read+0x1dc>)
     4b6:	4b37      	ldr	r3, [pc, #220]	@ (594 <lfrfid_cli_read+0x1e0>)
     4b8:	4798      	blx	r3
        size_t size = protocol_dict_get_data_size(dict, context.protocol);
     4ba:	9900      	ldr	r1, [sp, #0]
     4bc:	4630      	mov	r0, r6
     4be:	4b36      	ldr	r3, [pc, #216]	@ (598 <lfrfid_cli_read+0x1e4>)
     4c0:	4798      	blx	r3
     4c2:	4607      	mov	r7, r0
        uint8_t* data = malloc(size);
     4c4:	4b35      	ldr	r3, [pc, #212]	@ (59c <lfrfid_cli_read+0x1e8>)
     4c6:	4798      	blx	r3
     4c8:	4605      	mov	r5, r0
        protocol_dict_get_data(dict, context.protocol, data, size);
     4ca:	463b      	mov	r3, r7
     4cc:	4602      	mov	r2, r0
     4ce:	9900      	ldr	r1, [sp, #0]
     4d0:	4630      	mov	r0, r6
     4d2:	4c33      	ldr	r4, [pc, #204]	@ (5a0 <lfrfid_cli_read+0x1ec>)
     4d4:	47a0      	blx	r4
        for(size_t i = 0; i < size; i++) {
     4d6:	2400      	movs	r4, #0
     4d8:	e004      	b.n	4e4 <lfrfid_cli_read+0x130>
            printf("%02X", data[i]);
     4da:	5d29      	ldrb	r1, [r5, r4]
     4dc:	4831      	ldr	r0, [pc, #196]	@ (5a4 <lfrfid_cli_read+0x1f0>)
     4de:	4b2d      	ldr	r3, [pc, #180]	@ (594 <lfrfid_cli_read+0x1e0>)
     4e0:	4798      	blx	r3
        for(size_t i = 0; i < size; i++) {
     4e2:	3401      	adds	r4, #1
     4e4:	42bc      	cmp	r4, r7
     4e6:	d3f8      	bcc.n	4da <lfrfid_cli_read+0x126>
        printf("\r\n");
     4e8:	482f      	ldr	r0, [pc, #188]	@ (5a8 <lfrfid_cli_read+0x1f4>)
     4ea:	4b1d      	ldr	r3, [pc, #116]	@ (560 <lfrfid_cli_read+0x1ac>)
     4ec:	4798      	blx	r3
        free(data);
     4ee:	4628      	mov	r0, r5
     4f0:	4b2e      	ldr	r3, [pc, #184]	@ (5ac <lfrfid_cli_read+0x1f8>)
     4f2:	4798      	blx	r3
        info = furi_string_alloc();
     4f4:	4b0b      	ldr	r3, [pc, #44]	@ (524 <lfrfid_cli_read+0x170>)
     4f6:	4798      	blx	r3
     4f8:	4604      	mov	r4, r0
        protocol_dict_render_data(dict, info, context.protocol);
     4fa:	9a00      	ldr	r2, [sp, #0]
     4fc:	4601      	mov	r1, r0
     4fe:	4630      	mov	r0, r6
     500:	4b2b      	ldr	r3, [pc, #172]	@ (5b0 <lfrfid_cli_read+0x1fc>)
     502:	4798      	blx	r3
        if(!furi_string_empty(info)) {
     504:	4620      	mov	r0, r4
     506:	4b2b      	ldr	r3, [pc, #172]	@ (5b4 <lfrfid_cli_read+0x200>)
     508:	4798      	blx	r3
     50a:	b118      	cbz	r0, 514 <lfrfid_cli_read+0x160>
        furi_string_free(info);
     50c:	4620      	mov	r0, r4
     50e:	4b0d      	ldr	r3, [pc, #52]	@ (544 <lfrfid_cli_read+0x190>)
     510:	4798      	blx	r3
     512:	e7bf      	b.n	494 <lfrfid_cli_read+0xe0>
            printf("%s\r\n", furi_string_get_cstr(info));
     514:	4620      	mov	r0, r4
     516:	4b28      	ldr	r3, [pc, #160]	@ (5b8 <lfrfid_cli_read+0x204>)
     518:	4798      	blx	r3
     51a:	4601      	mov	r1, r0
     51c:	4827      	ldr	r0, [pc, #156]	@ (5bc <lfrfid_cli_read+0x208>)
     51e:	4b1d      	ldr	r3, [pc, #116]	@ (594 <lfrfid_cli_read+0x1e0>)
     520:	4798      	blx	r3
     522:	e7f3      	b.n	50c <lfrfid_cli_read+0x158>
	...
     52c:	000001e8 	.word	0x000001e8
     530:	00000000 	.word	0x00000000
     534:	000001f0 	.word	0x000001f0
     538:	000001f4 	.word	0x000001f4
     53c:	000001fc 	.word	0x000001fc
	...
     55c:	00000200 	.word	0x00000200
	...
     580:	00000240 	.word	0x00000240
	...
     590:	00000228 	.word	0x00000228
	...
     5a4:	0000022c 	.word	0x0000022c
     5a8:	00000234 	.word	0x00000234
	...
     5bc:	00000238 	.word	0x00000238

000005c0 <lfrfid_cli_read_callback>:
static void lfrfid_cli_read_callback(LFRFIDWorkerReadResult result, ProtocolId proto, void* ctx) {
     5c0:	b508      	push	{r3, lr}
    furi_assert(ctx);
     5c2:	b142      	cbz	r2, 5d6 <lfrfid_cli_read_callback+0x16>
     5c4:	4613      	mov	r3, r2
    if(result == LFRFIDWorkerReadDone) {
     5c6:	2806      	cmp	r0, #6
     5c8:	d009      	beq.n	5de <sukima539+0x4>
    furi_event_flag_set(context->event, 1 << result);
     5ca:	2101      	movs	r1, #1
     5cc:	4081      	lsls	r1, r0
     5ce:	6858      	ldr	r0, [r3, #4]
     5d0:	4b04      	ldr	r3, [pc, #16]	@ (5e4 <sukima539+0xa>)
     5d2:	4798      	blx	r3
}
     5d4:	bd08      	pop	{r3, pc}
    furi_assert(ctx);
     5d6:	f04f 0c01 	mov.w	ip, #1

000005da <sukima539>:
     5da:	4b03      	ldr	r3, [pc, #12]	@ (5e8 <sukima539+0xe>)
     5dc:	4798      	blx	r3
        context->protocol = proto;
     5de:	6011      	str	r1, [r2, #0]
        FURI_SW_MEMBARRIER();
     5e0:	e7f3      	b.n	5ca <lfrfid_cli_read_callback+0xa>
     5e2:	bf00      	nop
	...

000005ec <lfrfid_cli_write_callback>:
    furi_string_free(protocol_name);
    furi_string_free(data_text);
    return result;
}

static void lfrfid_cli_write_callback(LFRFIDWorkerWriteResult result, void* ctx) {
     5ec:	b508      	push	{r3, lr}
    furi_assert(ctx);
     5ee:	b131      	cbz	r1, 5fe <lfrfid_cli_write_callback+0x12>
     5f0:	4603      	mov	r3, r0
     5f2:	4608      	mov	r0, r1
    FuriEventFlag* events = ctx;
    furi_event_flag_set(events, 1 << result);
     5f4:	2101      	movs	r1, #1
     5f6:	4099      	lsls	r1, r3
     5f8:	4b03      	ldr	r3, [pc, #12]	@ (608 <sukima613+0x6>)
     5fa:	4798      	blx	r3
}
     5fc:	bd08      	pop	{r3, pc}
    furi_assert(ctx);
     5fe:	f04f 0c01 	mov.w	ip, #1

00000602 <sukima613>:
     602:	4b02      	ldr	r3, [pc, #8]	@ (60c <sukima613+0xa>)
     604:	4798      	blx	r3
     606:	bf00      	nop
	...

00000610 <lfrfid_cli_raw_read_callback>:
    furi_string_free(info_string);
    lfrfid_raw_file_free(file);
    furi_record_close(RECORD_STORAGE);
}

static void lfrfid_cli_raw_read_callback(LFRFIDWorkerReadRawResult result, void* context) {
     610:	b508      	push	{r3, lr}
    furi_assert(context);
     612:	b131      	cbz	r1, 622 <lfrfid_cli_raw_read_callback+0x12>
     614:	4603      	mov	r3, r0
     616:	4608      	mov	r0, r1
    FuriEventFlag* event = context;
    furi_event_flag_set(event, 1 << result);
     618:	2101      	movs	r1, #1
     61a:	4099      	lsls	r1, r3
     61c:	4b03      	ldr	r3, [pc, #12]	@ (62c <sukima674+0x6>)
     61e:	4798      	blx	r3
}
     620:	bd08      	pop	{r3, pc}
    furi_assert(context);
     622:	f04f 0c01 	mov.w	ip, #1

00000626 <sukima674>:
     626:	4b02      	ldr	r3, [pc, #8]	@ (630 <sukima674+0xa>)
     628:	4798      	blx	r3
     62a:	bf00      	nop
	...

00000634 <lfrfid_cli_raw_emulate_callback>:

    furi_string_free(filepath);
    furi_string_free(type_string);
}

static void lfrfid_cli_raw_emulate_callback(LFRFIDWorkerEmulateRawResult result, void* context) {
     634:	b508      	push	{r3, lr}
    furi_assert(context);
     636:	b131      	cbz	r1, 646 <lfrfid_cli_raw_emulate_callback+0x12>
     638:	4603      	mov	r3, r0
     63a:	4608      	mov	r0, r1
    FuriEventFlag* event = context;
    furi_event_flag_set(event, 1 << result);
     63c:	2101      	movs	r1, #1
     63e:	4099      	lsls	r1, r3
     640:	4b03      	ldr	r3, [pc, #12]	@ (650 <sukima735+0x6>)
     642:	4798      	blx	r3
}
     644:	bd08      	pop	{r3, pc}
    furi_assert(context);
     646:	f04f 0c01 	mov.w	ip, #1

0000064a <sukima735>:
     64a:	4b02      	ldr	r3, [pc, #8]	@ (654 <sukima735+0xa>)
     64c:	4798      	blx	r3
     64e:	bf00      	nop
	...

00000658 <lfrfid_cli_parse_args>:
static bool lfrfid_cli_parse_args(FuriString* args, ProtocolDict* dict, ProtocolId* protocol) {
     658:	e92d 4ff8 	stmdb	sp!, {r3, r4, r5, r6, r7, r8, r9, sl, fp, lr}
     65c:	4605      	mov	r5, r0
     65e:	460c      	mov	r4, r1
     660:	4693      	mov	fp, r2
    protocol_name = furi_string_alloc();
     662:	4e35      	ldr	r6, [pc, #212]	@ (738 <lfrfid_cli_parse_args+0xe0>)
     664:	47b0      	blx	r6
     666:	4607      	mov	r7, r0
    data_text = furi_string_alloc();
     668:	47b0      	blx	r6
     66a:	4680      	mov	r8, r0
    size_t data_size = protocol_dict_get_max_data_size(dict);
     66c:	4620      	mov	r0, r4
     66e:	4b33      	ldr	r3, [pc, #204]	@ (73c <lfrfid_cli_parse_args+0xe4>)
     670:	4798      	blx	r3
    uint8_t* data = malloc(data_size);
     672:	4b33      	ldr	r3, [pc, #204]	@ (740 <lfrfid_cli_parse_args+0xe8>)
     674:	4798      	blx	r3
     676:	4681      	mov	r9, r0
        if(!args_read_string_and_trim(args, protocol_name) ||
     678:	4639      	mov	r1, r7
     67a:	4628      	mov	r0, r5
     67c:	4b31      	ldr	r3, [pc, #196]	@ (744 <lfrfid_cli_parse_args+0xec>)
     67e:	4798      	blx	r3
     680:	b120      	cbz	r0, 68c <lfrfid_cli_parse_args+0x34>
           !args_read_string_and_trim(args, data_text)) {
     682:	4641      	mov	r1, r8
     684:	4628      	mov	r0, r5
     686:	4b2f      	ldr	r3, [pc, #188]	@ (744 <lfrfid_cli_parse_args+0xec>)
     688:	4798      	blx	r3
        if(!args_read_string_and_trim(args, protocol_name) ||
     68a:	b968      	cbnz	r0, 6a8 <lfrfid_cli_parse_args+0x50>
            lfrfid_cli_print_usage();
     68c:	4b2e      	ldr	r3, [pc, #184]	@ (748 <lfrfid_cli_parse_args+0xf0>)
     68e:	4798      	blx	r3
    bool result = false;
     690:	2500      	movs	r5, #0
    free(data);
     692:	4648      	mov	r0, r9
     694:	4b2d      	ldr	r3, [pc, #180]	@ (74c <lfrfid_cli_parse_args+0xf4>)
     696:	4798      	blx	r3
    furi_string_free(protocol_name);
     698:	4638      	mov	r0, r7
     69a:	4c2d      	ldr	r4, [pc, #180]	@ (750 <lfrfid_cli_parse_args+0xf8>)
     69c:	47a0      	blx	r4
    furi_string_free(data_text);
     69e:	4640      	mov	r0, r8
     6a0:	47a0      	blx	r4
}
     6a2:	4628      	mov	r0, r5
     6a4:	e8bd 8ff8 	ldmia.w	sp!, {r3, r4, r5, r6, r7, r8, r9, sl, fp, pc}
        *protocol = protocol_dict_get_protocol_by_name(dict, furi_string_get_cstr(protocol_name));
     6a8:	4638      	mov	r0, r7
     6aa:	4b2a      	ldr	r3, [pc, #168]	@ (754 <lfrfid_cli_parse_args+0xfc>)
     6ac:	4798      	blx	r3
     6ae:	4601      	mov	r1, r0
     6b0:	4620      	mov	r0, r4
     6b2:	4b29      	ldr	r3, [pc, #164]	@ (758 <lfrfid_cli_parse_args+0x100>)
     6b4:	4798      	blx	r3
     6b6:	4601      	mov	r1, r0
     6b8:	f8cb 0000 	str.w	r0, [fp]
        if(*protocol == PROTOCOL_NO) {
     6bc:	f1b0 3fff 	cmp.w	r0, #4294967295	@ 0xffffffff
     6c0:	d015      	beq.n	6ee <lfrfid_cli_parse_args+0x96>
        data_size = protocol_dict_get_data_size(dict, *protocol);
     6c2:	4620      	mov	r0, r4
     6c4:	4b25      	ldr	r3, [pc, #148]	@ (75c <lfrfid_cli_parse_args+0x104>)
     6c6:	4798      	blx	r3
     6c8:	4682      	mov	sl, r0
        if(!args_read_hex_bytes(data_text, data, data_size)) {
     6ca:	4602      	mov	r2, r0
     6cc:	4649      	mov	r1, r9
     6ce:	4640      	mov	r0, r8
     6d0:	4b23      	ldr	r3, [pc, #140]	@ (760 <lfrfid_cli_parse_args+0x108>)
     6d2:	4798      	blx	r3
     6d4:	4605      	mov	r5, r0
     6d6:	bb30      	cbnz	r0, 726 <lfrfid_cli_parse_args+0xce>
            printf(
     6d8:	f8db 1000 	ldr.w	r1, [fp]
     6dc:	4620      	mov	r0, r4
     6de:	4b21      	ldr	r3, [pc, #132]	@ (764 <lfrfid_cli_parse_args+0x10c>)
     6e0:	4798      	blx	r3
     6e2:	4601      	mov	r1, r0
     6e4:	4652      	mov	r2, sl
     6e6:	4820      	ldr	r0, [pc, #128]	@ (768 <lfrfid_cli_parse_args+0x110>)
     6e8:	4b20      	ldr	r3, [pc, #128]	@ (76c <lfrfid_cli_parse_args+0x114>)
     6ea:	4798      	blx	r3
            break;
     6ec:	e7d1      	b.n	692 <lfrfid_cli_parse_args+0x3a>
            printf(
     6ee:	4638      	mov	r0, r7
     6f0:	4b18      	ldr	r3, [pc, #96]	@ (754 <lfrfid_cli_parse_args+0xfc>)
     6f2:	4798      	blx	r3
     6f4:	4601      	mov	r1, r0
     6f6:	481e      	ldr	r0, [pc, #120]	@ (770 <lfrfid_cli_parse_args+0x118>)
     6f8:	4b1c      	ldr	r3, [pc, #112]	@ (76c <lfrfid_cli_parse_args+0x114>)
     6fa:	4798      	blx	r3
            for(ProtocolId i = 0; i < LFRFIDProtocolMax; i++) {
     6fc:	2500      	movs	r5, #0
     6fe:	e00e      	b.n	71e <lfrfid_cli_parse_args+0xc6>
                printf(
     700:	4629      	mov	r1, r5
     702:	4620      	mov	r0, r4
     704:	4b17      	ldr	r3, [pc, #92]	@ (764 <lfrfid_cli_parse_args+0x10c>)
     706:	4798      	blx	r3
     708:	4606      	mov	r6, r0
     70a:	4629      	mov	r1, r5
     70c:	4620      	mov	r0, r4
     70e:	4b13      	ldr	r3, [pc, #76]	@ (75c <lfrfid_cli_parse_args+0x104>)
     710:	4798      	blx	r3
     712:	4602      	mov	r2, r0
     714:	4631      	mov	r1, r6
     716:	4817      	ldr	r0, [pc, #92]	@ (774 <lfrfid_cli_parse_args+0x11c>)
     718:	4b14      	ldr	r3, [pc, #80]	@ (76c <lfrfid_cli_parse_args+0x114>)
     71a:	4798      	blx	r3
            for(ProtocolId i = 0; i < LFRFIDProtocolMax; i++) {
     71c:	3501      	adds	r5, #1
     71e:	2d17      	cmp	r5, #23
     720:	ddee      	ble.n	700 <lfrfid_cli_parse_args+0xa8>
    bool result = false;
     722:	2500      	movs	r5, #0
     724:	e7b5      	b.n	692 <lfrfid_cli_parse_args+0x3a>
        protocol_dict_set_data(dict, *protocol, data, data_size);
     726:	4653      	mov	r3, sl
     728:	464a      	mov	r2, r9
     72a:	f8db 1000 	ldr.w	r1, [fp]
     72e:	4620      	mov	r0, r4
     730:	4c11      	ldr	r4, [pc, #68]	@ (778 <lfrfid_cli_parse_args+0x120>)
     732:	47a0      	blx	r4
        result = true;
     734:	e7ad      	b.n	692 <lfrfid_cli_parse_args+0x3a>
     736:	bf00      	nop
	...
     768:	0000029c 	.word	0x0000029c
     76c:	00000000 	.word	0x00000000
     770:	00000254 	.word	0x00000254
     774:	00000284 	.word	0x00000284
     778:	00000000 	.word	0x00000000

0000077c <lfrfid_cli_write>:
static void lfrfid_cli_write(PipeSide* pipe, FuriString* args) {
     77c:	e92d 43f0 	stmdb	sp!, {r4, r5, r6, r7, r8, r9, lr}
     780:	b083      	sub	sp, #12
     782:	4605      	mov	r5, r0
     784:	460c      	mov	r4, r1
    ProtocolDict* dict = protocol_dict_alloc(lfrfid_protocols, LFRFIDProtocolMax);
     786:	2118      	movs	r1, #24
     788:	482c      	ldr	r0, [pc, #176]	@ (83c <lfrfid_cli_write+0xc0>)
     78a:	4b2d      	ldr	r3, [pc, #180]	@ (840 <lfrfid_cli_write+0xc4>)
     78c:	4798      	blx	r3
     78e:	4681      	mov	r9, r0
    if(!lfrfid_cli_parse_args(args, dict, &protocol)) {
     790:	aa01      	add	r2, sp, #4
     792:	4601      	mov	r1, r0
     794:	4620      	mov	r0, r4
     796:	4b2b      	ldr	r3, [pc, #172]	@ (844 <lfrfid_cli_write+0xc8>)
     798:	4798      	blx	r3
     79a:	2800      	cmp	r0, #0
     79c:	d02e      	beq.n	7fc <lfrfid_cli_write+0x80>
    LFRFIDWorker* worker = lfrfid_worker_alloc(dict);
     79e:	4648      	mov	r0, r9
     7a0:	4b29      	ldr	r3, [pc, #164]	@ (848 <lfrfid_cli_write+0xcc>)
     7a2:	4798      	blx	r3
     7a4:	4607      	mov	r7, r0
    FuriEventFlag* event = furi_event_flag_alloc();
     7a6:	4b29      	ldr	r3, [pc, #164]	@ (84c <lfrfid_cli_write+0xd0>)
     7a8:	4798      	blx	r3
     7aa:	4604      	mov	r4, r0
    lfrfid_worker_start_thread(worker);
     7ac:	4638      	mov	r0, r7
     7ae:	4b28      	ldr	r3, [pc, #160]	@ (850 <lfrfid_cli_write+0xd4>)
     7b0:	4798      	blx	r3
    lfrfid_worker_write_start(worker, protocol, lfrfid_cli_write_callback, event);
     7b2:	4623      	mov	r3, r4
     7b4:	4a27      	ldr	r2, [pc, #156]	@ (854 <lfrfid_cli_write+0xd8>)
     7b6:	f89d 1004 	ldrb.w	r1, [sp, #4]
     7ba:	4638      	mov	r0, r7
     7bc:	f8df 80cc 	ldr.w	r8, [pc, #204]	@ 88c <lfrfid_cli_write+0x110>
     7c0:	47c0      	blx	r8
    printf("Writing RFID...\r\nPress Ctrl+C to abort\r\n");
     7c2:	4825      	ldr	r0, [pc, #148]	@ (858 <lfrfid_cli_write+0xdc>)
     7c4:	4b25      	ldr	r3, [pc, #148]	@ (85c <lfrfid_cli_write+0xe0>)
     7c6:	4798      	blx	r3
    while(!cli_is_pipe_broken_or_is_etx_next_char(pipe)) {
     7c8:	4628      	mov	r0, r5
     7ca:	4b25      	ldr	r3, [pc, #148]	@ (860 <lfrfid_cli_write+0xe4>)
     7cc:	4798      	blx	r3
     7ce:	b9e0      	cbnz	r0, 80a <lfrfid_cli_write+0x8e>
        uint32_t flags = furi_event_flag_wait(event, available_flags, FuriFlagWaitAny, 100);
     7d0:	2364      	movs	r3, #100	@ 0x64
     7d2:	2200      	movs	r2, #0
     7d4:	2107      	movs	r1, #7
     7d6:	4620      	mov	r0, r4
     7d8:	4e22      	ldr	r6, [pc, #136]	@ (864 <lfrfid_cli_write+0xe8>)
     7da:	47b0      	blx	r6
        if(flags != (unsigned)FuriFlagErrorTimeout) {
     7dc:	f110 0f02 	cmn.w	r0, #2
     7e0:	d0f2      	beq.n	7c8 <lfrfid_cli_write+0x4c>
            if(FURI_BIT(flags, LFRFIDWorkerWriteOK)) {
     7e2:	f010 0f01 	tst.w	r0, #1
     7e6:	d10d      	bne.n	804 <lfrfid_cli_write+0x88>
            if(FURI_BIT(flags, LFRFIDWorkerWriteProtocolCannotBeWritten)) {
     7e8:	f010 0f02 	tst.w	r0, #2
     7ec:	d122      	bne.n	834 <lfrfid_cli_write+0xb8>
            if(FURI_BIT(flags, LFRFIDWorkerWriteFobCannotBeWritten)) {
     7ee:	f010 0f04 	tst.w	r0, #4
     7f2:	d0e9      	beq.n	7c8 <lfrfid_cli_write+0x4c>
                printf("Seems this fob cannot be written.\r\n");
     7f4:	481c      	ldr	r0, [pc, #112]	@ (868 <lfrfid_cli_write+0xec>)
     7f6:	4b19      	ldr	r3, [pc, #100]	@ (85c <lfrfid_cli_write+0xe0>)
     7f8:	4798      	blx	r3
     7fa:	e7e5      	b.n	7c8 <lfrfid_cli_write+0x4c>
        protocol_dict_free(dict);
     7fc:	4648      	mov	r0, r9
     7fe:	4b1b      	ldr	r3, [pc, #108]	@ (86c <lfrfid_cli_write+0xf0>)
     800:	4798      	blx	r3
        return;
     802:	e014      	b.n	82e <lfrfid_cli_write+0xb2>
                printf("Written!\r\n");
     804:	481a      	ldr	r0, [pc, #104]	@ (870 <lfrfid_cli_write+0xf4>)
     806:	4b15      	ldr	r3, [pc, #84]	@ (85c <lfrfid_cli_write+0xe0>)
     808:	4798      	blx	r3
    printf("Writing stopped\r\n");
     80a:	481a      	ldr	r0, [pc, #104]	@ (874 <lfrfid_cli_write+0xf8>)
     80c:	4b13      	ldr	r3, [pc, #76]	@ (85c <lfrfid_cli_write+0xe0>)
     80e:	4798      	blx	r3
    lfrfid_worker_stop(worker);
     810:	4638      	mov	r0, r7
     812:	4b19      	ldr	r3, [pc, #100]	@ (878 <lfrfid_cli_write+0xfc>)
     814:	4798      	blx	r3
    lfrfid_worker_stop_thread(worker);
     816:	4638      	mov	r0, r7
     818:	4b18      	ldr	r3, [pc, #96]	@ (87c <lfrfid_cli_write+0x100>)
     81a:	4798      	blx	r3
    lfrfid_worker_free(worker);
     81c:	4638      	mov	r0, r7
     81e:	4b18      	ldr	r3, [pc, #96]	@ (880 <lfrfid_cli_write+0x104>)
     820:	4798      	blx	r3
    protocol_dict_free(dict);
     822:	4648      	mov	r0, r9
     824:	4b11      	ldr	r3, [pc, #68]	@ (86c <lfrfid_cli_write+0xf0>)
     826:	4798      	blx	r3
    furi_event_flag_free(event);
     828:	4620      	mov	r0, r4
     82a:	4b16      	ldr	r3, [pc, #88]	@ (884 <lfrfid_cli_write+0x108>)
     82c:	4798      	blx	r3
}
     82e:	b003      	add	sp, #12
     830:	e8bd 83f0 	ldmia.w	sp!, {r4, r5, r6, r7, r8, r9, pc}
                printf("This protocol cannot be written.\r\n");
     834:	4814      	ldr	r0, [pc, #80]	@ (888 <lfrfid_cli_write+0x10c>)
     836:	4b09      	ldr	r3, [pc, #36]	@ (85c <lfrfid_cli_write+0xe0>)
     838:	4798      	blx	r3
                break;
     83a:	e7e6      	b.n	80a <lfrfid_cli_write+0x8e>
	...
     858:	000002c4 	.word	0x000002c4
	...
     868:	0000031c 	.word	0x0000031c
     86c:	00000000 	.word	0x00000000
     870:	000002ec 	.word	0x000002ec
     874:	00000340 	.word	0x00000340
	...
     888:	000002f8 	.word	0x000002f8
     88c:	00000000 	.word	0x00000000

00000890 <lfrfid_cli_emulate>:
static void lfrfid_cli_emulate(PipeSide* pipe, FuriString* args) {
     890:	b570      	push	{r4, r5, r6, lr}
     892:	b082      	sub	sp, #8
     894:	4604      	mov	r4, r0
     896:	460e      	mov	r6, r1
    ProtocolDict* dict = protocol_dict_alloc(lfrfid_protocols, LFRFIDProtocolMax);
     898:	2118      	movs	r1, #24
     89a:	481b      	ldr	r0, [pc, #108]	@ (908 <lfrfid_cli_emulate+0x78>)
     89c:	4b1b      	ldr	r3, [pc, #108]	@ (90c <lfrfid_cli_emulate+0x7c>)
     89e:	4798      	blx	r3
     8a0:	4605      	mov	r5, r0
    if(!lfrfid_cli_parse_args(args, dict, &protocol)) {
     8a2:	aa01      	add	r2, sp, #4
     8a4:	4601      	mov	r1, r0
     8a6:	4630      	mov	r0, r6
     8a8:	4b19      	ldr	r3, [pc, #100]	@ (910 <lfrfid_cli_emulate+0x80>)
     8aa:	4798      	blx	r3
     8ac:	b170      	cbz	r0, 8cc <lfrfid_cli_emulate+0x3c>
    LFRFIDWorker* worker = lfrfid_worker_alloc(dict);
     8ae:	4628      	mov	r0, r5
     8b0:	4b18      	ldr	r3, [pc, #96]	@ (914 <lfrfid_cli_emulate+0x84>)
     8b2:	4798      	blx	r3
     8b4:	4606      	mov	r6, r0
    lfrfid_worker_start_thread(worker);
     8b6:	4b18      	ldr	r3, [pc, #96]	@ (918 <lfrfid_cli_emulate+0x88>)
     8b8:	4798      	blx	r3
    lfrfid_worker_emulate_start(worker, protocol);
     8ba:	f89d 1004 	ldrb.w	r1, [sp, #4]
     8be:	4630      	mov	r0, r6
     8c0:	4b16      	ldr	r3, [pc, #88]	@ (91c <lfrfid_cli_emulate+0x8c>)
     8c2:	4798      	blx	r3
    printf("Emulating RFID...\r\nPress Ctrl+C to abort\r\n");
     8c4:	4816      	ldr	r0, [pc, #88]	@ (920 <lfrfid_cli_emulate+0x90>)
     8c6:	4b17      	ldr	r3, [pc, #92]	@ (924 <lfrfid_cli_emulate+0x94>)
     8c8:	4798      	blx	r3
    while(!cli_is_pipe_broken_or_is_etx_next_char(pipe)) {
     8ca:	e006      	b.n	8da <lfrfid_cli_emulate+0x4a>
        protocol_dict_free(dict);
     8cc:	4628      	mov	r0, r5
     8ce:	4b16      	ldr	r3, [pc, #88]	@ (928 <lfrfid_cli_emulate+0x98>)
     8d0:	4798      	blx	r3
        return;
     8d2:	e016      	b.n	902 <lfrfid_cli_emulate+0x72>
        furi_delay_ms(100);
     8d4:	2064      	movs	r0, #100	@ 0x64
     8d6:	4b15      	ldr	r3, [pc, #84]	@ (92c <lfrfid_cli_emulate+0x9c>)
     8d8:	4798      	blx	r3
    while(!cli_is_pipe_broken_or_is_etx_next_char(pipe)) {
     8da:	4620      	mov	r0, r4
     8dc:	4b14      	ldr	r3, [pc, #80]	@ (930 <lfrfid_cli_emulate+0xa0>)
     8de:	4798      	blx	r3
     8e0:	2800      	cmp	r0, #0
     8e2:	d0f7      	beq.n	8d4 <lfrfid_cli_emulate+0x44>
    printf("Emulation stopped\r\n");
     8e4:	4813      	ldr	r0, [pc, #76]	@ (934 <lfrfid_cli_emulate+0xa4>)
     8e6:	4b0f      	ldr	r3, [pc, #60]	@ (924 <lfrfid_cli_emulate+0x94>)
     8e8:	4798      	blx	r3
    lfrfid_worker_stop(worker);
     8ea:	4630      	mov	r0, r6
     8ec:	4b12      	ldr	r3, [pc, #72]	@ (938 <lfrfid_cli_emulate+0xa8>)
     8ee:	4798      	blx	r3
    lfrfid_worker_stop_thread(worker);
     8f0:	4630      	mov	r0, r6
     8f2:	4b12      	ldr	r3, [pc, #72]	@ (93c <lfrfid_cli_emulate+0xac>)
     8f4:	4798      	blx	r3
    lfrfid_worker_free(worker);
     8f6:	4630      	mov	r0, r6
     8f8:	4b11      	ldr	r3, [pc, #68]	@ (940 <lfrfid_cli_emulate+0xb0>)
     8fa:	4798      	blx	r3
    protocol_dict_free(dict);
     8fc:	4628      	mov	r0, r5
     8fe:	4b0a      	ldr	r3, [pc, #40]	@ (928 <lfrfid_cli_emulate+0x98>)
     900:	4798      	blx	r3
}
     902:	b002      	add	sp, #8
     904:	bd70      	pop	{r4, r5, r6, pc}
     906:	bf00      	nop
	...
     920:	00000354 	.word	0x00000354
	...
     934:	00000380 	.word	0x00000380
	...

00000944 <lfrfid_cli_raw_read>:
static void lfrfid_cli_raw_read(PipeSide* pipe, FuriString* args) {
     944:	e92d 4ff0 	stmdb	sp!, {r4, r5, r6, r7, r8, r9, sl, fp, lr}
     948:	b085      	sub	sp, #20
     94a:	4605      	mov	r5, r0
     94c:	460e      	mov	r6, r1
    filepath = furi_string_alloc();
     94e:	4c48      	ldr	r4, [pc, #288]	@ (a70 <lfrfid_cli_raw_read+0x12c>)
     950:	47a0      	blx	r4
     952:	4680      	mov	r8, r0
    type_string = furi_string_alloc();
     954:	47a0      	blx	r4
     956:	4607      	mov	r7, r0
        if(args_read_string_and_trim(args, type_string)) {
     958:	4601      	mov	r1, r0
     95a:	4630      	mov	r0, r6
     95c:	4b45      	ldr	r3, [pc, #276]	@ (a74 <lfrfid_cli_raw_read+0x130>)
     95e:	4798      	blx	r3
     960:	b1f0      	cbz	r0, 9a0 <lfrfid_cli_raw_read+0x5c>
            if(furi_string_cmp_str(type_string, "normal") == 0 ||
     962:	4945      	ldr	r1, [pc, #276]	@ (a78 <lfrfid_cli_raw_read+0x134>)
     964:	4638      	mov	r0, r7
     966:	4b45      	ldr	r3, [pc, #276]	@ (a7c <lfrfid_cli_raw_read+0x138>)
     968:	4798      	blx	r3
     96a:	b908      	cbnz	r0, 970 <lfrfid_cli_raw_read+0x2c>
                type = LFRFIDWorkerReadTypeASKOnly;
     96c:	2401      	movs	r4, #1
     96e:	e018      	b.n	9a2 <lfrfid_cli_raw_read+0x5e>
               furi_string_cmp_str(type_string, "ask") == 0) {
     970:	4943      	ldr	r1, [pc, #268]	@ (a80 <lfrfid_cli_raw_read+0x13c>)
     972:	4638      	mov	r0, r7
     974:	4b41      	ldr	r3, [pc, #260]	@ (a7c <lfrfid_cli_raw_read+0x138>)
     976:	4798      	blx	r3
            if(furi_string_cmp_str(type_string, "normal") == 0 ||
     978:	b908      	cbnz	r0, 97e <lfrfid_cli_raw_read+0x3a>
                type = LFRFIDWorkerReadTypeASKOnly;
     97a:	2401      	movs	r4, #1
     97c:	e011      	b.n	9a2 <lfrfid_cli_raw_read+0x5e>
                furi_string_cmp_str(type_string, "indala") == 0 ||
     97e:	4941      	ldr	r1, [pc, #260]	@ (a84 <lfrfid_cli_raw_read+0x140>)
     980:	4638      	mov	r0, r7
     982:	4b3e      	ldr	r3, [pc, #248]	@ (a7c <lfrfid_cli_raw_read+0x138>)
     984:	4798      	blx	r3
            } else if(
     986:	b908      	cbnz	r0, 98c <lfrfid_cli_raw_read+0x48>
                type = LFRFIDWorkerReadTypePSKOnly;
     988:	2402      	movs	r4, #2
     98a:	e00a      	b.n	9a2 <lfrfid_cli_raw_read+0x5e>
                furi_string_cmp_str(type_string, "psk") == 0) {
     98c:	493e      	ldr	r1, [pc, #248]	@ (a88 <lfrfid_cli_raw_read+0x144>)
     98e:	4638      	mov	r0, r7
     990:	4b3a      	ldr	r3, [pc, #232]	@ (a7c <lfrfid_cli_raw_read+0x138>)
     992:	4798      	blx	r3
                furi_string_cmp_str(type_string, "indala") == 0 ||
     994:	b908      	cbnz	r0, 99a <lfrfid_cli_raw_read+0x56>
                type = LFRFIDWorkerReadTypePSKOnly;
     996:	2402      	movs	r4, #2
     998:	e003      	b.n	9a2 <lfrfid_cli_raw_read+0x5e>
                lfrfid_cli_print_usage();
     99a:	4b3c      	ldr	r3, [pc, #240]	@ (a8c <lfrfid_cli_raw_read+0x148>)
     99c:	4798      	blx	r3
                break;
     99e:	e008      	b.n	9b2 <lfrfid_cli_raw_read+0x6e>
    LFRFIDWorkerReadType type = LFRFIDWorkerReadTypeAuto;
     9a0:	2400      	movs	r4, #0
        if(!args_read_probably_quoted_string_and_trim(args, filepath)) {
     9a2:	4641      	mov	r1, r8
     9a4:	4630      	mov	r0, r6
     9a6:	4b3a      	ldr	r3, [pc, #232]	@ (a90 <lfrfid_cli_raw_read+0x14c>)
     9a8:	4798      	blx	r3
     9aa:	9003      	str	r0, [sp, #12]
     9ac:	b948      	cbnz	r0, 9c2 <lfrfid_cli_raw_read+0x7e>
            lfrfid_cli_print_usage();
     9ae:	4b37      	ldr	r3, [pc, #220]	@ (a8c <lfrfid_cli_raw_read+0x148>)
     9b0:	4798      	blx	r3
    furi_string_free(filepath);
     9b2:	4640      	mov	r0, r8
     9b4:	4c37      	ldr	r4, [pc, #220]	@ (a94 <lfrfid_cli_raw_read+0x150>)
     9b6:	47a0      	blx	r4
    furi_string_free(type_string);
     9b8:	4638      	mov	r0, r7
     9ba:	47a0      	blx	r4
}
     9bc:	b005      	add	sp, #20
     9be:	e8bd 8ff0 	ldmia.w	sp!, {r4, r5, r6, r7, r8, r9, sl, fp, pc}
        ProtocolDict* dict = protocol_dict_alloc(lfrfid_protocols, LFRFIDProtocolMax);
     9c2:	2118      	movs	r1, #24
     9c4:	4834      	ldr	r0, [pc, #208]	@ (a98 <lfrfid_cli_raw_read+0x154>)
     9c6:	4b35      	ldr	r3, [pc, #212]	@ (a9c <lfrfid_cli_raw_read+0x158>)
     9c8:	4798      	blx	r3
     9ca:	4683      	mov	fp, r0
        LFRFIDWorker* worker = lfrfid_worker_alloc(dict);
     9cc:	4b34      	ldr	r3, [pc, #208]	@ (aa0 <lfrfid_cli_raw_read+0x15c>)
     9ce:	4798      	blx	r3
     9d0:	4681      	mov	r9, r0
        FuriEventFlag* event = furi_event_flag_alloc();
     9d2:	4b34      	ldr	r3, [pc, #208]	@ (aa4 <lfrfid_cli_raw_read+0x160>)
     9d4:	4798      	blx	r3
     9d6:	4606      	mov	r6, r0
        lfrfid_worker_start_thread(worker);
     9d8:	4648      	mov	r0, r9
     9da:	4b33      	ldr	r3, [pc, #204]	@ (aa8 <lfrfid_cli_raw_read+0x164>)
     9dc:	4798      	blx	r3
        lfrfid_worker_read_raw_start(
     9de:	4640      	mov	r0, r8
     9e0:	4b32      	ldr	r3, [pc, #200]	@ (aac <lfrfid_cli_raw_read+0x168>)
     9e2:	4798      	blx	r3
     9e4:	4601      	mov	r1, r0
     9e6:	9600      	str	r6, [sp, #0]
     9e8:	4b31      	ldr	r3, [pc, #196]	@ (ab0 <lfrfid_cli_raw_read+0x16c>)
     9ea:	4622      	mov	r2, r4
     9ec:	4648      	mov	r0, r9
     9ee:	4c31      	ldr	r4, [pc, #196]	@ (ab4 <lfrfid_cli_raw_read+0x170>)
     9f0:	47a0      	blx	r4
        bool overrun = false;
     9f2:	f04f 0a00 	mov.w	sl, #0
     9f6:	4654      	mov	r4, sl
     9f8:	46ba      	mov	sl, r7
     9fa:	e009      	b.n	a10 <lfrfid_cli_raw_read+0xcc>
                    printf("File is not RFID raw file\r\n");
     9fc:	4657      	mov	r7, sl
     9fe:	46a2      	mov	sl, r4
     a00:	482d      	ldr	r0, [pc, #180]	@ (ab8 <lfrfid_cli_raw_read+0x174>)
     a02:	4b2e      	ldr	r3, [pc, #184]	@ (abc <lfrfid_cli_raw_read+0x178>)
     a04:	4798      	blx	r3
                    break;
     a06:	e01b      	b.n	a40 <lfrfid_cli_raw_read+0xfc>
            if(cli_is_pipe_broken_or_is_etx_next_char(pipe)) break;
     a08:	4628      	mov	r0, r5
     a0a:	4b2d      	ldr	r3, [pc, #180]	@ (ac0 <lfrfid_cli_raw_read+0x17c>)
     a0c:	4798      	blx	r3
     a0e:	b9a8      	cbnz	r0, a3c <lfrfid_cli_raw_read+0xf8>
            uint32_t flags = furi_event_flag_wait(event, available_flags, FuriFlagWaitAny, 100);
     a10:	2364      	movs	r3, #100	@ 0x64
     a12:	2200      	movs	r2, #0
     a14:	2103      	movs	r1, #3
     a16:	4630      	mov	r0, r6
     a18:	4f2a      	ldr	r7, [pc, #168]	@ (ac4 <lfrfid_cli_raw_read+0x180>)
     a1a:	47b8      	blx	r7
            if(flags != (unsigned)FuriFlagErrorTimeout) {
     a1c:	f110 0f02 	cmn.w	r0, #2
     a20:	d0f2      	beq.n	a08 <lfrfid_cli_raw_read+0xc4>
                if(FURI_BIT(flags, LFRFIDWorkerReadRawFileError)) {
     a22:	f010 0f01 	tst.w	r0, #1
     a26:	d1e9      	bne.n	9fc <lfrfid_cli_raw_read+0xb8>
                if(FURI_BIT(flags, LFRFIDWorkerReadRawOverrun)) {
     a28:	f010 0f02 	tst.w	r0, #2
     a2c:	d0ec      	beq.n	a08 <lfrfid_cli_raw_read+0xc4>
                    if(!overrun) {
     a2e:	2c00      	cmp	r4, #0
     a30:	d1ea      	bne.n	a08 <lfrfid_cli_raw_read+0xc4>
                        printf("Overrun\r\n");
     a32:	4825      	ldr	r0, [pc, #148]	@ (ac8 <lfrfid_cli_raw_read+0x184>)
     a34:	4b21      	ldr	r3, [pc, #132]	@ (abc <lfrfid_cli_raw_read+0x178>)
     a36:	4798      	blx	r3
                        overrun = true;
     a38:	9c03      	ldr	r4, [sp, #12]
     a3a:	e7e5      	b.n	a08 <lfrfid_cli_raw_read+0xc4>
     a3c:	4657      	mov	r7, sl
     a3e:	46a2      	mov	sl, r4
        if(overrun) {
     a40:	f1ba 0f00 	cmp.w	sl, #0
     a44:	d10f      	bne.n	a66 <lfrfid_cli_raw_read+0x122>
        lfrfid_worker_stop(worker);
     a46:	4648      	mov	r0, r9
     a48:	4b20      	ldr	r3, [pc, #128]	@ (acc <lfrfid_cli_raw_read+0x188>)
     a4a:	4798      	blx	r3
        lfrfid_worker_stop_thread(worker);
     a4c:	4648      	mov	r0, r9
     a4e:	4b20      	ldr	r3, [pc, #128]	@ (ad0 <lfrfid_cli_raw_read+0x18c>)
     a50:	4798      	blx	r3
        lfrfid_worker_free(worker);
     a52:	4648      	mov	r0, r9
     a54:	4b1f      	ldr	r3, [pc, #124]	@ (ad4 <lfrfid_cli_raw_read+0x190>)
     a56:	4798      	blx	r3
        protocol_dict_free(dict);
     a58:	4658      	mov	r0, fp
     a5a:	4b1f      	ldr	r3, [pc, #124]	@ (ad8 <lfrfid_cli_raw_read+0x194>)
     a5c:	4798      	blx	r3
        furi_event_flag_free(event);
     a5e:	4630      	mov	r0, r6
     a60:	4b1e      	ldr	r3, [pc, #120]	@ (adc <lfrfid_cli_raw_read+0x198>)
     a62:	4798      	blx	r3
     a64:	e7a5      	b.n	9b2 <lfrfid_cli_raw_read+0x6e>
            printf("An overrun occurred during read\r\n");
     a66:	481e      	ldr	r0, [pc, #120]	@ (ae0 <lfrfid_cli_raw_read+0x19c>)
     a68:	4b14      	ldr	r3, [pc, #80]	@ (abc <lfrfid_cli_raw_read+0x178>)
     a6a:	4798      	blx	r3
     a6c:	e7eb      	b.n	a46 <lfrfid_cli_raw_read+0x102>
     a6e:	bf00      	nop
	...
     a78:	000001e8 	.word	0x000001e8
     a7c:	00000000 	.word	0x00000000
     a80:	000001f0 	.word	0x000001f0
     a84:	000001f4 	.word	0x000001f4
     a88:	000001fc 	.word	0x000001fc
	...
     ab8:	00000394 	.word	0x00000394
	...
     ac8:	000003b0 	.word	0x000003b0
	...
     ae0:	000003bc 	.word	0x000003bc

00000ae4 <lfrfid_cli_raw_emulate>:

static void lfrfid_cli_raw_emulate(PipeSide* pipe, FuriString* args) {
     ae4:	e92d 4ff8 	stmdb	sp!, {r3, r4, r5, r6, r7, r8, r9, sl, fp, lr}
     ae8:	4605      	mov	r5, r0
     aea:	460e      	mov	r6, r1
    FuriString* filepath;
    filepath = furi_string_alloc();
     aec:	4b3b      	ldr	r3, [pc, #236]	@ (bdc <lfrfid_cli_raw_emulate+0xf8>)
     aee:	4798      	blx	r3
     af0:	4604      	mov	r4, r0
    Storage* storage = furi_record_open(RECORD_STORAGE);
     af2:	483b      	ldr	r0, [pc, #236]	@ (be0 <lfrfid_cli_raw_emulate+0xfc>)
     af4:	4b3b      	ldr	r3, [pc, #236]	@ (be4 <lfrfid_cli_raw_emulate+0x100>)
     af6:	4798      	blx	r3
     af8:	4607      	mov	r7, r0

    do {
        if(!args_read_probably_quoted_string_and_trim(args, filepath)) {
     afa:	4621      	mov	r1, r4
     afc:	4630      	mov	r0, r6
     afe:	4b3a      	ldr	r3, [pc, #232]	@ (be8 <lfrfid_cli_raw_emulate+0x104>)
     b00:	4798      	blx	r3
     b02:	b948      	cbnz	r0, b18 <lfrfid_cli_raw_emulate+0x34>
            lfrfid_cli_print_usage();
     b04:	4b39      	ldr	r3, [pc, #228]	@ (bec <lfrfid_cli_raw_emulate+0x108>)
     b06:	4798      	blx	r3

        furi_event_flag_free(event);

    } while(false);

    furi_record_close(RECORD_STORAGE);
     b08:	4835      	ldr	r0, [pc, #212]	@ (be0 <lfrfid_cli_raw_emulate+0xfc>)
     b0a:	4b39      	ldr	r3, [pc, #228]	@ (bf0 <lfrfid_cli_raw_emulate+0x10c>)
     b0c:	4798      	blx	r3
    furi_string_free(filepath);
     b0e:	4620      	mov	r0, r4
     b10:	4b38      	ldr	r3, [pc, #224]	@ (bf4 <lfrfid_cli_raw_emulate+0x110>)
     b12:	4798      	blx	r3
}
     b14:	e8bd 8ff8 	ldmia.w	sp!, {r3, r4, r5, r6, r7, r8, r9, sl, fp, pc}
        if(!storage_file_exists(storage, furi_string_get_cstr(filepath))) {
     b18:	4620      	mov	r0, r4
     b1a:	4b37      	ldr	r3, [pc, #220]	@ (bf8 <lfrfid_cli_raw_emulate+0x114>)
     b1c:	4798      	blx	r3
     b1e:	4601      	mov	r1, r0
     b20:	4638      	mov	r0, r7
     b22:	4b36      	ldr	r3, [pc, #216]	@ (bfc <lfrfid_cli_raw_emulate+0x118>)
     b24:	4798      	blx	r3
     b26:	4682      	mov	sl, r0
     b28:	b938      	cbnz	r0, b3a <lfrfid_cli_raw_emulate+0x56>
            printf("File not found: \"%s\"\r\n", furi_string_get_cstr(filepath));
     b2a:	4620      	mov	r0, r4
     b2c:	4b32      	ldr	r3, [pc, #200]	@ (bf8 <lfrfid_cli_raw_emulate+0x114>)
     b2e:	4798      	blx	r3
     b30:	4601      	mov	r1, r0
     b32:	4833      	ldr	r0, [pc, #204]	@ (c00 <lfrfid_cli_raw_emulate+0x11c>)
     b34:	4b33      	ldr	r3, [pc, #204]	@ (c04 <lfrfid_cli_raw_emulate+0x120>)
     b36:	4798      	blx	r3
            break;
     b38:	e7e6      	b.n	b08 <lfrfid_cli_raw_emulate+0x24>
        ProtocolDict* dict = protocol_dict_alloc(lfrfid_protocols, LFRFIDProtocolMax);
     b3a:	2118      	movs	r1, #24
     b3c:	4832      	ldr	r0, [pc, #200]	@ (c08 <lfrfid_cli_raw_emulate+0x124>)
     b3e:	4b33      	ldr	r3, [pc, #204]	@ (c0c <lfrfid_cli_raw_emulate+0x128>)
     b40:	4798      	blx	r3
     b42:	4681      	mov	r9, r0
        LFRFIDWorker* worker = lfrfid_worker_alloc(dict);
     b44:	4b32      	ldr	r3, [pc, #200]	@ (c10 <lfrfid_cli_raw_emulate+0x12c>)
     b46:	4798      	blx	r3
     b48:	4683      	mov	fp, r0
        FuriEventFlag* event = furi_event_flag_alloc();
     b4a:	4b32      	ldr	r3, [pc, #200]	@ (c14 <lfrfid_cli_raw_emulate+0x130>)
     b4c:	4798      	blx	r3
     b4e:	4606      	mov	r6, r0
        lfrfid_worker_start_thread(worker);
     b50:	4658      	mov	r0, fp
     b52:	4b31      	ldr	r3, [pc, #196]	@ (c18 <lfrfid_cli_raw_emulate+0x134>)
     b54:	4798      	blx	r3
        lfrfid_worker_emulate_raw_start(
     b56:	4620      	mov	r0, r4
     b58:	4b27      	ldr	r3, [pc, #156]	@ (bf8 <lfrfid_cli_raw_emulate+0x114>)
     b5a:	4798      	blx	r3
     b5c:	4601      	mov	r1, r0
     b5e:	4633      	mov	r3, r6
     b60:	4a2e      	ldr	r2, [pc, #184]	@ (c1c <lfrfid_cli_raw_emulate+0x138>)
     b62:	4658      	mov	r0, fp
     b64:	f8df 80e4 	ldr.w	r8, [pc, #228]	@ c4c <lfrfid_cli_raw_emulate+0x168>
     b68:	47c0      	blx	r8
        bool overrun = false;
     b6a:	f04f 0800 	mov.w	r8, #0
     b6e:	e01a      	b.n	ba6 <lfrfid_cli_raw_emulate+0xc2>
                    printf("File is not RFID raw file\r\n");
     b70:	482b      	ldr	r0, [pc, #172]	@ (c20 <lfrfid_cli_raw_emulate+0x13c>)
     b72:	4b2c      	ldr	r3, [pc, #176]	@ (c24 <lfrfid_cli_raw_emulate+0x140>)
     b74:	4798      	blx	r3
        if(overrun) {
     b76:	f1b8 0f00 	cmp.w	r8, #0
     b7a:	d12b      	bne.n	bd4 <lfrfid_cli_raw_emulate+0xf0>
        lfrfid_worker_stop(worker);
     b7c:	4658      	mov	r0, fp
     b7e:	4b2a      	ldr	r3, [pc, #168]	@ (c28 <lfrfid_cli_raw_emulate+0x144>)
     b80:	4798      	blx	r3
        lfrfid_worker_stop_thread(worker);
     b82:	4658      	mov	r0, fp
     b84:	4b29      	ldr	r3, [pc, #164]	@ (c2c <lfrfid_cli_raw_emulate+0x148>)
     b86:	4798      	blx	r3
        lfrfid_worker_free(worker);
     b88:	4658      	mov	r0, fp
     b8a:	4b29      	ldr	r3, [pc, #164]	@ (c30 <lfrfid_cli_raw_emulate+0x14c>)
     b8c:	4798      	blx	r3
        protocol_dict_free(dict);
     b8e:	4648      	mov	r0, r9
     b90:	4b28      	ldr	r3, [pc, #160]	@ (c34 <lfrfid_cli_raw_emulate+0x150>)
     b92:	4798      	blx	r3
        furi_event_flag_free(event);
     b94:	4630      	mov	r0, r6
     b96:	4b28      	ldr	r3, [pc, #160]	@ (c38 <lfrfid_cli_raw_emulate+0x154>)
     b98:	4798      	blx	r3
     b9a:	e7b5      	b.n	b08 <lfrfid_cli_raw_emulate+0x24>
            if(cli_is_pipe_broken_or_is_etx_next_char(pipe)) break;
     b9c:	4628      	mov	r0, r5
     b9e:	4b27      	ldr	r3, [pc, #156]	@ (c3c <lfrfid_cli_raw_emulate+0x158>)
     ba0:	4798      	blx	r3
     ba2:	2800      	cmp	r0, #0
     ba4:	d1e7      	bne.n	b76 <lfrfid_cli_raw_emulate+0x92>
            uint32_t flags = furi_event_flag_wait(event, available_flags, FuriFlagWaitAny, 100);
     ba6:	2364      	movs	r3, #100	@ 0x64
     ba8:	2200      	movs	r2, #0
     baa:	2103      	movs	r1, #3
     bac:	4630      	mov	r0, r6
     bae:	4f24      	ldr	r7, [pc, #144]	@ (c40 <lfrfid_cli_raw_emulate+0x15c>)
     bb0:	47b8      	blx	r7
            if(flags != (unsigned)FuriFlagErrorTimeout) {
     bb2:	f110 0f02 	cmn.w	r0, #2
     bb6:	d0f1      	beq.n	b9c <lfrfid_cli_raw_emulate+0xb8>
                if(FURI_BIT(flags, LFRFIDWorkerEmulateRawFileError)) {
     bb8:	f010 0f01 	tst.w	r0, #1
     bbc:	d1d8      	bne.n	b70 <lfrfid_cli_raw_emulate+0x8c>
                if(FURI_BIT(flags, LFRFIDWorkerEmulateRawOverrun)) {
     bbe:	f010 0f02 	tst.w	r0, #2
     bc2:	d0eb      	beq.n	b9c <lfrfid_cli_raw_emulate+0xb8>
                    if(!overrun) {
     bc4:	f1b8 0f00 	cmp.w	r8, #0
     bc8:	d1e8      	bne.n	b9c <lfrfid_cli_raw_emulate+0xb8>
                        printf("Overrun\r\n");
     bca:	481e      	ldr	r0, [pc, #120]	@ (c44 <lfrfid_cli_raw_emulate+0x160>)
     bcc:	4b15      	ldr	r3, [pc, #84]	@ (c24 <lfrfid_cli_raw_emulate+0x140>)
     bce:	4798      	blx	r3
                        overrun = true;
     bd0:	46d0      	mov	r8, sl
     bd2:	e7e3      	b.n	b9c <lfrfid_cli_raw_emulate+0xb8>
            printf("An overrun occurred during emulation\r\n");
     bd4:	481c      	ldr	r0, [pc, #112]	@ (c48 <lfrfid_cli_raw_emulate+0x164>)
     bd6:	4b13      	ldr	r3, [pc, #76]	@ (c24 <lfrfid_cli_raw_emulate+0x140>)
     bd8:	4798      	blx	r3
     bda:	e7cf      	b.n	b7c <lfrfid_cli_raw_emulate+0x98>
     bdc:	00000000 	.word	0x00000000
     be0:	000003e0 	.word	0x000003e0
	...
     c00:	000003e8 	.word	0x000003e8
	...
     c20:	00000394 	.word	0x00000394
	...
     c44:	000003b0 	.word	0x000003b0
     c48:	00000400 	.word	0x00000400
     c4c:	00000000 	.word	0x00000000

00000c50 <lfrfid_cli_raw_analyze>:
static void lfrfid_cli_raw_analyze(PipeSide* pipe, FuriString* args) {
     c50:	e92d 4ff0 	stmdb	sp!, {r4, r5, r6, r7, r8, r9, sl, fp, lr}
     c54:	b08d      	sub	sp, #52	@ 0x34
     c56:	460f      	mov	r7, r1
    filepath = furi_string_alloc();
     c58:	4c8e      	ldr	r4, [pc, #568]	@ (e94 <lfrfid_cli_raw_analyze+0x244>)
     c5a:	47a0      	blx	r4
     c5c:	4606      	mov	r6, r0
    info_string = furi_string_alloc();
     c5e:	47a0      	blx	r4
     c60:	4604      	mov	r4, r0
    Storage* storage = furi_record_open(RECORD_STORAGE);
     c62:	488d      	ldr	r0, [pc, #564]	@ (e98 <lfrfid_cli_raw_analyze+0x248>)
     c64:	4b8d      	ldr	r3, [pc, #564]	@ (e9c <lfrfid_cli_raw_analyze+0x24c>)
     c66:	4798      	blx	r3
    LFRFIDRawFile* file = lfrfid_raw_file_alloc(storage);
     c68:	4b8d      	ldr	r3, [pc, #564]	@ (ea0 <lfrfid_cli_raw_analyze+0x250>)
     c6a:	4798      	blx	r3
     c6c:	4605      	mov	r5, r0
        float frequency = 0;
     c6e:	2300      	movs	r3, #0
     c70:	9308      	str	r3, [sp, #32]
        float duty_cycle = 0;
     c72:	9309      	str	r3, [sp, #36]	@ 0x24
        if(!args_read_probably_quoted_string_and_trim(args, filepath)) {
     c74:	4631      	mov	r1, r6
     c76:	4638      	mov	r0, r7
     c78:	4b8a      	ldr	r3, [pc, #552]	@ (ea4 <lfrfid_cli_raw_analyze+0x254>)
     c7a:	4798      	blx	r3
     c7c:	b978      	cbnz	r0, c9e <lfrfid_cli_raw_analyze+0x4e>
            lfrfid_cli_print_usage();
     c7e:	4b8a      	ldr	r3, [pc, #552]	@ (ea8 <lfrfid_cli_raw_analyze+0x258>)
     c80:	4798      	blx	r3
    furi_string_free(filepath);
     c82:	4630      	mov	r0, r6
     c84:	4e89      	ldr	r6, [pc, #548]	@ (eac <lfrfid_cli_raw_analyze+0x25c>)
     c86:	47b0      	blx	r6
    furi_string_free(info_string);
     c88:	4620      	mov	r0, r4
     c8a:	47b0      	blx	r6
    lfrfid_raw_file_free(file);
     c8c:	4628      	mov	r0, r5
     c8e:	4b88      	ldr	r3, [pc, #544]	@ (eb0 <lfrfid_cli_raw_analyze+0x260>)
     c90:	4798      	blx	r3
    furi_record_close(RECORD_STORAGE);
     c92:	4881      	ldr	r0, [pc, #516]	@ (e98 <lfrfid_cli_raw_analyze+0x248>)
     c94:	4b87      	ldr	r3, [pc, #540]	@ (eb4 <lfrfid_cli_raw_analyze+0x264>)
     c96:	4798      	blx	r3
}
     c98:	b00d      	add	sp, #52	@ 0x34
     c9a:	e8bd 8ff0 	ldmia.w	sp!, {r4, r5, r6, r7, r8, r9, sl, fp, pc}
        if(!lfrfid_raw_file_open_read(file, furi_string_get_cstr(filepath))) {
     c9e:	4630      	mov	r0, r6
     ca0:	4b85      	ldr	r3, [pc, #532]	@ (eb8 <lfrfid_cli_raw_analyze+0x268>)
     ca2:	4798      	blx	r3
     ca4:	4601      	mov	r1, r0
     ca6:	4628      	mov	r0, r5
     ca8:	4b84      	ldr	r3, [pc, #528]	@ (ebc <lfrfid_cli_raw_analyze+0x26c>)
     caa:	4798      	blx	r3
     cac:	b918      	cbnz	r0, cb6 <lfrfid_cli_raw_analyze+0x66>
            printf("Failed to open file\r\n");
     cae:	4884      	ldr	r0, [pc, #528]	@ (ec0 <lfrfid_cli_raw_analyze+0x270>)
     cb0:	4b84      	ldr	r3, [pc, #528]	@ (ec4 <lfrfid_cli_raw_analyze+0x274>)
     cb2:	4798      	blx	r3
            break;
     cb4:	e7e5      	b.n	c82 <lfrfid_cli_raw_analyze+0x32>
        if(!lfrfid_raw_file_read_header(file, &frequency, &duty_cycle)) {
     cb6:	aa09      	add	r2, sp, #36	@ 0x24
     cb8:	a908      	add	r1, sp, #32
     cba:	4628      	mov	r0, r5
     cbc:	4b82      	ldr	r3, [pc, #520]	@ (ec8 <lfrfid_cli_raw_analyze+0x278>)
     cbe:	4798      	blx	r3
     cc0:	b918      	cbnz	r0, cca <lfrfid_cli_raw_analyze+0x7a>
            printf("Invalid header\r\n");
     cc2:	4882      	ldr	r0, [pc, #520]	@ (ecc <lfrfid_cli_raw_analyze+0x27c>)
     cc4:	4b7f      	ldr	r3, [pc, #508]	@ (ec4 <lfrfid_cli_raw_analyze+0x274>)
     cc6:	4798      	blx	r3
            break;
     cc8:	e7db      	b.n	c82 <lfrfid_cli_raw_analyze+0x32>
        bool file_end = false;
     cca:	2700      	movs	r7, #0
     ccc:	f88d 701f 	strb.w	r7, [sp, #31]
        ProtocolDict* dict = protocol_dict_alloc(lfrfid_protocols, LFRFIDProtocolMax);
     cd0:	2118      	movs	r1, #24
     cd2:	487f      	ldr	r0, [pc, #508]	@ (ed0 <lfrfid_cli_raw_analyze+0x280>)
     cd4:	4b7f      	ldr	r3, [pc, #508]	@ (ed4 <lfrfid_cli_raw_analyze+0x284>)
     cd6:	4798      	blx	r3
     cd8:	9004      	str	r0, [sp, #16]
        protocol_dict_decoders_start(dict);
     cda:	4b7f      	ldr	r3, [pc, #508]	@ (ed8 <lfrfid_cli_raw_analyze+0x288>)
     cdc:	4798      	blx	r3
        ProtocolId total_protocol = PROTOCOL_NO;
     cde:	f04f 3bff 	mov.w	fp, #4294967295	@ 0xffffffff
        uint32_t total_pulse = 0;
     ce2:	46ba      	mov	sl, r7
        uint32_t total_warns = 0;
     ce4:	9702      	str	r7, [sp, #8]
     ce6:	46b8      	mov	r8, r7
     ce8:	9605      	str	r6, [sp, #20]
     cea:	9503      	str	r5, [sp, #12]
        while(!file_end) {
     cec:	e029      	b.n	d42 <lfrfid_cli_raw_analyze+0xf2>
                    total_warns += 1;
     cee:	9902      	ldr	r1, [sp, #8]
     cf0:	3101      	adds	r1, #1
     cf2:	9102      	str	r1, [sp, #8]
                furi_string_printf(info_string, "[%lu %lu]", pulse, duration);
     cf4:	f8df 923c 	ldr.w	r9, [pc, #572]	@ f34 <lfrfid_cli_raw_analyze+0x2e4>
     cf8:	4649      	mov	r1, r9
     cfa:	4620      	mov	r0, r4
     cfc:	4e77      	ldr	r6, [pc, #476]	@ (edc <lfrfid_cli_raw_analyze+0x28c>)
     cfe:	47b0      	blx	r6
                printf("%-16s", furi_string_get_cstr(info_string));
     d00:	4620      	mov	r0, r4
     d02:	4f6d      	ldr	r7, [pc, #436]	@ (eb8 <lfrfid_cli_raw_analyze+0x268>)
     d04:	47b8      	blx	r7
     d06:	4601      	mov	r1, r0
     d08:	4875      	ldr	r0, [pc, #468]	@ (ee0 <lfrfid_cli_raw_analyze+0x290>)
     d0a:	4d76      	ldr	r5, [pc, #472]	@ (ee4 <lfrfid_cli_raw_analyze+0x294>)
     d0c:	47a8      	blx	r5
                furi_string_printf(info_string, "[%lu %lu]", pulse, duration - pulse);
     d0e:	9a0a      	ldr	r2, [sp, #40]	@ 0x28
     d10:	9b0b      	ldr	r3, [sp, #44]	@ 0x2c
     d12:	1a9b      	subs	r3, r3, r2
     d14:	4649      	mov	r1, r9
     d16:	4620      	mov	r0, r4
     d18:	47b0      	blx	r6
                printf("%-16s", furi_string_get_cstr(info_string));
     d1a:	4620      	mov	r0, r4
     d1c:	47b8      	blx	r7
     d1e:	4601      	mov	r1, r0
     d20:	486f      	ldr	r0, [pc, #444]	@ (ee0 <lfrfid_cli_raw_analyze+0x290>)
     d22:	47a8      	blx	r5
                if(warn) {
     d24:	9b01      	ldr	r3, [sp, #4]
     d26:	bb3b      	cbnz	r3, d78 <lfrfid_cli_raw_analyze+0x128>
                if(total_protocol == PROTOCOL_NO) {
     d28:	f1bb 3fff 	cmp.w	fp, #4294967295	@ 0xffffffff
     d2c:	d027      	beq.n	d7e <lfrfid_cli_raw_analyze+0x12e>
                printf("\r\n");
     d2e:	486e      	ldr	r0, [pc, #440]	@ (ee8 <lfrfid_cli_raw_analyze+0x298>)
     d30:	4b64      	ldr	r3, [pc, #400]	@ (ec4 <lfrfid_cli_raw_analyze+0x274>)
     d32:	4798      	blx	r3
                total_pulse += pulse;
     d34:	9b0a      	ldr	r3, [sp, #40]	@ 0x28
     d36:	449a      	add	sl, r3
                total_duration += duration;
     d38:	9b0b      	ldr	r3, [sp, #44]	@ 0x2c
     d3a:	4498      	add	r8, r3
                if(total_protocol != PROTOCOL_NO) { //-V1051
     d3c:	f1bb 3fff 	cmp.w	fp, #4294967295	@ 0xffffffff
     d40:	d13b      	bne.n	dba <lfrfid_cli_raw_analyze+0x16a>
        while(!file_end) {
     d42:	f89d 501f 	ldrb.w	r5, [sp, #31]
     d46:	2d00      	cmp	r5, #0
     d48:	d142      	bne.n	dd0 <lfrfid_cli_raw_analyze+0x180>
            uint32_t pulse = 0;
     d4a:	2300      	movs	r3, #0
     d4c:	930a      	str	r3, [sp, #40]	@ 0x28
            uint32_t duration = 0;
     d4e:	930b      	str	r3, [sp, #44]	@ 0x2c
            if(lfrfid_raw_file_read_pair(file, &duration, &pulse, &file_end)) {
     d50:	f10d 031f 	add.w	r3, sp, #31
     d54:	aa0a      	add	r2, sp, #40	@ 0x28
     d56:	a90b      	add	r1, sp, #44	@ 0x2c
     d58:	9803      	ldr	r0, [sp, #12]
     d5a:	4e64      	ldr	r6, [pc, #400]	@ (eec <lfrfid_cli_raw_analyze+0x29c>)
     d5c:	47b0      	blx	r6
     d5e:	9001      	str	r0, [sp, #4]
     d60:	2800      	cmp	r0, #0
     d62:	d02e      	beq.n	dc2 <lfrfid_cli_raw_analyze+0x172>
                if(pulse > duration || pulse <= 0 || duration <= 0) {
     d64:	9a0a      	ldr	r2, [sp, #40]	@ 0x28
     d66:	9b0b      	ldr	r3, [sp, #44]	@ 0x2c
     d68:	429a      	cmp	r2, r3
     d6a:	d8c0      	bhi.n	cee <lfrfid_cli_raw_analyze+0x9e>
     d6c:	2a00      	cmp	r2, #0
     d6e:	d0be      	beq.n	cee <lfrfid_cli_raw_analyze+0x9e>
     d70:	2b00      	cmp	r3, #0
     d72:	d0bc      	beq.n	cee <lfrfid_cli_raw_analyze+0x9e>
                bool warn = false;
     d74:	9501      	str	r5, [sp, #4]
     d76:	e7bd      	b.n	cf4 <lfrfid_cli_raw_analyze+0xa4>
                    printf(" <<----");
     d78:	485d      	ldr	r0, [pc, #372]	@ (ef0 <lfrfid_cli_raw_analyze+0x2a0>)
     d7a:	47a8      	blx	r5
     d7c:	e7d4      	b.n	d28 <lfrfid_cli_raw_analyze+0xd8>
                    total_protocol = protocol_dict_decoders_feed(dict, true, pulse);
     d7e:	9a0a      	ldr	r2, [sp, #40]	@ 0x28
     d80:	2101      	movs	r1, #1
     d82:	9804      	ldr	r0, [sp, #16]
     d84:	4b5b      	ldr	r3, [pc, #364]	@ (ef4 <lfrfid_cli_raw_analyze+0x2a4>)
     d86:	4798      	blx	r3
     d88:	4683      	mov	fp, r0
                    if(total_protocol == PROTOCOL_NO) {
     d8a:	f1b0 3fff 	cmp.w	r0, #4294967295	@ 0xffffffff
     d8e:	d008      	beq.n	da2 <lfrfid_cli_raw_analyze+0x152>
                        printf(" <FOUND %s>", protocol_dict_get_name(dict, total_protocol));
     d90:	4659      	mov	r1, fp
     d92:	9804      	ldr	r0, [sp, #16]
     d94:	4b58      	ldr	r3, [pc, #352]	@ (ef8 <lfrfid_cli_raw_analyze+0x2a8>)
     d96:	4798      	blx	r3
     d98:	4601      	mov	r1, r0
     d9a:	4858      	ldr	r0, [pc, #352]	@ (efc <lfrfid_cli_raw_analyze+0x2ac>)
     d9c:	4b51      	ldr	r3, [pc, #324]	@ (ee4 <lfrfid_cli_raw_analyze+0x294>)
     d9e:	4798      	blx	r3
     da0:	e7c5      	b.n	d2e <lfrfid_cli_raw_analyze+0xde>
                            protocol_dict_decoders_feed(dict, false, duration - pulse);
     da2:	9a0b      	ldr	r2, [sp, #44]	@ 0x2c
     da4:	9b0a      	ldr	r3, [sp, #40]	@ 0x28
     da6:	1ad2      	subs	r2, r2, r3
     da8:	2100      	movs	r1, #0
     daa:	9804      	ldr	r0, [sp, #16]
     dac:	4b51      	ldr	r3, [pc, #324]	@ (ef4 <lfrfid_cli_raw_analyze+0x2a4>)
     dae:	4798      	blx	r3
     db0:	4683      	mov	fp, r0
                    if(total_protocol != PROTOCOL_NO) {
     db2:	f1b0 3fff 	cmp.w	r0, #4294967295	@ 0xffffffff
     db6:	d1eb      	bne.n	d90 <lfrfid_cli_raw_analyze+0x140>
     db8:	e7b9      	b.n	d2e <lfrfid_cli_raw_analyze+0xde>
     dba:	46c1      	mov	r9, r8
     dbc:	9e05      	ldr	r6, [sp, #20]
     dbe:	9d03      	ldr	r5, [sp, #12]
     dc0:	e009      	b.n	dd6 <lfrfid_cli_raw_analyze+0x186>
                printf("Failed to read pair\r\n");
     dc2:	46c1      	mov	r9, r8
     dc4:	9e05      	ldr	r6, [sp, #20]
     dc6:	9d03      	ldr	r5, [sp, #12]
     dc8:	484d      	ldr	r0, [pc, #308]	@ (f00 <lfrfid_cli_raw_analyze+0x2b0>)
     dca:	4b3e      	ldr	r3, [pc, #248]	@ (ec4 <lfrfid_cli_raw_analyze+0x274>)
     dcc:	4798      	blx	r3
                break;
     dce:	e002      	b.n	dd6 <lfrfid_cli_raw_analyze+0x186>
     dd0:	46c1      	mov	r9, r8
     dd2:	9e05      	ldr	r6, [sp, #20]
     dd4:	9d03      	ldr	r5, [sp, #12]
        printf("   Frequency: %f\r\n", (double)frequency);
     dd6:	f8df 8160 	ldr.w	r8, [pc, #352]	@ f38 <lfrfid_cli_raw_analyze+0x2e8>
     dda:	9808      	ldr	r0, [sp, #32]
     ddc:	47c0      	blx	r8
     dde:	4602      	mov	r2, r0
     de0:	460b      	mov	r3, r1
     de2:	4848      	ldr	r0, [pc, #288]	@ (f04 <lfrfid_cli_raw_analyze+0x2b4>)
     de4:	4f3f      	ldr	r7, [pc, #252]	@ (ee4 <lfrfid_cli_raw_analyze+0x294>)
     de6:	47b8      	blx	r7
        printf("  Duty Cycle: %f\r\n", (double)duty_cycle);
     de8:	9809      	ldr	r0, [sp, #36]	@ 0x24
     dea:	47c0      	blx	r8
     dec:	4602      	mov	r2, r0
     dee:	460b      	mov	r3, r1
     df0:	4845      	ldr	r0, [pc, #276]	@ (f08 <lfrfid_cli_raw_analyze+0x2b8>)
     df2:	47b8      	blx	r7
        printf("       Warns: %lu\r\n", total_warns);
     df4:	9902      	ldr	r1, [sp, #8]
     df6:	4845      	ldr	r0, [pc, #276]	@ (f0c <lfrfid_cli_raw_analyze+0x2bc>)
     df8:	47b8      	blx	r7
        printf("   Pulse sum: %lu\r\n", total_pulse);
     dfa:	4651      	mov	r1, sl
     dfc:	4844      	ldr	r0, [pc, #272]	@ (f10 <lfrfid_cli_raw_analyze+0x2c0>)
     dfe:	47b8      	blx	r7
        printf("Duration sum: %lu\r\n", total_duration);
     e00:	4649      	mov	r1, r9
     e02:	4844      	ldr	r0, [pc, #272]	@ (f14 <lfrfid_cli_raw_analyze+0x2c4>)
     e04:	47b8      	blx	r7
        printf("     Average: %f\r\n", (double)((float)total_pulse / (float)total_duration));
     e06:	ee07 aa90 	vmov	s15, sl
     e0a:	eeb8 7a67 	vcvt.f32.u32	s14, s15
     e0e:	ee07 9a90 	vmov	s15, r9
     e12:	eef8 7a67 	vcvt.f32.u32	s15, s15
     e16:	eec7 7a27 	vdiv.f32	s15, s14, s15
     e1a:	ee17 0a90 	vmov	r0, s15
     e1e:	47c0      	blx	r8
     e20:	4602      	mov	r2, r0
     e22:	460b      	mov	r3, r1
     e24:	483c      	ldr	r0, [pc, #240]	@ (f18 <lfrfid_cli_raw_analyze+0x2c8>)
     e26:	47b8      	blx	r7
        printf("    Protocol: ");
     e28:	483c      	ldr	r0, [pc, #240]	@ (f1c <lfrfid_cli_raw_analyze+0x2cc>)
     e2a:	47b8      	blx	r7
        if(total_protocol != PROTOCOL_NO) {
     e2c:	f1bb 3fff 	cmp.w	fp, #4294967295	@ 0xffffffff
     e30:	f000 809c 	beq.w	f6c <lfrfid_cli_raw_analyze+0x31c>
            size_t data_size = protocol_dict_get_data_size(dict, total_protocol);
     e34:	46d9      	mov	r9, fp
     e36:	4659      	mov	r1, fp
     e38:	f8dd a010 	ldr.w	sl, [sp, #16]
     e3c:	4650      	mov	r0, sl
     e3e:	4b38      	ldr	r3, [pc, #224]	@ (f20 <lfrfid_cli_raw_analyze+0x2d0>)
     e40:	4798      	blx	r3
     e42:	4607      	mov	r7, r0
            uint8_t* data = malloc(data_size);
     e44:	4b37      	ldr	r3, [pc, #220]	@ (f24 <lfrfid_cli_raw_analyze+0x2d4>)
     e46:	4798      	blx	r3
     e48:	4680      	mov	r8, r0
            protocol_dict_get_data(dict, total_protocol, data, data_size);
     e4a:	463b      	mov	r3, r7
     e4c:	4602      	mov	r2, r0
     e4e:	4659      	mov	r1, fp
     e50:	f8cd a010 	str.w	sl, [sp, #16]
     e54:	4650      	mov	r0, sl
     e56:	f8df a0e4 	ldr.w	sl, [pc, #228]	@ f3c <lfrfid_cli_raw_analyze+0x2ec>
     e5a:	47d0      	blx	sl
            printf("%s [", protocol_dict_get_name(dict, total_protocol));
     e5c:	4659      	mov	r1, fp
     e5e:	9804      	ldr	r0, [sp, #16]
     e60:	4b25      	ldr	r3, [pc, #148]	@ (ef8 <lfrfid_cli_raw_analyze+0x2a8>)
     e62:	4798      	blx	r3
     e64:	4601      	mov	r1, r0
     e66:	4830      	ldr	r0, [pc, #192]	@ (f28 <lfrfid_cli_raw_analyze+0x2d8>)
     e68:	4b1e      	ldr	r3, [pc, #120]	@ (ee4 <lfrfid_cli_raw_analyze+0x294>)
     e6a:	4798      	blx	r3
            for(size_t i = 0; i < data_size; i++) {
     e6c:	f04f 0a00 	mov.w	sl, #0
     e70:	e001      	b.n	e76 <lfrfid_cli_raw_analyze+0x226>
     e72:	f10a 0a01 	add.w	sl, sl, #1
     e76:	45ba      	cmp	sl, r7
     e78:	d262      	bcs.n	f40 <lfrfid_cli_raw_analyze+0x2f0>
                printf("%02X", data[i]);
     e7a:	f818 100a 	ldrb.w	r1, [r8, sl]
     e7e:	482b      	ldr	r0, [pc, #172]	@ (f2c <lfrfid_cli_raw_analyze+0x2dc>)
     e80:	4b18      	ldr	r3, [pc, #96]	@ (ee4 <lfrfid_cli_raw_analyze+0x294>)
     e82:	4798      	blx	r3
                if(i < data_size - 1) {
     e84:	1e7b      	subs	r3, r7, #1
     e86:	4553      	cmp	r3, sl
     e88:	d9f3      	bls.n	e72 <lfrfid_cli_raw_analyze+0x222>
                    printf(" ");
     e8a:	2020      	movs	r0, #32
     e8c:	4b28      	ldr	r3, [pc, #160]	@ (f30 <lfrfid_cli_raw_analyze+0x2e0>)
     e8e:	4798      	blx	r3
     e90:	e7ef      	b.n	e72 <lfrfid_cli_raw_analyze+0x222>
     e92:	bf00      	nop
     e94:	00000000 	.word	0x00000000
     e98:	000003e0 	.word	0x000003e0
	...
     ec0:	00000428 	.word	0x00000428
	...
     ecc:	00000440 	.word	0x00000440
	...
     ee0:	0000045c 	.word	0x0000045c
     ee4:	00000000 	.word	0x00000000
     ee8:	00000234 	.word	0x00000234
     eec:	00000000 	.word	0x00000000
     ef0:	00000464 	.word	0x00000464
	...
     efc:	0000046c 	.word	0x0000046c
     f00:	00000478 	.word	0x00000478
     f04:	00000490 	.word	0x00000490
     f08:	000004a4 	.word	0x000004a4
     f0c:	000004b8 	.word	0x000004b8
     f10:	000004cc 	.word	0x000004cc
     f14:	000004e0 	.word	0x000004e0
     f18:	000004f4 	.word	0x000004f4
     f1c:	00000508 	.word	0x00000508
	...
     f28:	00000518 	.word	0x00000518
     f2c:	0000022c 	.word	0x0000022c
     f30:	00000000 	.word	0x00000000
     f34:	00000450 	.word	0x00000450
	...
            printf("]\r\n");
     f40:	480c      	ldr	r0, [pc, #48]	@ (f74 <lfrfid_cli_raw_analyze+0x324>)
     f42:	4b0d      	ldr	r3, [pc, #52]	@ (f78 <lfrfid_cli_raw_analyze+0x328>)
     f44:	4798      	blx	r3
            protocol_dict_render_data(dict, info_string, total_protocol);
     f46:	464a      	mov	r2, r9
     f48:	4621      	mov	r1, r4
     f4a:	9804      	ldr	r0, [sp, #16]
     f4c:	4b0b      	ldr	r3, [pc, #44]	@ (f7c <lfrfid_cli_raw_analyze+0x32c>)
     f4e:	4798      	blx	r3
            printf("%s\r\n", furi_string_get_cstr(info_string));
     f50:	4620      	mov	r0, r4
     f52:	4b0b      	ldr	r3, [pc, #44]	@ (f80 <lfrfid_cli_raw_analyze+0x330>)
     f54:	4798      	blx	r3
     f56:	4601      	mov	r1, r0
     f58:	480a      	ldr	r0, [pc, #40]	@ (f84 <lfrfid_cli_raw_analyze+0x334>)
     f5a:	4b0b      	ldr	r3, [pc, #44]	@ (f88 <lfrfid_cli_raw_analyze+0x338>)
     f5c:	4798      	blx	r3
            free(data);
     f5e:	4640      	mov	r0, r8
     f60:	4b0a      	ldr	r3, [pc, #40]	@ (f8c <lfrfid_cli_raw_analyze+0x33c>)
     f62:	4798      	blx	r3
        protocol_dict_free(dict);
     f64:	9804      	ldr	r0, [sp, #16]
     f66:	4b0a      	ldr	r3, [pc, #40]	@ (f90 <lfrfid_cli_raw_analyze+0x340>)
     f68:	4798      	blx	r3
     f6a:	e68a      	b.n	c82 <lfrfid_cli_raw_analyze+0x32>
            printf("not found\r\n");
     f6c:	4809      	ldr	r0, [pc, #36]	@ (f94 <lfrfid_cli_raw_analyze+0x344>)
     f6e:	4b02      	ldr	r3, [pc, #8]	@ (f78 <lfrfid_cli_raw_analyze+0x328>)
     f70:	4798      	blx	r3
     f72:	e7f7      	b.n	f64 <lfrfid_cli_raw_analyze+0x314>
     f74:	00000520 	.word	0x00000520
	...
     f84:	00000238 	.word	0x00000238
	...
     f94:	00000524 	.word	0x00000524

00000f98 <execute>:

static void execute(PipeSide* pipe, FuriString* args, void* context) {
     f98:	b570      	push	{r4, r5, r6, lr}
     f9a:	4606      	mov	r6, r0
     f9c:	460d      	mov	r5, r1
    UNUSED(context);
    FuriString* cmd;
    cmd = furi_string_alloc();
     f9e:	4b28      	ldr	r3, [pc, #160]	@ (1040 <execute+0xa8>)
     fa0:	4798      	blx	r3
     fa2:	4604      	mov	r4, r0

    if(!args_read_string_and_trim(args, cmd)) {
     fa4:	4601      	mov	r1, r0
     fa6:	4628      	mov	r0, r5
     fa8:	4b26      	ldr	r3, [pc, #152]	@ (1044 <execute+0xac>)
     faa:	4798      	blx	r3
     fac:	b160      	cbz	r0, fc8 <execute+0x30>
        furi_string_free(cmd);
        lfrfid_cli_print_usage();
        return;
    }

    if(furi_string_cmp_str(cmd, "read") == 0) {
     fae:	4926      	ldr	r1, [pc, #152]	@ (1048 <execute+0xb0>)
     fb0:	4620      	mov	r0, r4
     fb2:	4b26      	ldr	r3, [pc, #152]	@ (104c <execute+0xb4>)
     fb4:	4798      	blx	r3
     fb6:	b968      	cbnz	r0, fd4 <execute+0x3c>
        lfrfid_cli_read(pipe, args);
     fb8:	4629      	mov	r1, r5
     fba:	4630      	mov	r0, r6
     fbc:	4b24      	ldr	r3, [pc, #144]	@ (1050 <execute+0xb8>)
     fbe:	4798      	blx	r3
        lfrfid_cli_raw_analyze(pipe, args);
    } else {
        lfrfid_cli_print_usage();
    }

    furi_string_free(cmd);
     fc0:	4620      	mov	r0, r4
     fc2:	4b24      	ldr	r3, [pc, #144]	@ (1054 <execute+0xbc>)
     fc4:	4798      	blx	r3
}
     fc6:	bd70      	pop	{r4, r5, r6, pc}
        furi_string_free(cmd);
     fc8:	4620      	mov	r0, r4
     fca:	4b22      	ldr	r3, [pc, #136]	@ (1054 <execute+0xbc>)
     fcc:	4798      	blx	r3
        lfrfid_cli_print_usage();
     fce:	4b22      	ldr	r3, [pc, #136]	@ (1058 <execute+0xc0>)
     fd0:	4798      	blx	r3
        return;
     fd2:	e7f8      	b.n	fc6 <execute+0x2e>
    } else if(furi_string_cmp_str(cmd, "write") == 0) {
     fd4:	4921      	ldr	r1, [pc, #132]	@ (105c <execute+0xc4>)
     fd6:	4620      	mov	r0, r4
     fd8:	4b1c      	ldr	r3, [pc, #112]	@ (104c <execute+0xb4>)
     fda:	4798      	blx	r3
     fdc:	b920      	cbnz	r0, fe8 <execute+0x50>
        lfrfid_cli_write(pipe, args);
     fde:	4629      	mov	r1, r5
     fe0:	4630      	mov	r0, r6
     fe2:	4b1f      	ldr	r3, [pc, #124]	@ (1060 <execute+0xc8>)
     fe4:	4798      	blx	r3
     fe6:	e7eb      	b.n	fc0 <execute+0x28>
    } else if(furi_string_cmp_str(cmd, "emulate") == 0) {
     fe8:	491e      	ldr	r1, [pc, #120]	@ (1064 <execute+0xcc>)
     fea:	4620      	mov	r0, r4
     fec:	4b17      	ldr	r3, [pc, #92]	@ (104c <execute+0xb4>)
     fee:	4798      	blx	r3
     ff0:	b920      	cbnz	r0, ffc <execute+0x64>
        lfrfid_cli_emulate(pipe, args);
     ff2:	4629      	mov	r1, r5
     ff4:	4630      	mov	r0, r6
     ff6:	4b1c      	ldr	r3, [pc, #112]	@ (1068 <execute+0xd0>)
     ff8:	4798      	blx	r3
     ffa:	e7e1      	b.n	fc0 <execute+0x28>
    } else if(furi_string_cmp_str(cmd, "raw_read") == 0) {
     ffc:	491b      	ldr	r1, [pc, #108]	@ (106c <execute+0xd4>)
     ffe:	4620      	mov	r0, r4
    1000:	4b12      	ldr	r3, [pc, #72]	@ (104c <execute+0xb4>)
    1002:	4798      	blx	r3
    1004:	b920      	cbnz	r0, 1010 <execute+0x78>
        lfrfid_cli_raw_read(pipe, args);
    1006:	4629      	mov	r1, r5
    1008:	4630      	mov	r0, r6
    100a:	4b19      	ldr	r3, [pc, #100]	@ (1070 <execute+0xd8>)
    100c:	4798      	blx	r3
    100e:	e7d7      	b.n	fc0 <execute+0x28>
    } else if(furi_string_cmp_str(cmd, "raw_emulate") == 0) {
    1010:	4918      	ldr	r1, [pc, #96]	@ (1074 <execute+0xdc>)
    1012:	4620      	mov	r0, r4
    1014:	4b0d      	ldr	r3, [pc, #52]	@ (104c <execute+0xb4>)
    1016:	4798      	blx	r3
    1018:	b920      	cbnz	r0, 1024 <execute+0x8c>
        lfrfid_cli_raw_emulate(pipe, args);
    101a:	4629      	mov	r1, r5
    101c:	4630      	mov	r0, r6
    101e:	4b16      	ldr	r3, [pc, #88]	@ (1078 <execute+0xe0>)
    1020:	4798      	blx	r3
    1022:	e7cd      	b.n	fc0 <execute+0x28>
    } else if(furi_string_cmp_str(cmd, "raw_analyze") == 0) {
    1024:	4915      	ldr	r1, [pc, #84]	@ (107c <execute+0xe4>)
    1026:	4620      	mov	r0, r4
    1028:	4b08      	ldr	r3, [pc, #32]	@ (104c <execute+0xb4>)
    102a:	4798      	blx	r3
    102c:	b920      	cbnz	r0, 1038 <execute+0xa0>
        lfrfid_cli_raw_analyze(pipe, args);
    102e:	4629      	mov	r1, r5
    1030:	4630      	mov	r0, r6
    1032:	4b13      	ldr	r3, [pc, #76]	@ (1080 <execute+0xe8>)
    1034:	4798      	blx	r3
    1036:	e7c3      	b.n	fc0 <execute+0x28>
        lfrfid_cli_print_usage();
    1038:	4b07      	ldr	r3, [pc, #28]	@ (1058 <execute+0xc0>)
    103a:	4798      	blx	r3
    103c:	e7c0      	b.n	fc0 <execute+0x28>
    103e:	bf00      	nop
	...
    1048:	00000530 	.word	0x00000530
	...
    105c:	00000538 	.word	0x00000538
    1060:	00000000 	.word	0x00000000
    1064:	00000540 	.word	0x00000540
    1068:	00000000 	.word	0x00000000
    106c:	00000548 	.word	0x00000548
    1070:	00000000 	.word	0x00000000
    1074:	00000554 	.word	0x00000554
    1078:	00000000 	.word	0x00000000
    107c:	00000560 	.word	0x00000560
    1080:	00000000 	.word	0x00000000

00001084 <cli_rfid_ep>:

CLI_COMMAND_INTERFACE(rfid, execute, CliCommandFlagDefault, 2048, CLI_APPID);
    1084:	4800      	ldr	r0, [pc, #0]	@ (1088 <cli_rfid_ep+0x4>)
    1086:	4770      	bx	lr
    1088:	00000578 	.word	0x00000578
