
build/f7-firmware-D/.extapps/cli_ir_d.elf:     file format elf32-littlearm


Disassembly of section .text:

00000000 <dict_signals_next>:
#define INFRARED_CLI_FILE_NAME_SIZE      (256U)
#define INFRARED_FILE_EXTENSION          ".ir"
#define INFRARED_ASSETS_FOLDER           EXT_PATH("infrared/assets")
#define INFRARED_BRUTE_FORCE_DUMMY_INDEX 0

DICT_DEF2(dict_signals, FuriString*, FURI_STRING_OPLIST, int, M_DEFAULT_OPLIST)
       0:	68c3      	ldr	r3, [r0, #12]
       2:	6083      	str	r3, [r0, #8]
       4:	681b      	ldr	r3, [r3, #0]
       6:	60c3      	str	r3, [r0, #12]
       8:	e005      	b.n	16 <dict_signals_next+0x16>
       a:	6892      	ldr	r2, [r2, #8]
       c:	f852 3023 	ldr.w	r3, [r2, r3, lsl #2]
      10:	60c3      	str	r3, [r0, #12]
      12:	2300      	movs	r3, #0
      14:	6083      	str	r3, [r0, #8]
      16:	68c3      	ldr	r3, [r0, #12]
      18:	b933      	cbnz	r3, 28 <dict_signals_next+0x28>
      1a:	6803      	ldr	r3, [r0, #0]
      1c:	3301      	adds	r3, #1
      1e:	6003      	str	r3, [r0, #0]
      20:	6842      	ldr	r2, [r0, #4]
      22:	6811      	ldr	r1, [r2, #0]
      24:	4299      	cmp	r1, r3
      26:	d8f0      	bhi.n	a <dict_signals_next+0xa>
      28:	4770      	bx	lr

0000002a <dict_signals_it>:
      2a:	310c      	adds	r1, #12
      2c:	2300      	movs	r3, #0
      2e:	6003      	str	r3, [r0, #0]
      30:	6041      	str	r1, [r0, #4]
      32:	688a      	ldr	r2, [r1, #8]
      34:	6812      	ldr	r2, [r2, #0]
      36:	60c2      	str	r2, [r0, #12]
      38:	6083      	str	r3, [r0, #8]
      3a:	68c3      	ldr	r3, [r0, #12]
      3c:	b953      	cbnz	r3, 54 <dict_signals_it+0x2a>
      3e:	6803      	ldr	r3, [r0, #0]
      40:	3301      	adds	r3, #1
      42:	6003      	str	r3, [r0, #0]
      44:	680a      	ldr	r2, [r1, #0]
      46:	429a      	cmp	r2, r3
      48:	d904      	bls.n	54 <dict_signals_it+0x2a>
      4a:	688a      	ldr	r2, [r1, #8]
      4c:	f852 3023 	ldr.w	r3, [r2, r3, lsl #2]
      50:	60c3      	str	r3, [r0, #12]
      52:	e7f2      	b.n	3a <dict_signals_it+0x10>
      54:	4770      	bx	lr
	...

00000058 <dict_signals_list_pair_reset>:
      58:	b538      	push	{r3, r4, r5, lr}
      5a:	6804      	ldr	r4, [r0, #0]
      5c:	2300      	movs	r3, #0
      5e:	6003      	str	r3, [r0, #0]
      60:	e007      	b.n	72 <dict_signals_list_pair_reset+0x1a>
      62:	6825      	ldr	r5, [r4, #0]
      64:	6860      	ldr	r0, [r4, #4]
      66:	4b04      	ldr	r3, [pc, #16]	@ (78 <dict_signals_list_pair_reset+0x20>)
      68:	4798      	blx	r3
      6a:	4620      	mov	r0, r4
      6c:	4b03      	ldr	r3, [pc, #12]	@ (7c <dict_signals_list_pair_reset+0x24>)
      6e:	4798      	blx	r3
      70:	462c      	mov	r4, r5
      72:	2c00      	cmp	r4, #0
      74:	d1f5      	bne.n	62 <dict_signals_list_pair_reset+0xa>
      76:	bd38      	pop	{r3, r4, r5, pc}
	...

00000080 <dict_signals_array_list_pair_resize>:
      80:	b570      	push	{r4, r5, r6, lr}
      82:	4605      	mov	r5, r0
      84:	460e      	mov	r6, r1
      86:	6803      	ldr	r3, [r0, #0]
      88:	428b      	cmp	r3, r1
      8a:	d822      	bhi.n	d2 <dict_signals_array_list_pair_resize+0x52>
      8c:	428b      	cmp	r3, r1
      8e:	d21f      	bcs.n	d0 <dict_signals_array_list_pair_resize+0x50>
      90:	6843      	ldr	r3, [r0, #4]
      92:	428b      	cmp	r3, r1
      94:	d209      	bcs.n	aa <dict_signals_array_list_pair_resize+0x2a>
      96:	f1b1 4f80 	cmp.w	r1, #1073741824	@ 0x40000000
      9a:	d21c      	bcs.n	d6 <dict_signals_array_list_pair_resize+0x56>
      9c:	0089      	lsls	r1, r1, #2
      9e:	6880      	ldr	r0, [r0, #8]
      a0:	4b10      	ldr	r3, [pc, #64]	@ (e4 <dict_signals_array_list_pair_resize+0x64>)
      a2:	4798      	blx	r3
      a4:	b1c8      	cbz	r0, da <dict_signals_array_list_pair_resize+0x5a>
      a6:	60a8      	str	r0, [r5, #8]
      a8:	606e      	str	r6, [r5, #4]
      aa:	682b      	ldr	r3, [r5, #0]
      ac:	42b3      	cmp	r3, r6
      ae:	d216      	bcs.n	de <dict_signals_array_list_pair_resize+0x5e>
      b0:	68aa      	ldr	r2, [r5, #8]
      b2:	2100      	movs	r1, #0
      b4:	f842 1023 	str.w	r1, [r2, r3, lsl #2]
      b8:	3301      	adds	r3, #1
      ba:	e7f7      	b.n	ac <dict_signals_array_list_pair_resize+0x2c>
      bc:	68a8      	ldr	r0, [r5, #8]
      be:	eb00 0084 	add.w	r0, r0, r4, lsl #2
      c2:	4b09      	ldr	r3, [pc, #36]	@ (e8 <dict_signals_array_list_pair_resize+0x68>)
      c4:	4798      	blx	r3
      c6:	3401      	adds	r4, #1
      c8:	682b      	ldr	r3, [r5, #0]
      ca:	42a3      	cmp	r3, r4
      cc:	d8f6      	bhi.n	bc <dict_signals_array_list_pair_resize+0x3c>
      ce:	602e      	str	r6, [r5, #0]
      d0:	bd70      	pop	{r4, r5, r6, pc}
      d2:	460c      	mov	r4, r1
      d4:	e7f8      	b.n	c8 <dict_signals_array_list_pair_resize+0x48>
      d6:	2000      	movs	r0, #0
      d8:	e7e4      	b.n	a4 <dict_signals_array_list_pair_resize+0x24>
      da:	4b04      	ldr	r3, [pc, #16]	@ (ec <dict_signals_array_list_pair_resize+0x6c>)
      dc:	4798      	blx	r3
      de:	602e      	str	r6, [r5, #0]
      e0:	e7f6      	b.n	d0 <dict_signals_array_list_pair_resize+0x50>
      e2:	bf00      	nop
	...

000000f0 <dict_signals_init>:
      f0:	b538      	push	{r3, r4, r5, lr}
      f2:	4604      	mov	r4, r0
      f4:	2500      	movs	r5, #0
      f6:	f840 5b0c 	str.w	r5, [r0], #12
      fa:	60e5      	str	r5, [r4, #12]
      fc:	6125      	str	r5, [r4, #16]
      fe:	6165      	str	r5, [r4, #20]
     100:	2110      	movs	r1, #16
     102:	4b03      	ldr	r3, [pc, #12]	@ (110 <dict_signals_init+0x20>)
     104:	4798      	blx	r3
     106:	6065      	str	r5, [r4, #4]
     108:	230a      	movs	r3, #10
     10a:	60a3      	str	r3, [r4, #8]
     10c:	bd38      	pop	{r3, r4, r5, pc}
     10e:	bf00      	nop
     110:	00000000 	.word	0x00000000

00000114 <dict_signals_array_list_pair_reset>:
     114:	b538      	push	{r3, r4, r5, lr}
     116:	4605      	mov	r5, r0
     118:	2400      	movs	r4, #0
     11a:	e005      	b.n	128 <dict_signals_array_list_pair_reset+0x14>
     11c:	68a8      	ldr	r0, [r5, #8]
     11e:	eb00 0084 	add.w	r0, r0, r4, lsl #2
     122:	4b04      	ldr	r3, [pc, #16]	@ (134 <dict_signals_array_list_pair_reset+0x20>)
     124:	4798      	blx	r3
     126:	3401      	adds	r4, #1
     128:	682b      	ldr	r3, [r5, #0]
     12a:	42a3      	cmp	r3, r4
     12c:	d8f6      	bhi.n	11c <dict_signals_array_list_pair_reset+0x8>
     12e:	2300      	movs	r3, #0
     130:	602b      	str	r3, [r5, #0]
     132:	bd38      	pop	{r3, r4, r5, pc}
     134:	00000000 	.word	0x00000000

00000138 <dict_signals_array_list_pair_clear>:
     138:	b510      	push	{r4, lr}
     13a:	4604      	mov	r4, r0
     13c:	4b04      	ldr	r3, [pc, #16]	@ (150 <dict_signals_array_list_pair_clear+0x18>)
     13e:	4798      	blx	r3
     140:	68a0      	ldr	r0, [r4, #8]
     142:	4b04      	ldr	r3, [pc, #16]	@ (154 <dict_signals_array_list_pair_clear+0x1c>)
     144:	4798      	blx	r3
     146:	2301      	movs	r3, #1
     148:	6063      	str	r3, [r4, #4]
     14a:	2300      	movs	r3, #0
     14c:	60a3      	str	r3, [r4, #8]
     14e:	bd10      	pop	{r4, pc}
	...

00000158 <m_d1ct_dict_signals_resize_up>:
     158:	e92d 43f0 	stmdb	sp!, {r4, r5, r6, r7, r8, r9, lr}
     15c:	b083      	sub	sp, #12
     15e:	68c5      	ldr	r5, [r0, #12]
     160:	ebb5 0f45 	cmp.w	r5, r5, lsl #1
     164:	d207      	bcs.n	176 <m_d1ct_dict_signals_resize_up+0x1e>
     166:	4680      	mov	r8, r0
     168:	006f      	lsls	r7, r5, #1
     16a:	4639      	mov	r1, r7
     16c:	300c      	adds	r0, #12
     16e:	4b22      	ldr	r3, [pc, #136]	@ (1f8 <m_d1ct_dict_signals_resize_up+0xa0>)
     170:	4798      	blx	r3
     172:	2600      	movs	r6, #0
     174:	e020      	b.n	1b8 <m_d1ct_dict_signals_resize_up+0x60>
     176:	4b21      	ldr	r3, [pc, #132]	@ (1fc <m_d1ct_dict_signals_resize_up+0xa4>)
     178:	4798      	blx	r3
     17a:	f8c9 1000 	str.w	r1, [r9]
     17e:	9101      	str	r1, [sp, #4]
     180:	f853 1022 	ldr.w	r1, [r3, r2, lsl #2]
     184:	6021      	str	r1, [r4, #0]
     186:	f843 4022 	str.w	r4, [r3, r2, lsl #2]
     18a:	9c01      	ldr	r4, [sp, #4]
     18c:	b19c      	cbz	r4, 1b6 <m_d1ct_dict_signals_resize_up+0x5e>
     18e:	6860      	ldr	r0, [r4, #4]
     190:	4b1b      	ldr	r3, [pc, #108]	@ (200 <m_d1ct_dict_signals_resize_up+0xa8>)
     192:	4798      	blx	r3
     194:	1e7b      	subs	r3, r7, #1
     196:	4003      	ands	r3, r0
     198:	42ab      	cmp	r3, r5
     19a:	d308      	bcc.n	1ae <m_d1ct_dict_signals_resize_up+0x56>
     19c:	1972      	adds	r2, r6, r5
     19e:	f8d8 3014 	ldr.w	r3, [r8, #20]
     1a2:	6821      	ldr	r1, [r4, #0]
     1a4:	9800      	ldr	r0, [sp, #0]
     1a6:	2800      	cmp	r0, #0
     1a8:	d0e7      	beq.n	17a <m_d1ct_dict_signals_resize_up+0x22>
     1aa:	6001      	str	r1, [r0, #0]
     1ac:	e7e7      	b.n	17e <m_d1ct_dict_signals_resize_up+0x26>
     1ae:	9400      	str	r4, [sp, #0]
     1b0:	6823      	ldr	r3, [r4, #0]
     1b2:	9301      	str	r3, [sp, #4]
     1b4:	e7e9      	b.n	18a <m_d1ct_dict_signals_resize_up+0x32>
     1b6:	3601      	adds	r6, #1
     1b8:	42ae      	cmp	r6, r5
     1ba:	d20b      	bcs.n	1d4 <m_d1ct_dict_signals_resize_up+0x7c>
     1bc:	f8d8 3014 	ldr.w	r3, [r8, #20]
     1c0:	eb03 0986 	add.w	r9, r3, r6, lsl #2
     1c4:	f853 3026 	ldr.w	r3, [r3, r6, lsl #2]
     1c8:	2b00      	cmp	r3, #0
     1ca:	d0f4      	beq.n	1b6 <m_d1ct_dict_signals_resize_up+0x5e>
     1cc:	9301      	str	r3, [sp, #4]
     1ce:	2300      	movs	r3, #0
     1d0:	9300      	str	r3, [sp, #0]
     1d2:	e7da      	b.n	18a <m_d1ct_dict_signals_resize_up+0x32>
     1d4:	00ab      	lsls	r3, r5, #2
     1d6:	4a0b      	ldr	r2, [pc, #44]	@ (204 <m_d1ct_dict_signals_resize_up+0xac>)
     1d8:	fba2 2303 	umull	r2, r3, r2, r3
     1dc:	085b      	lsrs	r3, r3, #1
     1de:	f8c8 3008 	str.w	r3, [r8, #8]
     1e2:	2f10      	cmp	r7, #16
     1e4:	d905      	bls.n	1f2 <m_d1ct_dict_signals_resize_up+0x9a>
     1e6:	08bf      	lsrs	r7, r7, #2
     1e8:	f8c8 7004 	str.w	r7, [r8, #4]
     1ec:	b003      	add	sp, #12
     1ee:	e8bd 83f0 	ldmia.w	sp!, {r4, r5, r6, r7, r8, r9, pc}
     1f2:	2700      	movs	r7, #0
     1f4:	e7f8      	b.n	1e8 <m_d1ct_dict_signals_resize_up+0x90>
     1f6:	bf00      	nop
	...
     204:	aaaaaaab 	.word	0xaaaaaaab

00000208 <dict_signals_get>:
     208:	b530      	push	{r4, r5, lr}
     20a:	b083      	sub	sp, #12
     20c:	4604      	mov	r4, r0
     20e:	460d      	mov	r5, r1
     210:	4608      	mov	r0, r1
     212:	4b0d      	ldr	r3, [pc, #52]	@ (248 <dict_signals_get+0x40>)
     214:	4798      	blx	r3
     216:	68e3      	ldr	r3, [r4, #12]
     218:	3b01      	subs	r3, #1
     21a:	4003      	ands	r3, r0
     21c:	6962      	ldr	r2, [r4, #20]
     21e:	f852 3023 	ldr.w	r3, [r2, r3, lsl #2]
     222:	9301      	str	r3, [sp, #4]
     224:	2300      	movs	r3, #0
     226:	9300      	str	r3, [sp, #0]
     228:	e002      	b.n	230 <dict_signals_get+0x28>
     22a:	9400      	str	r4, [sp, #0]
     22c:	6823      	ldr	r3, [r4, #0]
     22e:	9301      	str	r3, [sp, #4]
     230:	9c01      	ldr	r4, [sp, #4]
     232:	b134      	cbz	r4, 242 <dict_signals_get+0x3a>
     234:	4629      	mov	r1, r5
     236:	6860      	ldr	r0, [r4, #4]
     238:	4b04      	ldr	r3, [pc, #16]	@ (24c <dict_signals_get+0x44>)
     23a:	4798      	blx	r3
     23c:	2800      	cmp	r0, #0
     23e:	d0f4      	beq.n	22a <dict_signals_get+0x22>
     240:	3408      	adds	r4, #8
     242:	4620      	mov	r0, r4
     244:	b003      	add	sp, #12
     246:	bd30      	pop	{r4, r5, pc}
	...

00000250 <dict_signals_list_pair_push_raw>:
     250:	b510      	push	{r4, lr}
     252:	4604      	mov	r4, r0
     254:	200c      	movs	r0, #12
     256:	4b05      	ldr	r3, [pc, #20]	@ (26c <dict_signals_list_pair_push_raw+0x1c>)
     258:	4798      	blx	r3
     25a:	b128      	cbz	r0, 268 <dict_signals_list_pair_push_raw+0x18>
     25c:	4603      	mov	r3, r0
     25e:	6822      	ldr	r2, [r4, #0]
     260:	f840 2b04 	str.w	r2, [r0], #4
     264:	6023      	str	r3, [r4, #0]
     266:	bd10      	pop	{r4, pc}
     268:	4b01      	ldr	r3, [pc, #4]	@ (270 <dict_signals_list_pair_push_raw+0x20>)
     26a:	4798      	blx	r3
	...

00000274 <dict_signals_set_at>:
     274:	e92d 41f0 	stmdb	sp!, {r4, r5, r6, r7, r8, lr}
     278:	b082      	sub	sp, #8
     27a:	4606      	mov	r6, r0
     27c:	460d      	mov	r5, r1
     27e:	4617      	mov	r7, r2
     280:	4608      	mov	r0, r1
     282:	4b18      	ldr	r3, [pc, #96]	@ (2e4 <dict_signals_set_at+0x70>)
     284:	4798      	blx	r3
     286:	68f3      	ldr	r3, [r6, #12]
     288:	3b01      	subs	r3, #1
     28a:	4018      	ands	r0, r3
     28c:	6973      	ldr	r3, [r6, #20]
     28e:	eb03 0880 	add.w	r8, r3, r0, lsl #2
     292:	f853 3020 	ldr.w	r3, [r3, r0, lsl #2]
     296:	9301      	str	r3, [sp, #4]
     298:	2300      	movs	r3, #0
     29a:	9300      	str	r3, [sp, #0]
     29c:	e002      	b.n	2a4 <dict_signals_set_at+0x30>
     29e:	9400      	str	r4, [sp, #0]
     2a0:	6823      	ldr	r3, [r4, #0]
     2a2:	9301      	str	r3, [sp, #4]
     2a4:	9c01      	ldr	r4, [sp, #4]
     2a6:	b14c      	cbz	r4, 2bc <dict_signals_set_at+0x48>
     2a8:	4629      	mov	r1, r5
     2aa:	6860      	ldr	r0, [r4, #4]
     2ac:	4b0e      	ldr	r3, [pc, #56]	@ (2e8 <dict_signals_set_at+0x74>)
     2ae:	4798      	blx	r3
     2b0:	2800      	cmp	r0, #0
     2b2:	d0f4      	beq.n	29e <dict_signals_set_at+0x2a>
     2b4:	60a7      	str	r7, [r4, #8]
     2b6:	b002      	add	sp, #8
     2b8:	e8bd 81f0 	ldmia.w	sp!, {r4, r5, r6, r7, r8, pc}
     2bc:	4640      	mov	r0, r8
     2be:	4b0b      	ldr	r3, [pc, #44]	@ (2ec <dict_signals_set_at+0x78>)
     2c0:	4798      	blx	r3
     2c2:	4604      	mov	r4, r0
     2c4:	4628      	mov	r0, r5
     2c6:	4b0a      	ldr	r3, [pc, #40]	@ (2f0 <dict_signals_set_at+0x7c>)
     2c8:	4798      	blx	r3
     2ca:	6020      	str	r0, [r4, #0]
     2cc:	6067      	str	r7, [r4, #4]
     2ce:	6833      	ldr	r3, [r6, #0]
     2d0:	3301      	adds	r3, #1
     2d2:	6033      	str	r3, [r6, #0]
     2d4:	68b2      	ldr	r2, [r6, #8]
     2d6:	4293      	cmp	r3, r2
     2d8:	d9ed      	bls.n	2b6 <dict_signals_set_at+0x42>
     2da:	4630      	mov	r0, r6
     2dc:	4b05      	ldr	r3, [pc, #20]	@ (2f4 <dict_signals_set_at+0x80>)
     2de:	4798      	blx	r3
     2e0:	e7e9      	b.n	2b6 <dict_signals_set_at+0x42>
     2e2:	bf00      	nop
	...

000002f8 <infrared_cli_list_remote_signals>:
    flipper_format_free(input_file);
    if(output_file) flipper_format_free(output_file);
    furi_record_close(RECORD_STORAGE);
}

static void infrared_cli_list_remote_signals(FuriString* remote_name) {
     2f8:	b5f0      	push	{r4, r5, r6, r7, lr}
     2fa:	b08b      	sub	sp, #44	@ 0x2c
     2fc:	4604      	mov	r4, r0
    if(furi_string_empty(remote_name)) {
     2fe:	4b37      	ldr	r3, [pc, #220]	@ (3dc <infrared_cli_list_remote_signals+0xe4>)
     300:	4798      	blx	r3
     302:	bb18      	cbnz	r0, 34c <infrared_cli_list_remote_signals+0x54>
        printf("Missing remote name.\r\n");
        return;
    }

    Storage* storage = furi_record_open(RECORD_STORAGE);
     304:	4836      	ldr	r0, [pc, #216]	@ (3e0 <infrared_cli_list_remote_signals+0xe8>)
     306:	4b37      	ldr	r3, [pc, #220]	@ (3e4 <infrared_cli_list_remote_signals+0xec>)
     308:	4798      	blx	r3
    FlipperFormat* ff = flipper_format_buffered_file_alloc(storage);
     30a:	4b37      	ldr	r3, [pc, #220]	@ (3e8 <infrared_cli_list_remote_signals+0xf0>)
     30c:	4798      	blx	r3
     30e:	4606      	mov	r6, r0
    FuriString* remote_path = furi_string_alloc_printf(
     310:	4620      	mov	r0, r4
     312:	4c36      	ldr	r4, [pc, #216]	@ (3ec <infrared_cli_list_remote_signals+0xf4>)
     314:	47a0      	blx	r4
     316:	4602      	mov	r2, r0
     318:	4b35      	ldr	r3, [pc, #212]	@ (3f0 <infrared_cli_list_remote_signals+0xf8>)
     31a:	4936      	ldr	r1, [pc, #216]	@ (3f4 <infrared_cli_list_remote_signals+0xfc>)
     31c:	4836      	ldr	r0, [pc, #216]	@ (3f8 <infrared_cli_list_remote_signals+0x100>)
     31e:	4d37      	ldr	r5, [pc, #220]	@ (3fc <infrared_cli_list_remote_signals+0x104>)
     320:	47a8      	blx	r5
     322:	4607      	mov	r7, r0
        INFRARED_ASSETS_FOLDER,
        furi_string_get_cstr(remote_name),
        INFRARED_FILE_EXTENSION);

    do {
        if(!flipper_format_buffered_file_open_existing(ff, furi_string_get_cstr(remote_path))) {
     324:	47a0      	blx	r4
     326:	4601      	mov	r1, r0
     328:	4630      	mov	r0, r6
     32a:	4b35      	ldr	r3, [pc, #212]	@ (400 <infrared_cli_list_remote_signals+0x108>)
     32c:	4798      	blx	r3
     32e:	b988      	cbnz	r0, 354 <infrared_cli_list_remote_signals+0x5c>
            printf("Invalid remote name.\r\n");
     330:	4834      	ldr	r0, [pc, #208]	@ (404 <infrared_cli_list_remote_signals+0x10c>)
     332:	4b35      	ldr	r3, [pc, #212]	@ (408 <infrared_cli_list_remote_signals+0x110>)
     334:	4798      	blx	r3
        furi_string_free(signal_name);
        dict_signals_clear(signals_dict);

    } while(false);

    flipper_format_free(ff);
     336:	4630      	mov	r0, r6
     338:	4b34      	ldr	r3, [pc, #208]	@ (40c <infrared_cli_list_remote_signals+0x114>)
     33a:	4798      	blx	r3
    furi_string_free(remote_path);
     33c:	4638      	mov	r0, r7
     33e:	4b34      	ldr	r3, [pc, #208]	@ (410 <infrared_cli_list_remote_signals+0x118>)
     340:	4798      	blx	r3
    furi_record_close(RECORD_STORAGE);
     342:	4827      	ldr	r0, [pc, #156]	@ (3e0 <infrared_cli_list_remote_signals+0xe8>)
     344:	4b33      	ldr	r3, [pc, #204]	@ (414 <infrared_cli_list_remote_signals+0x11c>)
     346:	4798      	blx	r3
}
     348:	b00b      	add	sp, #44	@ 0x2c
     34a:	bdf0      	pop	{r4, r5, r6, r7, pc}
        printf("Missing remote name.\r\n");
     34c:	4832      	ldr	r0, [pc, #200]	@ (418 <infrared_cli_list_remote_signals+0x120>)
     34e:	4b2e      	ldr	r3, [pc, #184]	@ (408 <infrared_cli_list_remote_signals+0x110>)
     350:	4798      	blx	r3
        return;
     352:	e7f9      	b.n	348 <infrared_cli_list_remote_signals+0x50>
        dict_signals_init(signals_dict);
     354:	a804      	add	r0, sp, #16
     356:	4b31      	ldr	r3, [pc, #196]	@ (41c <infrared_cli_list_remote_signals+0x124>)
     358:	4798      	blx	r3
        FuriString* key = furi_string_alloc();
     35a:	4d31      	ldr	r5, [pc, #196]	@ (420 <infrared_cli_list_remote_signals+0x128>)
     35c:	47a8      	blx	r5
     35e:	4604      	mov	r4, r0
        FuriString* signal_name = furi_string_alloc();
     360:	47a8      	blx	r5
     362:	4605      	mov	r5, r0
        printf("Valid signals:\r\n");
     364:	482f      	ldr	r0, [pc, #188]	@ (424 <infrared_cli_list_remote_signals+0x12c>)
     366:	4b28      	ldr	r3, [pc, #160]	@ (408 <infrared_cli_list_remote_signals+0x110>)
     368:	4798      	blx	r3
        while(flipper_format_read_string(ff, "name", signal_name)) {
     36a:	e004      	b.n	376 <infrared_cli_list_remote_signals+0x7e>
                dict_signals_set_at(signals_dict, key, 1);
     36c:	2201      	movs	r2, #1
     36e:	4621      	mov	r1, r4
     370:	a804      	add	r0, sp, #16
     372:	4b2d      	ldr	r3, [pc, #180]	@ (428 <infrared_cli_list_remote_signals+0x130>)
     374:	4798      	blx	r3
        while(flipper_format_read_string(ff, "name", signal_name)) {
     376:	462a      	mov	r2, r5
     378:	492c      	ldr	r1, [pc, #176]	@ (42c <infrared_cli_list_remote_signals+0x134>)
     37a:	4630      	mov	r0, r6
     37c:	4b2c      	ldr	r3, [pc, #176]	@ (430 <infrared_cli_list_remote_signals+0x138>)
     37e:	4798      	blx	r3
     380:	b180      	cbz	r0, 3a4 <infrared_cli_list_remote_signals+0xac>
            furi_string_set_str(key, furi_string_get_cstr(signal_name));
     382:	4628      	mov	r0, r5
     384:	4b19      	ldr	r3, [pc, #100]	@ (3ec <infrared_cli_list_remote_signals+0xf4>)
     386:	4798      	blx	r3
     388:	4601      	mov	r1, r0
     38a:	4620      	mov	r0, r4
     38c:	4b29      	ldr	r3, [pc, #164]	@ (434 <infrared_cli_list_remote_signals+0x13c>)
     38e:	4798      	blx	r3
            int* v = dict_signals_get(signals_dict, key);
     390:	4621      	mov	r1, r4
     392:	a804      	add	r0, sp, #16
     394:	4b28      	ldr	r3, [pc, #160]	@ (438 <infrared_cli_list_remote_signals+0x140>)
     396:	4798      	blx	r3
            if(v != NULL) { //-V547
     398:	2800      	cmp	r0, #0
     39a:	d0e7      	beq.n	36c <infrared_cli_list_remote_signals+0x74>
                (*v)++;
     39c:	6803      	ldr	r3, [r0, #0]
     39e:	3301      	adds	r3, #1
     3a0:	6003      	str	r3, [r0, #0]
                max = M_MAX(*v, max);
     3a2:	e7e8      	b.n	376 <infrared_cli_list_remote_signals+0x7e>
        for(dict_signals_it(it, signals_dict); !dict_signals_end_p(it); dict_signals_next(it)) {
     3a4:	a904      	add	r1, sp, #16
     3a6:	4668      	mov	r0, sp
     3a8:	4b24      	ldr	r3, [pc, #144]	@ (43c <infrared_cli_list_remote_signals+0x144>)
     3aa:	4798      	blx	r3
     3ac:	e009      	b.n	3c2 <infrared_cli_list_remote_signals+0xca>
            printf("\t%s\r\n", furi_string_get_cstr(pair->key));
     3ae:	6858      	ldr	r0, [r3, #4]
     3b0:	4b0e      	ldr	r3, [pc, #56]	@ (3ec <infrared_cli_list_remote_signals+0xf4>)
     3b2:	4798      	blx	r3
     3b4:	4601      	mov	r1, r0
     3b6:	4822      	ldr	r0, [pc, #136]	@ (440 <infrared_cli_list_remote_signals+0x148>)
     3b8:	4b22      	ldr	r3, [pc, #136]	@ (444 <infrared_cli_list_remote_signals+0x14c>)
     3ba:	4798      	blx	r3
        for(dict_signals_it(it, signals_dict); !dict_signals_end_p(it); dict_signals_next(it)) {
     3bc:	4668      	mov	r0, sp
     3be:	4b22      	ldr	r3, [pc, #136]	@ (448 <infrared_cli_list_remote_signals+0x150>)
     3c0:	4798      	blx	r3
DICT_DEF2(dict_signals, FuriString*, FURI_STRING_OPLIST, int, M_DEFAULT_OPLIST)
     3c2:	9b03      	ldr	r3, [sp, #12]
        for(dict_signals_it(it, signals_dict); !dict_signals_end_p(it); dict_signals_next(it)) {
     3c4:	2b00      	cmp	r3, #0
     3c6:	d1f2      	bne.n	3ae <infrared_cli_list_remote_signals+0xb6>
        furi_string_free(key);
     3c8:	4620      	mov	r0, r4
     3ca:	4c11      	ldr	r4, [pc, #68]	@ (410 <infrared_cli_list_remote_signals+0x118>)
     3cc:	47a0      	blx	r4
        furi_string_free(signal_name);
     3ce:	4628      	mov	r0, r5
     3d0:	47a0      	blx	r4
DICT_DEF2(dict_signals, FuriString*, FURI_STRING_OPLIST, int, M_DEFAULT_OPLIST)
     3d2:	a807      	add	r0, sp, #28
     3d4:	4b1d      	ldr	r3, [pc, #116]	@ (44c <infrared_cli_list_remote_signals+0x154>)
     3d6:	4798      	blx	r3
     3d8:	e7ad      	b.n	336 <infrared_cli_list_remote_signals+0x3e>
     3da:	bf00      	nop
     3dc:	00000000 	.word	0x00000000
     3e0:	00000018 	.word	0x00000018
	...
     3f0:	00000020 	.word	0x00000020
     3f4:	00000024 	.word	0x00000024
     3f8:	0000003c 	.word	0x0000003c
	...
     404:	00000044 	.word	0x00000044
	...
     424:	0000005c 	.word	0x0000005c
     428:	00000000 	.word	0x00000000
     42c:	0000006c 	.word	0x0000006c
	...
     440:	00000074 	.word	0x00000074
	...

00000450 <infrared_cli_brute_force_signals>:

static void infrared_cli_brute_force_signals(
    PipeSide* pipe,
    FuriString* remote_name,
    FuriString* signal_name) {
     450:	e92d 43f0 	stmdb	sp!, {r4, r5, r6, r7, r8, r9, lr}
     454:	b083      	sub	sp, #12
     456:	4607      	mov	r7, r0
     458:	460e      	mov	r6, r1
     45a:	4615      	mov	r5, r2
    InfraredBruteForce* brute_force = infrared_brute_force_alloc();
     45c:	4b39      	ldr	r3, [pc, #228]	@ (544 <infrared_cli_brute_force_signals+0xf4>)
     45e:	4798      	blx	r3
     460:	4604      	mov	r4, r0
    FuriString* remote_path = furi_string_alloc_printf(
     462:	4630      	mov	r0, r6
     464:	4e38      	ldr	r6, [pc, #224]	@ (548 <infrared_cli_brute_force_signals+0xf8>)
     466:	47b0      	blx	r6
     468:	4602      	mov	r2, r0
     46a:	4938      	ldr	r1, [pc, #224]	@ (54c <infrared_cli_brute_force_signals+0xfc>)
     46c:	4838      	ldr	r0, [pc, #224]	@ (550 <infrared_cli_brute_force_signals+0x100>)
     46e:	4b39      	ldr	r3, [pc, #228]	@ (554 <infrared_cli_brute_force_signals+0x104>)
     470:	4798      	blx	r3
     472:	4680      	mov	r8, r0
        "%s/%s.ir", INFRARED_ASSETS_FOLDER, furi_string_get_cstr(remote_name));

    infrared_brute_force_set_db_filename(brute_force, furi_string_get_cstr(remote_path));
     474:	47b0      	blx	r6
     476:	4601      	mov	r1, r0
     478:	4620      	mov	r0, r4
     47a:	4b37      	ldr	r3, [pc, #220]	@ (558 <infrared_cli_brute_force_signals+0x108>)
     47c:	4798      	blx	r3
    infrared_brute_force_add_record(
     47e:	4628      	mov	r0, r5
     480:	47b0      	blx	r6
     482:	4602      	mov	r2, r0
     484:	2100      	movs	r1, #0
     486:	4620      	mov	r0, r4
     488:	4b34      	ldr	r3, [pc, #208]	@ (55c <infrared_cli_brute_force_signals+0x10c>)
     48a:	4798      	blx	r3
        brute_force, INFRARED_BRUTE_FORCE_DUMMY_INDEX, furi_string_get_cstr(signal_name));

    do {
        if(furi_string_empty(signal_name)) {
     48c:	4628      	mov	r0, r5
     48e:	4b34      	ldr	r3, [pc, #208]	@ (560 <infrared_cli_brute_force_signals+0x110>)
     490:	4798      	blx	r3
     492:	b170      	cbz	r0, 4b2 <infrared_cli_brute_force_signals+0x62>
            printf("Missing signal name.\r\n");
     494:	4833      	ldr	r0, [pc, #204]	@ (564 <infrared_cli_brute_force_signals+0x114>)
     496:	4b34      	ldr	r3, [pc, #208]	@ (568 <infrared_cli_brute_force_signals+0x118>)
     498:	4798      	blx	r3
        }

        infrared_brute_force_stop(brute_force);
    } while(false);

    furi_string_free(remote_path);
     49a:	4640      	mov	r0, r8
     49c:	4b33      	ldr	r3, [pc, #204]	@ (56c <infrared_cli_brute_force_signals+0x11c>)
     49e:	4798      	blx	r3
    infrared_brute_force_reset(brute_force);
     4a0:	4620      	mov	r0, r4
     4a2:	4b33      	ldr	r3, [pc, #204]	@ (570 <infrared_cli_brute_force_signals+0x120>)
     4a4:	4798      	blx	r3
    infrared_brute_force_free(brute_force);
     4a6:	4620      	mov	r0, r4
     4a8:	4b32      	ldr	r3, [pc, #200]	@ (574 <infrared_cli_brute_force_signals+0x124>)
     4aa:	4798      	blx	r3
}
     4ac:	b003      	add	sp, #12
     4ae:	e8bd 83f0 	ldmia.w	sp!, {r4, r5, r6, r7, r8, r9, pc}
        if(infrared_brute_force_calculate_messages(brute_force) != InfraredErrorCodeNone) {
     4b2:	4620      	mov	r0, r4
     4b4:	4b30      	ldr	r3, [pc, #192]	@ (578 <infrared_cli_brute_force_signals+0x128>)
     4b6:	4798      	blx	r3
     4b8:	4605      	mov	r5, r0
     4ba:	b118      	cbz	r0, 4c4 <infrared_cli_brute_force_signals+0x74>
            printf("Invalid remote name.\r\n");
     4bc:	482f      	ldr	r0, [pc, #188]	@ (57c <infrared_cli_brute_force_signals+0x12c>)
     4be:	4b2a      	ldr	r3, [pc, #168]	@ (568 <infrared_cli_brute_force_signals+0x118>)
     4c0:	4798      	blx	r3
            break;
     4c2:	e7ea      	b.n	49a <infrared_cli_brute_force_signals+0x4a>
        bool running = infrared_brute_force_start(
     4c4:	aa01      	add	r2, sp, #4
     4c6:	2100      	movs	r1, #0
     4c8:	4620      	mov	r0, r4
     4ca:	4b2d      	ldr	r3, [pc, #180]	@ (580 <infrared_cli_brute_force_signals+0x130>)
     4cc:	4798      	blx	r3
     4ce:	4606      	mov	r6, r0
        if(signal_count <= 0) {
     4d0:	9901      	ldr	r1, [sp, #4]
     4d2:	b919      	cbnz	r1, 4dc <infrared_cli_brute_force_signals+0x8c>
            printf("Invalid signal name.\r\n");
     4d4:	482b      	ldr	r0, [pc, #172]	@ (584 <infrared_cli_brute_force_signals+0x134>)
     4d6:	4b24      	ldr	r3, [pc, #144]	@ (568 <infrared_cli_brute_force_signals+0x118>)
     4d8:	4798      	blx	r3
            break;
     4da:	e7de      	b.n	49a <infrared_cli_brute_force_signals+0x4a>
        printf("Sending %lu signal(s)...\r\n", signal_count);
     4dc:	482a      	ldr	r0, [pc, #168]	@ (588 <infrared_cli_brute_force_signals+0x138>)
     4de:	4b2b      	ldr	r3, [pc, #172]	@ (58c <infrared_cli_brute_force_signals+0x13c>)
     4e0:	4798      	blx	r3
        printf("Press Ctrl-C to stop.\r\n");
     4e2:	482b      	ldr	r0, [pc, #172]	@ (590 <infrared_cli_brute_force_signals+0x140>)
     4e4:	4b20      	ldr	r3, [pc, #128]	@ (568 <infrared_cli_brute_force_signals+0x118>)
     4e6:	4798      	blx	r3
        while(running) {
     4e8:	e01c      	b.n	524 <infrared_cli_brute_force_signals+0xd4>
            printf("\r%d%% complete.", (int)((float)current_signal++ / (float)signal_count * 100));
     4ea:	f105 0901 	add.w	r9, r5, #1
     4ee:	ee07 5a90 	vmov	s15, r5
     4f2:	eef8 6a67 	vcvt.f32.u32	s13, s15
     4f6:	eddd 7a01 	vldr	s15, [sp, #4]
     4fa:	eeb8 7a67 	vcvt.f32.u32	s14, s15
     4fe:	eec6 7a87 	vdiv.f32	s15, s13, s14
     502:	ed9f 7a24 	vldr	s14, [pc, #144]	@ 594 <infrared_cli_brute_force_signals+0x144>
     506:	ee67 7a87 	vmul.f32	s15, s15, s14
     50a:	eefd 7ae7 	vcvt.s32.f32	s15, s15
     50e:	ee17 1a90 	vmov	r1, s15
     512:	4821      	ldr	r0, [pc, #132]	@ (598 <infrared_cli_brute_force_signals+0x148>)
     514:	4b1d      	ldr	r3, [pc, #116]	@ (58c <infrared_cli_brute_force_signals+0x13c>)
     516:	4798      	blx	r3
            fflush(stdout);
     518:	4b20      	ldr	r3, [pc, #128]	@ (59c <infrared_cli_brute_force_signals+0x14c>)
     51a:	681b      	ldr	r3, [r3, #0]
     51c:	6898      	ldr	r0, [r3, #8]
     51e:	4b20      	ldr	r3, [pc, #128]	@ (5a0 <infrared_cli_brute_force_signals+0x150>)
     520:	4798      	blx	r3
            printf("\r%d%% complete.", (int)((float)current_signal++ / (float)signal_count * 100));
     522:	464d      	mov	r5, r9
        while(running) {
     524:	b14e      	cbz	r6, 53a <infrared_cli_brute_force_signals+0xea>
            running = infrared_brute_force_send(brute_force, current_signal);
     526:	4629      	mov	r1, r5
     528:	4620      	mov	r0, r4
     52a:	4b1e      	ldr	r3, [pc, #120]	@ (5a4 <infrared_cli_brute_force_signals+0x154>)
     52c:	4798      	blx	r3
     52e:	4606      	mov	r6, r0
            if(cli_is_pipe_broken_or_is_etx_next_char(pipe)) break;
     530:	4638      	mov	r0, r7
     532:	4b1d      	ldr	r3, [pc, #116]	@ (5a8 <infrared_cli_brute_force_signals+0x158>)
     534:	4798      	blx	r3
     536:	2800      	cmp	r0, #0
     538:	d0d7      	beq.n	4ea <infrared_cli_brute_force_signals+0x9a>
        infrared_brute_force_stop(brute_force);
     53a:	4620      	mov	r0, r4
     53c:	4b1b      	ldr	r3, [pc, #108]	@ (5ac <infrared_cli_brute_force_signals+0x15c>)
     53e:	4798      	blx	r3
     540:	e7ab      	b.n	49a <infrared_cli_brute_force_signals+0x4a>
     542:	bf00      	nop
	...
     54c:	00000024 	.word	0x00000024
     550:	0000007c 	.word	0x0000007c
	...
     564:	00000088 	.word	0x00000088
	...
     57c:	00000044 	.word	0x00000044
     580:	00000000 	.word	0x00000000
     584:	000000a0 	.word	0x000000a0
     588:	000000b8 	.word	0x000000b8
     58c:	00000000 	.word	0x00000000
     590:	000000d4 	.word	0x000000d4
     594:	42c80000 	.word	0x42c80000
     598:	000000ec 	.word	0x000000ec
	...

000005b0 <infrared_cli_save_signal>:
    infrared_cli_save_signal(InfraredSignal* signal, FlipperFormat* file, const char* name) {
     5b0:	b510      	push	{r4, lr}
     5b2:	4614      	mov	r4, r2
    InfraredErrorCode error = infrared_signal_save(signal, file, name);
     5b4:	4b07      	ldr	r3, [pc, #28]	@ (5d4 <infrared_cli_save_signal+0x24>)
     5b6:	4798      	blx	r3
    if(INFRARED_ERROR_PRESENT(error)) {
     5b8:	28ff      	cmp	r0, #255	@ 0xff
     5ba:	d801      	bhi.n	5c0 <infrared_cli_save_signal+0x10>
    bool ret = true;
     5bc:	2001      	movs	r0, #1
}
     5be:	bd10      	pop	{r4, pc}
        printf(
     5c0:	b2c3      	uxtb	r3, r0
     5c2:	f020 02ff 	bic.w	r2, r0, #255	@ 0xff
     5c6:	4621      	mov	r1, r4
     5c8:	4803      	ldr	r0, [pc, #12]	@ (5d8 <infrared_cli_save_signal+0x28>)
     5ca:	4c04      	ldr	r4, [pc, #16]	@ (5dc <infrared_cli_save_signal+0x2c>)
     5cc:	47a0      	blx	r4
        ret = false;
     5ce:	2000      	movs	r0, #0
     5d0:	e7f5      	b.n	5be <infrared_cli_save_signal+0xe>
     5d2:	bf00      	nop
     5d4:	00000000 	.word	0x00000000
     5d8:	000000fc 	.word	0x000000fc
     5dc:	00000000 	.word	0x00000000

000005e0 <infrared_cli_decode_raw_signal>:
    const char* signal_name) {
     5e0:	e92d 4ff0 	stmdb	sp!, {r4, r5, r6, r7, r8, r9, sl, fp, lr}
     5e4:	b085      	sub	sp, #20
     5e6:	4607      	mov	r7, r0
     5e8:	4688      	mov	r8, r1
     5ea:	4692      	mov	sl, r2
     5ec:	9303      	str	r3, [sp, #12]
    InfraredSignal* signal = infrared_signal_alloc();
     5ee:	4b33      	ldr	r3, [pc, #204]	@ (6bc <infrared_cli_decode_raw_signal+0xdc>)
     5f0:	4798      	blx	r3
     5f2:	4683      	mov	fp, r0
    for(i = 0; i < raw_signal->timings_size; ++i) {
     5f4:	2400      	movs	r4, #0
    bool ret = false, level = true, is_decoded = false;
     5f6:	46a1      	mov	r9, r4
     5f8:	2601      	movs	r6, #1
    for(i = 0; i < raw_signal->timings_size; ++i) {
     5fa:	e006      	b.n	60a <infrared_cli_decode_raw_signal+0x2a>
            printf(
     5fc:	4830      	ldr	r0, [pc, #192]	@ (6c0 <infrared_cli_decode_raw_signal+0xe0>)
     5fe:	e01c      	b.n	63a <infrared_cli_decode_raw_signal+0x5a>
            is_decoded = true;
     600:	f04f 0901 	mov.w	r9, #1
        level = !level;
     604:	f086 0601 	eor.w	r6, r6, #1
    for(i = 0; i < raw_signal->timings_size; ++i) {
     608:	3401      	adds	r4, #1
     60a:	683b      	ldr	r3, [r7, #0]
     60c:	42a3      	cmp	r3, r4
     60e:	d92f      	bls.n	670 <infrared_cli_decode_raw_signal+0x90>
        const InfraredMessage* message = infrared_decode(decoder, level, raw_signal->timings[i]);
     610:	687b      	ldr	r3, [r7, #4]
     612:	f853 2024 	ldr.w	r2, [r3, r4, lsl #2]
     616:	4631      	mov	r1, r6
     618:	4640      	mov	r0, r8
     61a:	4b2a      	ldr	r3, [pc, #168]	@ (6c4 <infrared_cli_decode_raw_signal+0xe4>)
     61c:	4798      	blx	r3
        if(message) {
     61e:	4605      	mov	r5, r0
     620:	2800      	cmp	r0, #0
     622:	d0ef      	beq.n	604 <infrared_cli_decode_raw_signal+0x24>
            printf(
     624:	f990 0000 	ldrsb.w	r0, [r0]
     628:	4b27      	ldr	r3, [pc, #156]	@ (6c8 <infrared_cli_decode_raw_signal+0xe8>)
     62a:	4798      	blx	r3
     62c:	4601      	mov	r1, r0
                message->address,
     62e:	686a      	ldr	r2, [r5, #4]
                message->command,
     630:	68ab      	ldr	r3, [r5, #8]
                (message->repeat ? "R" : ""));
     632:	7b28      	ldrb	r0, [r5, #12]
            printf(
     634:	2800      	cmp	r0, #0
     636:	d0e1      	beq.n	5fc <infrared_cli_decode_raw_signal+0x1c>
     638:	4824      	ldr	r0, [pc, #144]	@ (6cc <infrared_cli_decode_raw_signal+0xec>)
     63a:	9000      	str	r0, [sp, #0]
     63c:	4824      	ldr	r0, [pc, #144]	@ (6d0 <infrared_cli_decode_raw_signal+0xf0>)
     63e:	f8df 90a8 	ldr.w	r9, [pc, #168]	@ 6e8 <infrared_cli_decode_raw_signal+0x108>
     642:	47c8      	blx	r9
            if(output_file && !message->repeat) {
     644:	f1ba 0f00 	cmp.w	sl, #0
     648:	d0da      	beq.n	600 <infrared_cli_decode_raw_signal+0x20>
     64a:	f895 900c 	ldrb.w	r9, [r5, #12]
     64e:	f1b9 0f00 	cmp.w	r9, #0
     652:	d1d7      	bne.n	604 <infrared_cli_decode_raw_signal+0x24>
                infrared_signal_set_message(signal, message);
     654:	4629      	mov	r1, r5
     656:	4658      	mov	r0, fp
     658:	4b1e      	ldr	r3, [pc, #120]	@ (6d4 <infrared_cli_decode_raw_signal+0xf4>)
     65a:	4798      	blx	r3
                if(!infrared_cli_save_signal(signal, output_file, signal_name)) break;
     65c:	9a03      	ldr	r2, [sp, #12]
     65e:	4651      	mov	r1, sl
     660:	4658      	mov	r0, fp
     662:	4b1d      	ldr	r3, [pc, #116]	@ (6d8 <infrared_cli_decode_raw_signal+0xf8>)
     664:	4798      	blx	r3
     666:	4681      	mov	r9, r0
     668:	2800      	cmp	r0, #0
     66a:	d1cb      	bne.n	604 <infrared_cli_decode_raw_signal+0x24>
            is_decoded = true;
     66c:	f04f 0901 	mov.w	r9, #1
    if(i == raw_signal->timings_size) {
     670:	683a      	ldr	r2, [r7, #0]
     672:	42a2      	cmp	r2, r4
     674:	d00b      	beq.n	68e <infrared_cli_decode_raw_signal+0xae>
    bool ret = false, level = true, is_decoded = false;
     676:	f04f 0900 	mov.w	r9, #0
    infrared_reset_decoder(decoder);
     67a:	4640      	mov	r0, r8
     67c:	4b17      	ldr	r3, [pc, #92]	@ (6dc <infrared_cli_decode_raw_signal+0xfc>)
     67e:	4798      	blx	r3
    infrared_signal_free(signal);
     680:	4658      	mov	r0, fp
     682:	4b17      	ldr	r3, [pc, #92]	@ (6e0 <infrared_cli_decode_raw_signal+0x100>)
     684:	4798      	blx	r3
}
     686:	4648      	mov	r0, r9
     688:	b005      	add	sp, #20
     68a:	e8bd 8ff0 	ldmia.w	sp!, {r4, r5, r6, r7, r8, r9, sl, fp, pc}
        if(!is_decoded && output_file) {
     68e:	f1b9 0f00 	cmp.w	r9, #0
     692:	d1f2      	bne.n	67a <infrared_cli_decode_raw_signal+0x9a>
     694:	f1ba 0f00 	cmp.w	sl, #0
     698:	d00d      	beq.n	6b6 <infrared_cli_decode_raw_signal+0xd6>
            infrared_signal_set_raw_signal(
     69a:	ed97 0a03 	vldr	s0, [r7, #12]
     69e:	68bb      	ldr	r3, [r7, #8]
     6a0:	6879      	ldr	r1, [r7, #4]
     6a2:	4658      	mov	r0, fp
     6a4:	4c0f      	ldr	r4, [pc, #60]	@ (6e4 <infrared_cli_decode_raw_signal+0x104>)
     6a6:	47a0      	blx	r4
            ret = infrared_cli_save_signal(signal, output_file, signal_name);
     6a8:	9a03      	ldr	r2, [sp, #12]
     6aa:	4651      	mov	r1, sl
     6ac:	4658      	mov	r0, fp
     6ae:	4b0a      	ldr	r3, [pc, #40]	@ (6d8 <infrared_cli_decode_raw_signal+0xf8>)
     6b0:	4798      	blx	r3
     6b2:	4681      	mov	r9, r0
     6b4:	e7e1      	b.n	67a <infrared_cli_decode_raw_signal+0x9a>
            ret = true;
     6b6:	f04f 0901 	mov.w	r9, #1
     6ba:	e7de      	b.n	67a <infrared_cli_decode_raw_signal+0x9a>
     6bc:	00000000 	.word	0x00000000
     6c0:	00000138 	.word	0x00000138
	...
     6cc:	00000134 	.word	0x00000134
     6d0:	0000013c 	.word	0x0000013c
	...

000006ec <infrared_cli_decode_file>:
static bool infrared_cli_decode_file(FlipperFormat* input_file, FlipperFormat* output_file) {
     6ec:	e92d 47f0 	stmdb	sp!, {r4, r5, r6, r7, r8, r9, sl, lr}
     6f0:	4607      	mov	r7, r0
     6f2:	460e      	mov	r6, r1
    InfraredSignal* signal = infrared_signal_alloc();
     6f4:	4b2c      	ldr	r3, [pc, #176]	@ (7a8 <infrared_cli_decode_file+0xbc>)
     6f6:	4798      	blx	r3
     6f8:	4604      	mov	r4, r0
    InfraredDecoderHandler* decoder = infrared_alloc_decoder();
     6fa:	4b2c      	ldr	r3, [pc, #176]	@ (7ac <infrared_cli_decode_file+0xc0>)
     6fc:	4798      	blx	r3
     6fe:	4680      	mov	r8, r0
    tmp = furi_string_alloc();
     700:	4b2b      	ldr	r3, [pc, #172]	@ (7b0 <infrared_cli_decode_file+0xc4>)
     702:	4798      	blx	r3
     704:	4605      	mov	r5, r0
    bool ret = false;
     706:	f04f 0900 	mov.w	r9, #0
    while(infrared_signal_read(signal, input_file, tmp) == InfraredErrorCodeNone) {
     70a:	462a      	mov	r2, r5
     70c:	4639      	mov	r1, r7
     70e:	4620      	mov	r0, r4
     710:	4b28      	ldr	r3, [pc, #160]	@ (7b4 <infrared_cli_decode_file+0xc8>)
     712:	4798      	blx	r3
     714:	2800      	cmp	r0, #0
     716:	d144      	bne.n	7a2 <infrared_cli_decode_file+0xb6>
        if(!infrared_signal_is_valid(signal)) {
     718:	4620      	mov	r0, r4
     71a:	4b27      	ldr	r3, [pc, #156]	@ (7b8 <infrared_cli_decode_file+0xcc>)
     71c:	4798      	blx	r3
     71e:	4682      	mov	sl, r0
     720:	b1d8      	cbz	r0, 75a <infrared_cli_decode_file+0x6e>
        if(!infrared_signal_is_raw(signal)) {
     722:	4620      	mov	r0, r4
     724:	4b25      	ldr	r3, [pc, #148]	@ (7bc <infrared_cli_decode_file+0xd0>)
     726:	4798      	blx	r3
     728:	4681      	mov	r9, r0
     72a:	b9f0      	cbnz	r0, 76a <infrared_cli_decode_file+0x7e>
            if(output_file &&
     72c:	b1ce      	cbz	r6, 762 <infrared_cli_decode_file+0x76>
               !infrared_cli_save_signal(signal, output_file, furi_string_get_cstr(tmp))) {
     72e:	4628      	mov	r0, r5
     730:	4b23      	ldr	r3, [pc, #140]	@ (7c0 <infrared_cli_decode_file+0xd4>)
     732:	4798      	blx	r3
     734:	4602      	mov	r2, r0
     736:	4631      	mov	r1, r6
     738:	4620      	mov	r0, r4
     73a:	4b22      	ldr	r3, [pc, #136]	@ (7c4 <infrared_cli_decode_file+0xd8>)
     73c:	4798      	blx	r3
            if(output_file &&
     73e:	4682      	mov	sl, r0
     740:	b978      	cbnz	r0, 762 <infrared_cli_decode_file+0x76>
    infrared_free_decoder(decoder);
     742:	4640      	mov	r0, r8
     744:	4b20      	ldr	r3, [pc, #128]	@ (7c8 <infrared_cli_decode_file+0xdc>)
     746:	4798      	blx	r3
    infrared_signal_free(signal);
     748:	4620      	mov	r0, r4
     74a:	4b20      	ldr	r3, [pc, #128]	@ (7cc <infrared_cli_decode_file+0xe0>)
     74c:	4798      	blx	r3
    furi_string_free(tmp);
     74e:	4628      	mov	r0, r5
     750:	4b1f      	ldr	r3, [pc, #124]	@ (7d0 <infrared_cli_decode_file+0xe4>)
     752:	4798      	blx	r3
}
     754:	4650      	mov	r0, sl
     756:	e8bd 87f0 	ldmia.w	sp!, {r4, r5, r6, r7, r8, r9, sl, pc}
            printf("Invalid signal\r\n");
     75a:	481e      	ldr	r0, [pc, #120]	@ (7d4 <infrared_cli_decode_file+0xe8>)
     75c:	4b1e      	ldr	r3, [pc, #120]	@ (7d8 <infrared_cli_decode_file+0xec>)
     75e:	4798      	blx	r3
            break;
     760:	e7ef      	b.n	742 <infrared_cli_decode_file+0x56>
                printf("Skipping decoded signal\r\n");
     762:	481e      	ldr	r0, [pc, #120]	@ (7dc <infrared_cli_decode_file+0xf0>)
     764:	4b1c      	ldr	r3, [pc, #112]	@ (7d8 <infrared_cli_decode_file+0xec>)
     766:	4798      	blx	r3
                continue;
     768:	e7cf      	b.n	70a <infrared_cli_decode_file+0x1e>
        const InfraredRawSignal* raw_signal = infrared_signal_get_raw_signal(signal);
     76a:	4620      	mov	r0, r4
     76c:	4b1c      	ldr	r3, [pc, #112]	@ (7e0 <infrared_cli_decode_file+0xf4>)
     76e:	4798      	blx	r3
     770:	4681      	mov	r9, r0
        printf(
     772:	4628      	mov	r0, r5
     774:	f8df a048 	ldr.w	sl, [pc, #72]	@ 7c0 <infrared_cli_decode_file+0xd4>
     778:	47d0      	blx	sl
     77a:	4601      	mov	r1, r0
     77c:	f8d9 2000 	ldr.w	r2, [r9]
     780:	4818      	ldr	r0, [pc, #96]	@ (7e4 <infrared_cli_decode_file+0xf8>)
     782:	4b19      	ldr	r3, [pc, #100]	@ (7e8 <infrared_cli_decode_file+0xfc>)
     784:	4798      	blx	r3
        if(!infrared_cli_decode_raw_signal(
     786:	4628      	mov	r0, r5
     788:	47d0      	blx	sl
     78a:	4603      	mov	r3, r0
     78c:	4632      	mov	r2, r6
     78e:	4641      	mov	r1, r8
     790:	4648      	mov	r0, r9
     792:	f8df 9058 	ldr.w	r9, [pc, #88]	@ 7ec <infrared_cli_decode_file+0x100>
     796:	47c8      	blx	r9
     798:	4681      	mov	r9, r0
     79a:	2800      	cmp	r0, #0
     79c:	d1b5      	bne.n	70a <infrared_cli_decode_file+0x1e>
        ret = false;
     79e:	4682      	mov	sl, r0
     7a0:	e7cf      	b.n	742 <infrared_cli_decode_file+0x56>
     7a2:	46ca      	mov	sl, r9
     7a4:	e7cd      	b.n	742 <infrared_cli_decode_file+0x56>
     7a6:	bf00      	nop
	...
     7d4:	0000016c 	.word	0x0000016c
     7d8:	00000000 	.word	0x00000000
     7dc:	0000017c 	.word	0x0000017c
     7e0:	00000000 	.word	0x00000000
     7e4:	00000198 	.word	0x00000198
	...

000007f0 <infrared_cli_parse_message>:
static bool infrared_cli_parse_message(const char* str, InfraredSignal* signal) {
     7f0:	b530      	push	{r4, r5, lr}
     7f2:	b08f      	sub	sp, #60	@ 0x3c
     7f4:	460c      	mov	r4, r1
    int parsed = sscanf(str, "%31s %lX %lX", protocol_name, &message.address, &message.command);
     7f6:	ab04      	add	r3, sp, #16
     7f8:	9300      	str	r3, [sp, #0]
     7fa:	ab03      	add	r3, sp, #12
     7fc:	aa06      	add	r2, sp, #24
     7fe:	490c      	ldr	r1, [pc, #48]	@ (830 <infrared_cli_parse_message+0x40>)
     800:	4d0c      	ldr	r5, [pc, #48]	@ (834 <infrared_cli_parse_message+0x44>)
     802:	47a8      	blx	r5
    if(parsed != 3) {
     804:	2803      	cmp	r0, #3
     806:	d002      	beq.n	80e <infrared_cli_parse_message+0x1e>
        return false;
     808:	2000      	movs	r0, #0
}
     80a:	b00f      	add	sp, #60	@ 0x3c
     80c:	bd30      	pop	{r4, r5, pc}
    message.protocol = infrared_get_protocol_by_name(protocol_name);
     80e:	a806      	add	r0, sp, #24
     810:	4b09      	ldr	r3, [pc, #36]	@ (838 <infrared_cli_parse_message+0x48>)
     812:	4798      	blx	r3
     814:	f88d 0008 	strb.w	r0, [sp, #8]
    message.repeat = false;
     818:	2300      	movs	r3, #0
     81a:	f88d 3014 	strb.w	r3, [sp, #20]
    infrared_signal_set_message(signal, &message);
     81e:	a902      	add	r1, sp, #8
     820:	4620      	mov	r0, r4
     822:	4b06      	ldr	r3, [pc, #24]	@ (83c <infrared_cli_parse_message+0x4c>)
     824:	4798      	blx	r3
    return infrared_signal_is_valid(signal);
     826:	4620      	mov	r0, r4
     828:	4b05      	ldr	r3, [pc, #20]	@ (840 <infrared_cli_parse_message+0x50>)
     82a:	4798      	blx	r3
     82c:	e7ed      	b.n	80a <infrared_cli_parse_message+0x1a>
     82e:	bf00      	nop
     830:	000001b8 	.word	0x000001b8
	...

00000844 <infrared_cli_parse_raw>:
static bool infrared_cli_parse_raw(const char* str, InfraredSignal* signal) {
     844:	b5f0      	push	{r4, r5, r6, r7, lr}
     846:	ed2d 8b02 	vpush	{d8}
     84a:	b08b      	sub	sp, #44	@ 0x2c
     84c:	4604      	mov	r4, r0
     84e:	460e      	mov	r6, r1
    int parsed = sscanf(str, "RAW F:%9s DC:%9s", frequency_str, duty_cycle_str);
     850:	ab04      	add	r3, sp, #16
     852:	aa07      	add	r2, sp, #28
     854:	492a      	ldr	r1, [pc, #168]	@ (900 <infrared_cli_parse_raw+0xbc>)
     856:	4d2b      	ldr	r5, [pc, #172]	@ (904 <infrared_cli_parse_raw+0xc0>)
     858:	47a8      	blx	r5
    if(parsed != 2) {
     85a:	2802      	cmp	r0, #2
     85c:	d004      	beq.n	868 <infrared_cli_parse_raw+0x24>
        return false;
     85e:	2000      	movs	r0, #0
}
     860:	b00b      	add	sp, #44	@ 0x2c
     862:	ecbd 8b02 	vpop	{d8}
     866:	bdf0      	pop	{r4, r5, r6, r7, pc}
    if(strint_to_uint32(frequency_str, NULL, &frequency, 10) != StrintParseNoError ||
     868:	230a      	movs	r3, #10
     86a:	aa03      	add	r2, sp, #12
     86c:	2100      	movs	r1, #0
     86e:	a807      	add	r0, sp, #28
     870:	4d25      	ldr	r5, [pc, #148]	@ (908 <infrared_cli_parse_raw+0xc4>)
     872:	47a8      	blx	r5
     874:	b108      	cbz	r0, 87a <infrared_cli_parse_raw+0x36>
        return false;
     876:	2000      	movs	r0, #0
     878:	e7f2      	b.n	860 <infrared_cli_parse_raw+0x1c>
       strint_to_uint32(duty_cycle_str, NULL, &duty_cycle_u32, 10) != StrintParseNoError)
     87a:	230a      	movs	r3, #10
     87c:	aa02      	add	r2, sp, #8
     87e:	2100      	movs	r1, #0
     880:	a804      	add	r0, sp, #16
     882:	47a8      	blx	r5
    if(strint_to_uint32(frequency_str, NULL, &frequency, 10) != StrintParseNoError ||
     884:	2800      	cmp	r0, #0
     886:	d1f6      	bne.n	876 <infrared_cli_parse_raw+0x32>
    float duty_cycle = duty_cycle_u32 / 100.0f;
     888:	eddd 7a02 	vldr	s15, [sp, #8]
     88c:	eef8 7a67 	vcvt.f32.u32	s15, s15
     890:	ed9f 7a1e 	vldr	s14, [pc, #120]	@ 90c <infrared_cli_parse_raw+0xc8>
     894:	ee87 8a87 	vdiv.f32	s16, s15, s14
    str += strlen(frequency_str) + strlen(duty_cycle_str) + INFRARED_CLI_BUF_SIZE;
     898:	a807      	add	r0, sp, #28
     89a:	4f1d      	ldr	r7, [pc, #116]	@ (910 <infrared_cli_parse_raw+0xcc>)
     89c:	47b8      	blx	r7
     89e:	4605      	mov	r5, r0
     8a0:	a804      	add	r0, sp, #16
     8a2:	47b8      	blx	r7
     8a4:	4405      	add	r5, r0
     8a6:	350a      	adds	r5, #10
     8a8:	442c      	add	r4, r5
    uint32_t* timings = malloc(sizeof(uint32_t) * MAX_TIMINGS_AMOUNT);
     8aa:	f44f 5080 	mov.w	r0, #4096	@ 0x1000
     8ae:	4b19      	ldr	r3, [pc, #100]	@ (914 <infrared_cli_parse_raw+0xd0>)
     8b0:	4798      	blx	r3
     8b2:	4607      	mov	r7, r0
    size_t timings_size = 0;
     8b4:	2500      	movs	r5, #0
     8b6:	e000      	b.n	8ba <infrared_cli_parse_raw+0x76>
            ++str;
     8b8:	3401      	adds	r4, #1
        while(*str == ' ') {
     8ba:	7823      	ldrb	r3, [r4, #0]
     8bc:	2b20      	cmp	r3, #32
     8be:	d0fb      	beq.n	8b8 <infrared_cli_parse_raw+0x74>
        if(strint_to_uint32(str, &next_token, &timing, 10) != StrintParseNoError) {
     8c0:	230a      	movs	r3, #10
     8c2:	466a      	mov	r2, sp
     8c4:	a901      	add	r1, sp, #4
     8c6:	4620      	mov	r0, r4
     8c8:	4c0f      	ldr	r4, [pc, #60]	@ (908 <infrared_cli_parse_raw+0xc4>)
     8ca:	47a0      	blx	r4
     8cc:	b948      	cbnz	r0, 8e2 <infrared_cli_parse_raw+0x9e>
        str = next_token;
     8ce:	9c01      	ldr	r4, [sp, #4]
        if((timing <= 0) || (timings_size >= MAX_TIMINGS_AMOUNT)) {
     8d0:	9b00      	ldr	r3, [sp, #0]
     8d2:	b133      	cbz	r3, 8e2 <infrared_cli_parse_raw+0x9e>
     8d4:	f5b5 6f80 	cmp.w	r5, #1024	@ 0x400
     8d8:	d203      	bcs.n	8e2 <infrared_cli_parse_raw+0x9e>
        timings[timings_size] = timing;
     8da:	f847 3025 	str.w	r3, [r7, r5, lsl #2]
        ++timings_size;
     8de:	3501      	adds	r5, #1
    while(1) {
     8e0:	e7eb      	b.n	8ba <infrared_cli_parse_raw+0x76>
    infrared_signal_set_raw_signal(signal, timings, timings_size, frequency, duty_cycle);
     8e2:	eeb0 0a48 	vmov.f32	s0, s16
     8e6:	9b03      	ldr	r3, [sp, #12]
     8e8:	462a      	mov	r2, r5
     8ea:	4639      	mov	r1, r7
     8ec:	4630      	mov	r0, r6
     8ee:	4c0a      	ldr	r4, [pc, #40]	@ (918 <infrared_cli_parse_raw+0xd4>)
     8f0:	47a0      	blx	r4
    free(timings);
     8f2:	4638      	mov	r0, r7
     8f4:	4b09      	ldr	r3, [pc, #36]	@ (91c <infrared_cli_parse_raw+0xd8>)
     8f6:	4798      	blx	r3
    return infrared_signal_is_valid(signal);
     8f8:	4630      	mov	r0, r6
     8fa:	4b09      	ldr	r3, [pc, #36]	@ (920 <infrared_cli_parse_raw+0xdc>)
     8fc:	4798      	blx	r3
     8fe:	e7af      	b.n	860 <infrared_cli_parse_raw+0x1c>
     900:	000001c8 	.word	0x000001c8
	...
     90c:	42c80000 	.word	0x42c80000
	...

00000924 <signal_received_callback>:
static void signal_received_callback(void* context, InfraredWorkerSignal* received_signal) {
     924:	e92d 41f0 	stmdb	sp!, {r4, r5, r6, r7, r8, lr}
     928:	b0a2      	sub	sp, #136	@ 0x88
    furi_assert(received_signal);
     92a:	2900      	cmp	r1, #0
     92c:	d044      	beq.n	9b8 <signal_received_callback+0x94>
     92e:	4605      	mov	r5, r0
     930:	460c      	mov	r4, r1
    if(infrared_worker_signal_is_decoded(received_signal)) {
     932:	4608      	mov	r0, r1
     934:	4b3d      	ldr	r3, [pc, #244]	@ (a2c <sukima3371+0x70>)
     936:	4798      	blx	r3
     938:	2800      	cmp	r0, #0
     93a:	d047      	beq.n	9cc <sukima3371+0x10>
        const InfraredMessage* message = infrared_worker_get_decoded_signal(received_signal);
     93c:	4620      	mov	r0, r4
     93e:	4b3c      	ldr	r3, [pc, #240]	@ (a30 <sukima3371+0x74>)
     940:	4798      	blx	r3
     942:	4606      	mov	r6, r0
        buf_cnt = snprintf(
     944:	f990 0000 	ldrsb.w	r0, [r0]
     948:	4b3a      	ldr	r3, [pc, #232]	@ (a34 <sukima3371+0x78>)
     94a:	4798      	blx	r3
     94c:	4607      	mov	r7, r0
            ROUND_UP_TO(infrared_get_protocol_address_length(message->protocol), 4),
     94e:	f996 0000 	ldrsb.w	r0, [r6]
     952:	4b39      	ldr	r3, [pc, #228]	@ (a38 <sukima3371+0x7c>)
     954:	4798      	blx	r3
     956:	4603      	mov	r3, r0
     958:	2800      	cmp	r0, #0
     95a:	db31      	blt.n	9c0 <sukima3371+0x4>
     95c:	f010 0003 	ands.w	r0, r0, #3
     960:	bf18      	it	ne
     962:	2001      	movne	r0, #1
     964:	eb00 04a3 	add.w	r4, r0, r3, asr #2
            message->address,
     968:	f8d6 8004 	ldr.w	r8, [r6, #4]
            ROUND_UP_TO(infrared_get_protocol_command_length(message->protocol), 4),
     96c:	f996 0000 	ldrsb.w	r0, [r6]
     970:	4b32      	ldr	r3, [pc, #200]	@ (a3c <sukima3371+0x80>)
     972:	4798      	blx	r3
     974:	4602      	mov	r2, r0
     976:	4603      	mov	r3, r0
     978:	2800      	cmp	r0, #0
     97a:	db23      	blt.n	9c4 <sukima3371+0x8>
     97c:	f012 0203 	ands.w	r2, r2, #3
     980:	bf18      	it	ne
     982:	2201      	movne	r2, #1
     984:	eb02 02a3 	add.w	r2, r2, r3, asr #2
            message->command,
     988:	68b3      	ldr	r3, [r6, #8]
            message->repeat ? " R" : "");
     98a:	7b31      	ldrb	r1, [r6, #12]
        buf_cnt = snprintf(
     98c:	b1e1      	cbz	r1, 9c8 <sukima3371+0xc>
     98e:	492c      	ldr	r1, [pc, #176]	@ (a40 <sukima3371+0x84>)
     990:	9104      	str	r1, [sp, #16]
     992:	9303      	str	r3, [sp, #12]
     994:	9202      	str	r2, [sp, #8]
     996:	f8cd 8004 	str.w	r8, [sp, #4]
     99a:	9400      	str	r4, [sp, #0]
     99c:	463b      	mov	r3, r7
     99e:	4a29      	ldr	r2, [pc, #164]	@ (a44 <sukima3371+0x88>)
     9a0:	2164      	movs	r1, #100	@ 0x64
     9a2:	a809      	add	r0, sp, #36	@ 0x24
     9a4:	4c28      	ldr	r4, [pc, #160]	@ (a48 <sukima3371+0x8c>)
     9a6:	47a0      	blx	r4
     9a8:	4602      	mov	r2, r0
        pipe_send(pipe, buf, buf_cnt);
     9aa:	a909      	add	r1, sp, #36	@ 0x24
     9ac:	4628      	mov	r0, r5
     9ae:	4b27      	ldr	r3, [pc, #156]	@ (a4c <sukima3371+0x90>)
     9b0:	4798      	blx	r3
}
     9b2:	b022      	add	sp, #136	@ 0x88
     9b4:	e8bd 81f0 	ldmia.w	sp!, {r4, r5, r6, r7, r8, pc}
    furi_assert(received_signal);
     9b8:	f04f 0c01 	mov.w	ip, #1

000009bc <sukima3371>:
     9bc:	4b24      	ldr	r3, [pc, #144]	@ (a50 <sukima3371+0x94>)
     9be:	4798      	blx	r3
            ROUND_UP_TO(infrared_get_protocol_address_length(message->protocol), 4),
     9c0:	1cc3      	adds	r3, r0, #3
     9c2:	e7cb      	b.n	95c <signal_received_callback+0x38>
            ROUND_UP_TO(infrared_get_protocol_command_length(message->protocol), 4),
     9c4:	1cc3      	adds	r3, r0, #3
     9c6:	e7d9      	b.n	97c <signal_received_callback+0x58>
        buf_cnt = snprintf(
     9c8:	4922      	ldr	r1, [pc, #136]	@ (a54 <sukima3371+0x98>)
     9ca:	e7e1      	b.n	990 <signal_received_callback+0x6c>
        infrared_worker_get_raw_signal(received_signal, &timings, &timings_cnt);
     9cc:	aa08      	add	r2, sp, #32
     9ce:	a907      	add	r1, sp, #28
     9d0:	4620      	mov	r0, r4
     9d2:	4b21      	ldr	r3, [pc, #132]	@ (a58 <sukima3371+0x9c>)
     9d4:	4798      	blx	r3
        buf_cnt = snprintf(buf, sizeof(buf), "RAW, %zu samples:\r\n", timings_cnt);
     9d6:	9b08      	ldr	r3, [sp, #32]
     9d8:	4a20      	ldr	r2, [pc, #128]	@ (a5c <sukima3371+0xa0>)
     9da:	2164      	movs	r1, #100	@ 0x64
     9dc:	a809      	add	r0, sp, #36	@ 0x24
     9de:	4c1a      	ldr	r4, [pc, #104]	@ (a48 <sukima3371+0x8c>)
     9e0:	47a0      	blx	r4
     9e2:	4602      	mov	r2, r0
        pipe_send(pipe, buf, buf_cnt);
     9e4:	a909      	add	r1, sp, #36	@ 0x24
     9e6:	4628      	mov	r0, r5
     9e8:	4b18      	ldr	r3, [pc, #96]	@ (a4c <sukima3371+0x90>)
     9ea:	4798      	blx	r3
        for(size_t i = 0; i < timings_cnt; ++i) {
     9ec:	2400      	movs	r4, #0
     9ee:	e00d      	b.n	a0c <sukima3371+0x50>
            buf_cnt = snprintf(buf, sizeof(buf), "%lu ", timings[i]);
     9f0:	9b07      	ldr	r3, [sp, #28]
     9f2:	f853 3024 	ldr.w	r3, [r3, r4, lsl #2]
     9f6:	4a1a      	ldr	r2, [pc, #104]	@ (a60 <sukima3371+0xa4>)
     9f8:	2164      	movs	r1, #100	@ 0x64
     9fa:	a809      	add	r0, sp, #36	@ 0x24
     9fc:	4e12      	ldr	r6, [pc, #72]	@ (a48 <sukima3371+0x8c>)
     9fe:	47b0      	blx	r6
     a00:	4602      	mov	r2, r0
            pipe_send(pipe, buf, buf_cnt);
     a02:	a909      	add	r1, sp, #36	@ 0x24
     a04:	4628      	mov	r0, r5
     a06:	4b11      	ldr	r3, [pc, #68]	@ (a4c <sukima3371+0x90>)
     a08:	4798      	blx	r3
        for(size_t i = 0; i < timings_cnt; ++i) {
     a0a:	3401      	adds	r4, #1
     a0c:	9b08      	ldr	r3, [sp, #32]
     a0e:	42a3      	cmp	r3, r4
     a10:	d8ee      	bhi.n	9f0 <sukima3371+0x34>
        buf_cnt = snprintf(buf, sizeof(buf), "\r\n");
     a12:	4b14      	ldr	r3, [pc, #80]	@ (a64 <sukima3371+0xa8>)
     a14:	681b      	ldr	r3, [r3, #0]
     a16:	f8ad 3024 	strh.w	r3, [sp, #36]	@ 0x24
     a1a:	0c1b      	lsrs	r3, r3, #16
     a1c:	f88d 3026 	strb.w	r3, [sp, #38]	@ 0x26
        pipe_send(pipe, buf, buf_cnt);
     a20:	2202      	movs	r2, #2
     a22:	a909      	add	r1, sp, #36	@ 0x24
     a24:	4628      	mov	r0, r5
     a26:	4b09      	ldr	r3, [pc, #36]	@ (a4c <sukima3371+0x90>)
     a28:	4798      	blx	r3
}
     a2a:	e7c2      	b.n	9b2 <signal_received_callback+0x8e>
	...
     a40:	000001dc 	.word	0x000001dc
     a44:	000001e0 	.word	0x000001e0
	...
     a54:	00000138 	.word	0x00000138
     a58:	00000000 	.word	0x00000000
     a5c:	00000200 	.word	0x00000200
     a60:	00000214 	.word	0x00000214
     a64:	0000021c 	.word	0x0000021c

00000a68 <infrared_cli_print_universal_remotes>:
static void infrared_cli_print_universal_remotes(void) {
     a68:	b530      	push	{r4, r5, lr}
     a6a:	b0c5      	sub	sp, #276	@ 0x114
    Storage* storage = furi_record_open(RECORD_STORAGE);
     a6c:	481a      	ldr	r0, [pc, #104]	@ (ad8 <infrared_cli_print_universal_remotes+0x70>)
     a6e:	4b1b      	ldr	r3, [pc, #108]	@ (adc <infrared_cli_print_universal_remotes+0x74>)
     a70:	4798      	blx	r3
    File* dir = storage_file_alloc(storage);
     a72:	4b1b      	ldr	r3, [pc, #108]	@ (ae0 <infrared_cli_print_universal_remotes+0x78>)
     a74:	4798      	blx	r3
     a76:	4605      	mov	r5, r0
        if(!storage_dir_open(dir, INFRARED_ASSETS_FOLDER)) break;
     a78:	491a      	ldr	r1, [pc, #104]	@ (ae4 <infrared_cli_print_universal_remotes+0x7c>)
     a7a:	4b1b      	ldr	r3, [pc, #108]	@ (ae8 <infrared_cli_print_universal_remotes+0x80>)
     a7c:	4798      	blx	r3
     a7e:	b310      	cbz	r0, ac6 <infrared_cli_print_universal_remotes+0x5e>
        while(storage_dir_read(dir, &file_info, file_name, sizeof(file_name))) {
     a80:	f44f 7380 	mov.w	r3, #256	@ 0x100
     a84:	aa04      	add	r2, sp, #16
     a86:	4669      	mov	r1, sp
     a88:	4628      	mov	r0, r5
     a8a:	4c18      	ldr	r4, [pc, #96]	@ (aec <infrared_cli_print_universal_remotes+0x84>)
     a8c:	47a0      	blx	r4
     a8e:	b1b8      	cbz	r0, ac0 <infrared_cli_print_universal_remotes+0x58>
            if(file_info.flags & FSF_DIRECTORY) {
     a90:	f89d 3000 	ldrb.w	r3, [sp]
     a94:	f013 0f01 	tst.w	r3, #1
     a98:	d1f2      	bne.n	a80 <infrared_cli_print_universal_remotes+0x18>
            char* file_ext = strstr(file_name, INFRARED_FILE_EXTENSION);
     a9a:	4915      	ldr	r1, [pc, #84]	@ (af0 <infrared_cli_print_universal_remotes+0x88>)
     a9c:	a804      	add	r0, sp, #16
     a9e:	4b15      	ldr	r3, [pc, #84]	@ (af4 <infrared_cli_print_universal_remotes+0x8c>)
     aa0:	4798      	blx	r3
            if((file_ext == NULL) || (strcmp(file_ext, INFRARED_FILE_EXTENSION) != 0)) {
     aa2:	4604      	mov	r4, r0
     aa4:	2800      	cmp	r0, #0
     aa6:	d0eb      	beq.n	a80 <infrared_cli_print_universal_remotes+0x18>
     aa8:	4911      	ldr	r1, [pc, #68]	@ (af0 <infrared_cli_print_universal_remotes+0x88>)
     aaa:	4b13      	ldr	r3, [pc, #76]	@ (af8 <infrared_cli_print_universal_remotes+0x90>)
     aac:	4798      	blx	r3
     aae:	2800      	cmp	r0, #0
     ab0:	d1e6      	bne.n	a80 <infrared_cli_print_universal_remotes+0x18>
            *file_ext = '\0';
     ab2:	2300      	movs	r3, #0
     ab4:	7023      	strb	r3, [r4, #0]
            printf("%s ", file_name);
     ab6:	a904      	add	r1, sp, #16
     ab8:	4810      	ldr	r0, [pc, #64]	@ (afc <infrared_cli_print_universal_remotes+0x94>)
     aba:	4b11      	ldr	r3, [pc, #68]	@ (b00 <infrared_cli_print_universal_remotes+0x98>)
     abc:	4798      	blx	r3
     abe:	e7df      	b.n	a80 <infrared_cli_print_universal_remotes+0x18>
        printf("\r\n");
     ac0:	4810      	ldr	r0, [pc, #64]	@ (b04 <infrared_cli_print_universal_remotes+0x9c>)
     ac2:	4b11      	ldr	r3, [pc, #68]	@ (b08 <infrared_cli_print_universal_remotes+0xa0>)
     ac4:	4798      	blx	r3
    storage_file_free(dir);
     ac6:	4628      	mov	r0, r5
     ac8:	4b10      	ldr	r3, [pc, #64]	@ (b0c <infrared_cli_print_universal_remotes+0xa4>)
     aca:	4798      	blx	r3
    furi_record_close(RECORD_STORAGE);
     acc:	4802      	ldr	r0, [pc, #8]	@ (ad8 <infrared_cli_print_universal_remotes+0x70>)
     ace:	4b10      	ldr	r3, [pc, #64]	@ (b10 <infrared_cli_print_universal_remotes+0xa8>)
     ad0:	4798      	blx	r3
}
     ad2:	b045      	add	sp, #276	@ 0x114
     ad4:	bd30      	pop	{r4, r5, pc}
     ad6:	bf00      	nop
     ad8:	00000018 	.word	0x00000018
	...
     ae4:	00000024 	.word	0x00000024
	...
     af0:	00000020 	.word	0x00000020
	...
     afc:	00000220 	.word	0x00000220
     b00:	00000000 	.word	0x00000000
     b04:	00000224 	.word	0x00000224
	...

00000b14 <infrared_cli_print_usage>:
static void infrared_cli_print_usage(void) {
     b14:	b538      	push	{r3, r4, r5, lr}
    printf("Usage:\r\n");
     b16:	481a      	ldr	r0, [pc, #104]	@ (b80 <infrared_cli_print_usage+0x6c>)
     b18:	4c1a      	ldr	r4, [pc, #104]	@ (b84 <infrared_cli_print_usage+0x70>)
     b1a:	47a0      	blx	r4
    printf("\tir rx [raw]\r\n");
     b1c:	481a      	ldr	r0, [pc, #104]	@ (b88 <infrared_cli_print_usage+0x74>)
     b1e:	47a0      	blx	r4
    printf("\tir tx <protocol> <address> <command>\r\n");
     b20:	481a      	ldr	r0, [pc, #104]	@ (b8c <infrared_cli_print_usage+0x78>)
     b22:	47a0      	blx	r4
    printf("\t<command> and <address> are hex-formatted\r\n");
     b24:	481a      	ldr	r0, [pc, #104]	@ (b90 <infrared_cli_print_usage+0x7c>)
     b26:	47a0      	blx	r4
    printf("\tAvailable protocols:");
     b28:	481a      	ldr	r0, [pc, #104]	@ (b94 <infrared_cli_print_usage+0x80>)
     b2a:	4b1b      	ldr	r3, [pc, #108]	@ (b98 <infrared_cli_print_usage+0x84>)
     b2c:	4798      	blx	r3
    for(int i = 0; infrared_is_protocol_valid((InfraredProtocol)i); ++i) {
     b2e:	2400      	movs	r4, #0
     b30:	e007      	b.n	b42 <infrared_cli_print_usage+0x2e>
        printf(" %s", infrared_get_protocol_name((InfraredProtocol)i));
     b32:	4628      	mov	r0, r5
     b34:	4b19      	ldr	r3, [pc, #100]	@ (b9c <infrared_cli_print_usage+0x88>)
     b36:	4798      	blx	r3
     b38:	4601      	mov	r1, r0
     b3a:	4819      	ldr	r0, [pc, #100]	@ (ba0 <infrared_cli_print_usage+0x8c>)
     b3c:	4b16      	ldr	r3, [pc, #88]	@ (b98 <infrared_cli_print_usage+0x84>)
     b3e:	4798      	blx	r3
    for(int i = 0; infrared_is_protocol_valid((InfraredProtocol)i); ++i) {
     b40:	3401      	adds	r4, #1
     b42:	b265      	sxtb	r5, r4
     b44:	4628      	mov	r0, r5
     b46:	4b17      	ldr	r3, [pc, #92]	@ (ba4 <infrared_cli_print_usage+0x90>)
     b48:	4798      	blx	r3
     b4a:	2800      	cmp	r0, #0
     b4c:	d1f1      	bne.n	b32 <infrared_cli_print_usage+0x1e>
    printf("\r\n");
     b4e:	4816      	ldr	r0, [pc, #88]	@ (ba8 <infrared_cli_print_usage+0x94>)
     b50:	4c0c      	ldr	r4, [pc, #48]	@ (b84 <infrared_cli_print_usage+0x70>)
     b52:	47a0      	blx	r4
    printf("\tRaw format:\r\n");
     b54:	4815      	ldr	r0, [pc, #84]	@ (bac <infrared_cli_print_usage+0x98>)
     b56:	47a0      	blx	r4
    printf("\tir tx RAW F:<frequency> DC:<duty_cycle> <sample0> <sample1>...\r\n");
     b58:	4815      	ldr	r0, [pc, #84]	@ (bb0 <infrared_cli_print_usage+0x9c>)
     b5a:	47a0      	blx	r4
    printf(
     b5c:	4a15      	ldr	r2, [pc, #84]	@ (bb4 <infrared_cli_print_usage+0xa0>)
     b5e:	f242 7110 	movw	r1, #10000	@ 0x2710
     b62:	4815      	ldr	r0, [pc, #84]	@ (bb8 <infrared_cli_print_usage+0xa4>)
     b64:	4d0c      	ldr	r5, [pc, #48]	@ (b98 <infrared_cli_print_usage+0x84>)
     b66:	47a8      	blx	r5
    printf("\tir decode <input_file> [<output_file>]\r\n");
     b68:	4814      	ldr	r0, [pc, #80]	@ (bbc <infrared_cli_print_usage+0xa8>)
     b6a:	47a0      	blx	r4
    printf("\tir universal <remote_name> <signal_name>\r\n");
     b6c:	4814      	ldr	r0, [pc, #80]	@ (bc0 <infrared_cli_print_usage+0xac>)
     b6e:	47a0      	blx	r4
    printf("\tir universal list <remote_name>\r\n");
     b70:	4814      	ldr	r0, [pc, #80]	@ (bc4 <infrared_cli_print_usage+0xb0>)
     b72:	47a0      	blx	r4
    printf("\tAvailable universal remotes: ");
     b74:	4814      	ldr	r0, [pc, #80]	@ (bc8 <infrared_cli_print_usage+0xb4>)
     b76:	47a8      	blx	r5
    infrared_cli_print_universal_remotes();
     b78:	4b14      	ldr	r3, [pc, #80]	@ (bcc <infrared_cli_print_usage+0xb8>)
     b7a:	4798      	blx	r3
}
     b7c:	bd38      	pop	{r3, r4, r5, pc}
     b7e:	bf00      	nop
     b80:	00000228 	.word	0x00000228
     b84:	00000000 	.word	0x00000000
     b88:	00000230 	.word	0x00000230
     b8c:	00000240 	.word	0x00000240
     b90:	00000268 	.word	0x00000268
     b94:	00000294 	.word	0x00000294
	...
     ba0:	000002ac 	.word	0x000002ac
     ba4:	00000000 	.word	0x00000000
     ba8:	00000224 	.word	0x00000224
     bac:	000002b0 	.word	0x000002b0
     bb0:	000002c0 	.word	0x000002c0
     bb4:	000f4240 	.word	0x000f4240
     bb8:	00000304 	.word	0x00000304
     bbc:	00000344 	.word	0x00000344
     bc0:	00000370 	.word	0x00000370
     bc4:	0000039c 	.word	0x0000039c
     bc8:	000003c0 	.word	0x000003c0
     bcc:	00000000 	.word	0x00000000

00000bd0 <execute>:

    furi_string_free(arg1);
    furi_string_free(arg2);
}

static void execute(PipeSide* pipe, FuriString* args, void* context) {
     bd0:	e92d 43f8 	stmdb	sp!, {r3, r4, r5, r6, r7, r8, r9, lr}
     bd4:	4681      	mov	r9, r0
     bd6:	4688      	mov	r8, r1
    UNUSED(context);
    if(furi_hal_infrared_is_busy()) {
     bd8:	4b19      	ldr	r3, [pc, #100]	@ (c40 <execute+0x70>)
     bda:	4798      	blx	r3
     bdc:	b9d0      	cbnz	r0, c14 <execute+0x44>
        printf("INFRARED is busy. Exiting.");
        return;
    }

    FuriString* command;
    command = furi_string_alloc();
     bde:	4b19      	ldr	r3, [pc, #100]	@ (c44 <execute+0x74>)
     be0:	4798      	blx	r3
     be2:	4607      	mov	r7, r0
    args_read_string_and_trim(args, command);
     be4:	4601      	mov	r1, r0
     be6:	4640      	mov	r0, r8
     be8:	4b17      	ldr	r3, [pc, #92]	@ (c48 <execute+0x78>)
     bea:	4798      	blx	r3

    size_t i = 0;
     bec:	2400      	movs	r4, #0
    for(; i < COUNT_OF(infrared_cli_commands); ++i) {
     bee:	2c03      	cmp	r4, #3
     bf0:	d814      	bhi.n	c1c <execute+0x4c>
        size_t cmd_len = strlen(infrared_cli_commands[i].cmd);
     bf2:	4b16      	ldr	r3, [pc, #88]	@ (c4c <execute+0x7c>)
     bf4:	f853 6034 	ldr.w	r6, [r3, r4, lsl #3]
     bf8:	4630      	mov	r0, r6
     bfa:	4b15      	ldr	r3, [pc, #84]	@ (c50 <execute+0x80>)
     bfc:	4798      	blx	r3
     bfe:	4605      	mov	r5, r0
        if(!strncmp(furi_string_get_cstr(command), infrared_cli_commands[i].cmd, cmd_len)) {
     c00:	4638      	mov	r0, r7
     c02:	4b14      	ldr	r3, [pc, #80]	@ (c54 <execute+0x84>)
     c04:	4798      	blx	r3
     c06:	462a      	mov	r2, r5
     c08:	4631      	mov	r1, r6
     c0a:	4b13      	ldr	r3, [pc, #76]	@ (c58 <execute+0x88>)
     c0c:	4798      	blx	r3
     c0e:	b128      	cbz	r0, c1c <execute+0x4c>
    for(; i < COUNT_OF(infrared_cli_commands); ++i) {
     c10:	3401      	adds	r4, #1
     c12:	e7ec      	b.n	bee <execute+0x1e>
        printf("INFRARED is busy. Exiting.");
     c14:	4811      	ldr	r0, [pc, #68]	@ (c5c <execute+0x8c>)
     c16:	4b12      	ldr	r3, [pc, #72]	@ (c60 <execute+0x90>)
     c18:	4798      	blx	r3
        return;
     c1a:	e00b      	b.n	c34 <execute+0x64>
            break;
        }
    }

    if(i < COUNT_OF(infrared_cli_commands)) {
     c1c:	2c03      	cmp	r4, #3
     c1e:	d80b      	bhi.n	c38 <execute+0x68>
        infrared_cli_commands[i].process_function(pipe, args);
     c20:	4b0a      	ldr	r3, [pc, #40]	@ (c4c <execute+0x7c>)
     c22:	eb03 03c4 	add.w	r3, r3, r4, lsl #3
     c26:	685b      	ldr	r3, [r3, #4]
     c28:	4641      	mov	r1, r8
     c2a:	4648      	mov	r0, r9
     c2c:	4798      	blx	r3
    } else {
        infrared_cli_print_usage();
    }

    furi_string_free(command);
     c2e:	4638      	mov	r0, r7
     c30:	4b0c      	ldr	r3, [pc, #48]	@ (c64 <execute+0x94>)
     c32:	4798      	blx	r3
}
     c34:	e8bd 83f8 	ldmia.w	sp!, {r3, r4, r5, r6, r7, r8, r9, pc}
        infrared_cli_print_usage();
     c38:	4b0b      	ldr	r3, [pc, #44]	@ (c68 <execute+0x98>)
     c3a:	4798      	blx	r3
     c3c:	e7f7      	b.n	c2e <execute+0x5e>
     c3e:	bf00      	nop
	...
     c4c:	00000578 	.word	0x00000578
	...
     c5c:	000003e0 	.word	0x000003e0
	...

00000c6c <infrared_cli_process_universal>:
static void infrared_cli_process_universal(PipeSide* pipe, FuriString* args) {
     c6c:	b5f8      	push	{r3, r4, r5, r6, r7, lr}
     c6e:	4607      	mov	r7, r0
     c70:	460e      	mov	r6, r1
    FuriString* arg1 = furi_string_alloc();
     c72:	4d16      	ldr	r5, [pc, #88]	@ (ccc <infrared_cli_process_universal+0x60>)
     c74:	47a8      	blx	r5
     c76:	4604      	mov	r4, r0
    FuriString* arg2 = furi_string_alloc();
     c78:	47a8      	blx	r5
     c7a:	4605      	mov	r5, r0
        if(!args_read_string_and_trim(args, arg1)) break;
     c7c:	4621      	mov	r1, r4
     c7e:	4630      	mov	r0, r6
     c80:	4b13      	ldr	r3, [pc, #76]	@ (cd0 <infrared_cli_process_universal+0x64>)
     c82:	4798      	blx	r3
     c84:	b970      	cbnz	r0, ca4 <infrared_cli_process_universal+0x38>
    if(furi_string_empty(arg1)) {
     c86:	4620      	mov	r0, r4
     c88:	4b12      	ldr	r3, [pc, #72]	@ (cd4 <infrared_cli_process_universal+0x68>)
     c8a:	4798      	blx	r3
     c8c:	b178      	cbz	r0, cae <infrared_cli_process_universal+0x42>
        printf("Wrong arguments.\r\n");
     c8e:	4812      	ldr	r0, [pc, #72]	@ (cd8 <infrared_cli_process_universal+0x6c>)
     c90:	4b12      	ldr	r3, [pc, #72]	@ (cdc <infrared_cli_process_universal+0x70>)
     c92:	4798      	blx	r3
        infrared_cli_print_usage();
     c94:	4b12      	ldr	r3, [pc, #72]	@ (ce0 <infrared_cli_process_universal+0x74>)
     c96:	4798      	blx	r3
    furi_string_free(arg1);
     c98:	4620      	mov	r0, r4
     c9a:	4c12      	ldr	r4, [pc, #72]	@ (ce4 <infrared_cli_process_universal+0x78>)
     c9c:	47a0      	blx	r4
    furi_string_free(arg2);
     c9e:	4628      	mov	r0, r5
     ca0:	47a0      	blx	r4
}
     ca2:	bdf8      	pop	{r3, r4, r5, r6, r7, pc}
        if(!args_read_string_and_trim(args, arg2)) break;
     ca4:	4629      	mov	r1, r5
     ca6:	4630      	mov	r0, r6
     ca8:	4b09      	ldr	r3, [pc, #36]	@ (cd0 <infrared_cli_process_universal+0x64>)
     caa:	4798      	blx	r3
     cac:	e7eb      	b.n	c86 <infrared_cli_process_universal+0x1a>
    } else if(furi_string_equal_str(arg1, "list")) {
     cae:	490e      	ldr	r1, [pc, #56]	@ (ce8 <infrared_cli_process_universal+0x7c>)
     cb0:	4620      	mov	r0, r4
     cb2:	4b0e      	ldr	r3, [pc, #56]	@ (cec <infrared_cli_process_universal+0x80>)
     cb4:	4798      	blx	r3
     cb6:	b118      	cbz	r0, cc0 <infrared_cli_process_universal+0x54>
        infrared_cli_list_remote_signals(arg2);
     cb8:	4628      	mov	r0, r5
     cba:	4b0d      	ldr	r3, [pc, #52]	@ (cf0 <infrared_cli_process_universal+0x84>)
     cbc:	4798      	blx	r3
     cbe:	e7eb      	b.n	c98 <infrared_cli_process_universal+0x2c>
        infrared_cli_brute_force_signals(pipe, arg1, arg2);
     cc0:	462a      	mov	r2, r5
     cc2:	4621      	mov	r1, r4
     cc4:	4638      	mov	r0, r7
     cc6:	4b0b      	ldr	r3, [pc, #44]	@ (cf4 <infrared_cli_process_universal+0x88>)
     cc8:	4798      	blx	r3
     cca:	e7e5      	b.n	c98 <infrared_cli_process_universal+0x2c>
	...
     cd8:	000003fc 	.word	0x000003fc
	...
     ce8:	00000410 	.word	0x00000410
	...

00000cf8 <infrared_cli_process_decode>:
static void infrared_cli_process_decode(PipeSide* pipe, FuriString* args) {
     cf8:	e92d 4ff0 	stmdb	sp!, {r4, r5, r6, r7, r8, r9, sl, fp, lr}
     cfc:	b083      	sub	sp, #12
     cfe:	4688      	mov	r8, r1
    Storage* storage = furi_record_open(RECORD_STORAGE);
     d00:	4850      	ldr	r0, [pc, #320]	@ (e44 <infrared_cli_process_decode+0x14c>)
     d02:	4b51      	ldr	r3, [pc, #324]	@ (e48 <infrared_cli_process_decode+0x150>)
     d04:	4798      	blx	r3
     d06:	4683      	mov	fp, r0
    FlipperFormat* input_file = flipper_format_buffered_file_alloc(storage);
     d08:	4b50      	ldr	r3, [pc, #320]	@ (e4c <infrared_cli_process_decode+0x154>)
     d0a:	4798      	blx	r3
     d0c:	4606      	mov	r6, r0
    tmp = furi_string_alloc();
     d0e:	4d50      	ldr	r5, [pc, #320]	@ (e50 <infrared_cli_process_decode+0x158>)
     d10:	47a8      	blx	r5
     d12:	4682      	mov	sl, r0
    header = furi_string_alloc();
     d14:	47a8      	blx	r5
     d16:	4681      	mov	r9, r0
    input_path = furi_string_alloc();
     d18:	47a8      	blx	r5
     d1a:	4604      	mov	r4, r0
    output_path = furi_string_alloc();
     d1c:	47a8      	blx	r5
     d1e:	4607      	mov	r7, r0
        if(!args_read_probably_quoted_string_and_trim(args, input_path)) {
     d20:	4621      	mov	r1, r4
     d22:	4640      	mov	r0, r8
     d24:	4b4b      	ldr	r3, [pc, #300]	@ (e54 <infrared_cli_process_decode+0x15c>)
     d26:	4798      	blx	r3
     d28:	b9f0      	cbnz	r0, d68 <infrared_cli_process_decode+0x70>
            printf("Wrong arguments.\r\n");
     d2a:	484b      	ldr	r0, [pc, #300]	@ (e58 <infrared_cli_process_decode+0x160>)
     d2c:	4b4b      	ldr	r3, [pc, #300]	@ (e5c <infrared_cli_process_decode+0x164>)
     d2e:	4798      	blx	r3
            infrared_cli_print_usage();
     d30:	4b4b      	ldr	r3, [pc, #300]	@ (e60 <infrared_cli_process_decode+0x168>)
     d32:	4798      	blx	r3
    FlipperFormat* output_file = NULL;
     d34:	f04f 0800 	mov.w	r8, #0
    furi_string_free(tmp);
     d38:	4650      	mov	r0, sl
     d3a:	4d4a      	ldr	r5, [pc, #296]	@ (e64 <infrared_cli_process_decode+0x16c>)
     d3c:	47a8      	blx	r5
    furi_string_free(header);
     d3e:	4648      	mov	r0, r9
     d40:	47a8      	blx	r5
    furi_string_free(input_path);
     d42:	4620      	mov	r0, r4
     d44:	47a8      	blx	r5
    furi_string_free(output_path);
     d46:	4638      	mov	r0, r7
     d48:	47a8      	blx	r5
    flipper_format_free(input_file);
     d4a:	4630      	mov	r0, r6
     d4c:	4b46      	ldr	r3, [pc, #280]	@ (e68 <infrared_cli_process_decode+0x170>)
     d4e:	4798      	blx	r3
    if(output_file) flipper_format_free(output_file);
     d50:	f1b8 0f00 	cmp.w	r8, #0
     d54:	d002      	beq.n	d5c <infrared_cli_process_decode+0x64>
     d56:	4640      	mov	r0, r8
     d58:	4b43      	ldr	r3, [pc, #268]	@ (e68 <infrared_cli_process_decode+0x170>)
     d5a:	4798      	blx	r3
    furi_record_close(RECORD_STORAGE);
     d5c:	4839      	ldr	r0, [pc, #228]	@ (e44 <infrared_cli_process_decode+0x14c>)
     d5e:	4b43      	ldr	r3, [pc, #268]	@ (e6c <infrared_cli_process_decode+0x174>)
     d60:	4798      	blx	r3
}
     d62:	b003      	add	sp, #12
     d64:	e8bd 8ff0 	ldmia.w	sp!, {r4, r5, r6, r7, r8, r9, sl, fp, pc}
        args_read_probably_quoted_string_and_trim(args, output_path);
     d68:	4639      	mov	r1, r7
     d6a:	4640      	mov	r0, r8
     d6c:	4b39      	ldr	r3, [pc, #228]	@ (e54 <infrared_cli_process_decode+0x15c>)
     d6e:	4798      	blx	r3
        if(!flipper_format_buffered_file_open_existing(
     d70:	4620      	mov	r0, r4
     d72:	4b3f      	ldr	r3, [pc, #252]	@ (e70 <infrared_cli_process_decode+0x178>)
     d74:	4798      	blx	r3
     d76:	4601      	mov	r1, r0
     d78:	4630      	mov	r0, r6
     d7a:	4b3e      	ldr	r3, [pc, #248]	@ (e74 <infrared_cli_process_decode+0x17c>)
     d7c:	4798      	blx	r3
     d7e:	b948      	cbnz	r0, d94 <infrared_cli_process_decode+0x9c>
            printf(
     d80:	4620      	mov	r0, r4
     d82:	4b3b      	ldr	r3, [pc, #236]	@ (e70 <infrared_cli_process_decode+0x178>)
     d84:	4798      	blx	r3
     d86:	4601      	mov	r1, r0
     d88:	483b      	ldr	r0, [pc, #236]	@ (e78 <infrared_cli_process_decode+0x180>)
     d8a:	4b3c      	ldr	r3, [pc, #240]	@ (e7c <infrared_cli_process_decode+0x184>)
     d8c:	4798      	blx	r3
    FlipperFormat* output_file = NULL;
     d8e:	f04f 0800 	mov.w	r8, #0
            break;
     d92:	e7d1      	b.n	d38 <infrared_cli_process_decode+0x40>
        if(!flipper_format_read_header(input_file, header, &version) ||
     d94:	aa01      	add	r2, sp, #4
     d96:	4649      	mov	r1, r9
     d98:	4630      	mov	r0, r6
     d9a:	4b39      	ldr	r3, [pc, #228]	@ (e80 <infrared_cli_process_decode+0x188>)
     d9c:	4798      	blx	r3
     d9e:	b138      	cbz	r0, db0 <infrared_cli_process_decode+0xb8>
           (!furi_string_start_with_str(header, "IR")) || version != 1) {
     da0:	4938      	ldr	r1, [pc, #224]	@ (e84 <infrared_cli_process_decode+0x18c>)
     da2:	4648      	mov	r0, r9
     da4:	4b38      	ldr	r3, [pc, #224]	@ (e88 <infrared_cli_process_decode+0x190>)
     da6:	4798      	blx	r3
        if(!flipper_format_read_header(input_file, header, &version) ||
     da8:	b110      	cbz	r0, db0 <infrared_cli_process_decode+0xb8>
           (!furi_string_start_with_str(header, "IR")) || version != 1) {
     daa:	9b01      	ldr	r3, [sp, #4]
     dac:	2b01      	cmp	r3, #1
     dae:	d009      	beq.n	dc4 <infrared_cli_process_decode+0xcc>
            printf(
     db0:	4620      	mov	r0, r4
     db2:	4b2f      	ldr	r3, [pc, #188]	@ (e70 <infrared_cli_process_decode+0x178>)
     db4:	4798      	blx	r3
     db6:	4601      	mov	r1, r0
     db8:	4834      	ldr	r0, [pc, #208]	@ (e8c <infrared_cli_process_decode+0x194>)
     dba:	4b30      	ldr	r3, [pc, #192]	@ (e7c <infrared_cli_process_decode+0x184>)
     dbc:	4798      	blx	r3
    FlipperFormat* output_file = NULL;
     dbe:	f04f 0800 	mov.w	r8, #0
            break;
     dc2:	e7b9      	b.n	d38 <infrared_cli_process_decode+0x40>
        if(!furi_string_empty(output_path)) {
     dc4:	4638      	mov	r0, r7
     dc6:	4b32      	ldr	r3, [pc, #200]	@ (e90 <infrared_cli_process_decode+0x198>)
     dc8:	4798      	blx	r3
     dca:	b1a8      	cbz	r0, df8 <infrared_cli_process_decode+0x100>
    FlipperFormat* output_file = NULL;
     dcc:	f04f 0800 	mov.w	r8, #0
        if(output_file && !flipper_format_write_header(output_file, header, version)) {
     dd0:	f1b8 0f00 	cmp.w	r8, #0
     dd4:	d006      	beq.n	de4 <infrared_cli_process_decode+0xec>
     dd6:	9a01      	ldr	r2, [sp, #4]
     dd8:	4649      	mov	r1, r9
     dda:	4640      	mov	r0, r8
     ddc:	4b2d      	ldr	r3, [pc, #180]	@ (e94 <infrared_cli_process_decode+0x19c>)
     dde:	4798      	blx	r3
     de0:	2800      	cmp	r0, #0
     de2:	d027      	beq.n	e34 <infrared_cli_process_decode+0x13c>
        if(!infrared_cli_decode_file(input_file, output_file)) {
     de4:	4641      	mov	r1, r8
     de6:	4630      	mov	r0, r6
     de8:	4b2b      	ldr	r3, [pc, #172]	@ (e98 <infrared_cli_process_decode+0x1a0>)
     dea:	4798      	blx	r3
     dec:	2800      	cmp	r0, #0
     dee:	d0a3      	beq.n	d38 <infrared_cli_process_decode+0x40>
        printf("File successfully decoded.\r\n");
     df0:	482a      	ldr	r0, [pc, #168]	@ (e9c <infrared_cli_process_decode+0x1a4>)
     df2:	4b1a      	ldr	r3, [pc, #104]	@ (e5c <infrared_cli_process_decode+0x164>)
     df4:	4798      	blx	r3
     df6:	e79f      	b.n	d38 <infrared_cli_process_decode+0x40>
            printf("Writing output to file: \"%s\"\r\n", furi_string_get_cstr(output_path));
     df8:	4638      	mov	r0, r7
     dfa:	4b1d      	ldr	r3, [pc, #116]	@ (e70 <infrared_cli_process_decode+0x178>)
     dfc:	4798      	blx	r3
     dfe:	4601      	mov	r1, r0
     e00:	4827      	ldr	r0, [pc, #156]	@ (ea0 <infrared_cli_process_decode+0x1a8>)
     e02:	4b1e      	ldr	r3, [pc, #120]	@ (e7c <infrared_cli_process_decode+0x184>)
     e04:	4798      	blx	r3
            output_file = flipper_format_file_alloc(storage);
     e06:	4658      	mov	r0, fp
     e08:	4b26      	ldr	r3, [pc, #152]	@ (ea4 <infrared_cli_process_decode+0x1ac>)
     e0a:	4798      	blx	r3
        if(output_file &&
     e0c:	4680      	mov	r8, r0
     e0e:	2800      	cmp	r0, #0
     e10:	d0e8      	beq.n	de4 <infrared_cli_process_decode+0xec>
           !flipper_format_file_open_always(output_file, furi_string_get_cstr(output_path))) {
     e12:	4638      	mov	r0, r7
     e14:	4b16      	ldr	r3, [pc, #88]	@ (e70 <infrared_cli_process_decode+0x178>)
     e16:	4798      	blx	r3
     e18:	4601      	mov	r1, r0
     e1a:	4640      	mov	r0, r8
     e1c:	4b22      	ldr	r3, [pc, #136]	@ (ea8 <infrared_cli_process_decode+0x1b0>)
     e1e:	4798      	blx	r3
        if(output_file &&
     e20:	2800      	cmp	r0, #0
     e22:	d1d5      	bne.n	dd0 <infrared_cli_process_decode+0xd8>
            printf(
     e24:	4638      	mov	r0, r7
     e26:	4b12      	ldr	r3, [pc, #72]	@ (e70 <infrared_cli_process_decode+0x178>)
     e28:	4798      	blx	r3
     e2a:	4601      	mov	r1, r0
     e2c:	481f      	ldr	r0, [pc, #124]	@ (eac <infrared_cli_process_decode+0x1b4>)
     e2e:	4b13      	ldr	r3, [pc, #76]	@ (e7c <infrared_cli_process_decode+0x184>)
     e30:	4798      	blx	r3
            break;
     e32:	e781      	b.n	d38 <infrared_cli_process_decode+0x40>
            printf(
     e34:	4638      	mov	r0, r7
     e36:	4b0e      	ldr	r3, [pc, #56]	@ (e70 <infrared_cli_process_decode+0x178>)
     e38:	4798      	blx	r3
     e3a:	4601      	mov	r1, r0
     e3c:	481c      	ldr	r0, [pc, #112]	@ (eb0 <infrared_cli_process_decode+0x1b8>)
     e3e:	4b0f      	ldr	r3, [pc, #60]	@ (e7c <infrared_cli_process_decode+0x184>)
     e40:	4798      	blx	r3
            break;
     e42:	e779      	b.n	d38 <infrared_cli_process_decode+0x40>
     e44:	00000018 	.word	0x00000018
	...
     e58:	000003fc 	.word	0x000003fc
	...
     e78:	00000418 	.word	0x00000418
	...
     e84:	00000440 	.word	0x00000440
     e88:	00000000 	.word	0x00000000
     e8c:	00000444 	.word	0x00000444
	...
     e9c:	000004e0 	.word	0x000004e0
     ea0:	0000046c 	.word	0x0000046c
	...
     eac:	0000048c 	.word	0x0000048c
     eb0:	000004b4 	.word	0x000004b4

00000eb4 <infrared_cli_start_ir_tx>:
static void infrared_cli_start_ir_tx(PipeSide* pipe, FuriString* args) {
     eb4:	b538      	push	{r3, r4, r5, lr}
    const char* str = furi_string_get_cstr(args);
     eb6:	4608      	mov	r0, r1
     eb8:	4b0e      	ldr	r3, [pc, #56]	@ (ef4 <infrared_cli_start_ir_tx+0x40>)
     eba:	4798      	blx	r3
     ebc:	4605      	mov	r5, r0
    InfraredSignal* signal = infrared_signal_alloc();
     ebe:	4b0e      	ldr	r3, [pc, #56]	@ (ef8 <infrared_cli_start_ir_tx+0x44>)
     ec0:	4798      	blx	r3
     ec2:	4604      	mov	r4, r0
    bool success = infrared_cli_parse_message(str, signal) || infrared_cli_parse_raw(str, signal);
     ec4:	4601      	mov	r1, r0
     ec6:	4628      	mov	r0, r5
     ec8:	4b0c      	ldr	r3, [pc, #48]	@ (efc <infrared_cli_start_ir_tx+0x48>)
     eca:	4798      	blx	r3
     ecc:	b920      	cbnz	r0, ed8 <infrared_cli_start_ir_tx+0x24>
     ece:	4621      	mov	r1, r4
     ed0:	4628      	mov	r0, r5
     ed2:	4b0b      	ldr	r3, [pc, #44]	@ (f00 <infrared_cli_start_ir_tx+0x4c>)
     ed4:	4798      	blx	r3
     ed6:	b130      	cbz	r0, ee6 <infrared_cli_start_ir_tx+0x32>
        infrared_signal_transmit(signal);
     ed8:	4620      	mov	r0, r4
     eda:	4b0a      	ldr	r3, [pc, #40]	@ (f04 <infrared_cli_start_ir_tx+0x50>)
     edc:	4798      	blx	r3
    infrared_signal_free(signal);
     ede:	4620      	mov	r0, r4
     ee0:	4b09      	ldr	r3, [pc, #36]	@ (f08 <infrared_cli_start_ir_tx+0x54>)
     ee2:	4798      	blx	r3
}
     ee4:	bd38      	pop	{r3, r4, r5, pc}
        printf("Wrong arguments.\r\n");
     ee6:	4809      	ldr	r0, [pc, #36]	@ (f0c <infrared_cli_start_ir_tx+0x58>)
     ee8:	4b09      	ldr	r3, [pc, #36]	@ (f10 <infrared_cli_start_ir_tx+0x5c>)
     eea:	4798      	blx	r3
        infrared_cli_print_usage();
     eec:	4b09      	ldr	r3, [pc, #36]	@ (f14 <infrared_cli_start_ir_tx+0x60>)
     eee:	4798      	blx	r3
     ef0:	e7f5      	b.n	ede <infrared_cli_start_ir_tx+0x2a>
     ef2:	bf00      	nop
	...
     f0c:	000003fc 	.word	0x000003fc
	...

00000f18 <infrared_cli_start_ir_rx>:
static void infrared_cli_start_ir_rx(PipeSide* pipe, FuriString* args) {
     f18:	b570      	push	{r4, r5, r6, lr}
     f1a:	4604      	mov	r4, r0
     f1c:	460d      	mov	r5, r1
    if(!furi_string_empty(args)) {
     f1e:	4608      	mov	r0, r1
     f20:	4b19      	ldr	r3, [pc, #100]	@ (f88 <infrared_cli_start_ir_rx+0x70>)
     f22:	4798      	blx	r3
     f24:	4606      	mov	r6, r0
     f26:	b920      	cbnz	r0, f32 <infrared_cli_start_ir_rx+0x1a>
        if(!furi_string_cmp_str(args, "raw")) {
     f28:	4918      	ldr	r1, [pc, #96]	@ (f8c <infrared_cli_start_ir_rx+0x74>)
     f2a:	4628      	mov	r0, r5
     f2c:	4b18      	ldr	r3, [pc, #96]	@ (f90 <infrared_cli_start_ir_rx+0x78>)
     f2e:	4798      	blx	r3
     f30:	b998      	cbnz	r0, f5a <infrared_cli_start_ir_rx+0x42>
    InfraredWorker* worker = infrared_worker_alloc();
     f32:	4b18      	ldr	r3, [pc, #96]	@ (f94 <infrared_cli_start_ir_rx+0x7c>)
     f34:	4798      	blx	r3
     f36:	4605      	mov	r5, r0
    infrared_worker_rx_enable_signal_decoding(worker, enable_decoding);
     f38:	4631      	mov	r1, r6
     f3a:	4b17      	ldr	r3, [pc, #92]	@ (f98 <infrared_cli_start_ir_rx+0x80>)
     f3c:	4798      	blx	r3
    infrared_worker_rx_start(worker);
     f3e:	4628      	mov	r0, r5
     f40:	4b16      	ldr	r3, [pc, #88]	@ (f9c <infrared_cli_start_ir_rx+0x84>)
     f42:	4798      	blx	r3
    infrared_worker_rx_set_received_signal_callback(worker, signal_received_callback, pipe);
     f44:	4622      	mov	r2, r4
     f46:	4916      	ldr	r1, [pc, #88]	@ (fa0 <infrared_cli_start_ir_rx+0x88>)
     f48:	4628      	mov	r0, r5
     f4a:	4b16      	ldr	r3, [pc, #88]	@ (fa4 <infrared_cli_start_ir_rx+0x8c>)
     f4c:	4798      	blx	r3
    printf("Receiving %s INFRARED...\r\nPress Ctrl+C to abort\r\n", enable_decoding ? "" : "RAW");
     f4e:	b156      	cbz	r6, f66 <infrared_cli_start_ir_rx+0x4e>
     f50:	4915      	ldr	r1, [pc, #84]	@ (fa8 <infrared_cli_start_ir_rx+0x90>)
     f52:	4816      	ldr	r0, [pc, #88]	@ (fac <infrared_cli_start_ir_rx+0x94>)
     f54:	4b16      	ldr	r3, [pc, #88]	@ (fb0 <infrared_cli_start_ir_rx+0x98>)
     f56:	4798      	blx	r3
    while(!cli_is_pipe_broken_or_is_etx_next_char(pipe)) {
     f58:	e00a      	b.n	f70 <infrared_cli_start_ir_rx+0x58>
            printf("Wrong arguments.\r\n");
     f5a:	4816      	ldr	r0, [pc, #88]	@ (fb4 <infrared_cli_start_ir_rx+0x9c>)
     f5c:	4b16      	ldr	r3, [pc, #88]	@ (fb8 <infrared_cli_start_ir_rx+0xa0>)
     f5e:	4798      	blx	r3
            infrared_cli_print_usage();
     f60:	4b16      	ldr	r3, [pc, #88]	@ (fbc <infrared_cli_start_ir_rx+0xa4>)
     f62:	4798      	blx	r3
            return;
     f64:	e00f      	b.n	f86 <infrared_cli_start_ir_rx+0x6e>
    printf("Receiving %s INFRARED...\r\nPress Ctrl+C to abort\r\n", enable_decoding ? "" : "RAW");
     f66:	4916      	ldr	r1, [pc, #88]	@ (fc0 <infrared_cli_start_ir_rx+0xa8>)
     f68:	e7f3      	b.n	f52 <infrared_cli_start_ir_rx+0x3a>
        furi_delay_ms(50);
     f6a:	2032      	movs	r0, #50	@ 0x32
     f6c:	4b15      	ldr	r3, [pc, #84]	@ (fc4 <infrared_cli_start_ir_rx+0xac>)
     f6e:	4798      	blx	r3
    while(!cli_is_pipe_broken_or_is_etx_next_char(pipe)) {
     f70:	4620      	mov	r0, r4
     f72:	4b15      	ldr	r3, [pc, #84]	@ (fc8 <infrared_cli_start_ir_rx+0xb0>)
     f74:	4798      	blx	r3
     f76:	2800      	cmp	r0, #0
     f78:	d0f7      	beq.n	f6a <infrared_cli_start_ir_rx+0x52>
    infrared_worker_rx_stop(worker);
     f7a:	4628      	mov	r0, r5
     f7c:	4b13      	ldr	r3, [pc, #76]	@ (fcc <infrared_cli_start_ir_rx+0xb4>)
     f7e:	4798      	blx	r3
    infrared_worker_free(worker);
     f80:	4628      	mov	r0, r5
     f82:	4b13      	ldr	r3, [pc, #76]	@ (fd0 <infrared_cli_start_ir_rx+0xb8>)
     f84:	4798      	blx	r3
}
     f86:	bd70      	pop	{r4, r5, r6, pc}
     f88:	00000000 	.word	0x00000000
     f8c:	00000500 	.word	0x00000500
	...
     fa8:	00000138 	.word	0x00000138
     fac:	00000504 	.word	0x00000504
     fb0:	00000000 	.word	0x00000000
     fb4:	000003fc 	.word	0x000003fc
	...
     fc0:	000004fc 	.word	0x000004fc
	...

00000fd4 <cli_ir_ep>:

CLI_COMMAND_INTERFACE(ir, execute, CliCommandFlagDefault, 2048, CLI_APPID);
     fd4:	4800      	ldr	r0, [pc, #0]	@ (fd8 <cli_ir_ep+0x4>)
     fd6:	4770      	bx	lr
     fd8:	0000055c 	.word	0x0000055c

00000fdc <infrared_find_index_by_protocol>:
    }

    free(handler);
}

static int infrared_find_index_by_protocol(InfraredProtocol protocol) {
     fdc:	b570      	push	{r4, r5, r6, lr}
     fde:	4d08      	ldr	r5, [pc, #32]	@ (1000 <infrared_find_index_by_protocol+0x24>)
     fe0:	4606      	mov	r6, r0
    for(size_t i = 0; i < COUNT_OF(infrared_encoder_decoder); ++i) {
     fe2:	2400      	movs	r4, #0
        if(infrared_encoder_decoder[i].get_protocol_variant(protocol)) {
     fe4:	6a6b      	ldr	r3, [r5, #36]	@ 0x24
     fe6:	4630      	mov	r0, r6
     fe8:	4798      	blx	r3
     fea:	b108      	cbz	r0, ff0 <infrared_find_index_by_protocol+0x14>
            return i;
     fec:	4620      	mov	r0, r4
        }
    }

    return -1;
}
     fee:	bd70      	pop	{r4, r5, r6, pc}
    for(size_t i = 0; i < COUNT_OF(infrared_encoder_decoder); ++i) {
     ff0:	3401      	adds	r4, #1
     ff2:	2c08      	cmp	r4, #8
     ff4:	f105 0528 	add.w	r5, r5, #40	@ 0x28
     ff8:	d1f4      	bne.n	fe4 <infrared_find_index_by_protocol+0x8>
    return -1;
     ffa:	f04f 30ff 	mov.w	r0, #4294967295	@ 0xffffffff
     ffe:	e7f6      	b.n	fee <infrared_find_index_by_protocol+0x12>
    1000:	00000598 	.word	0x00000598

00001004 <infrared_get_variant_by_protocol>:
        if(!strcmp(name, protocol_name)) return protocol;
    }
    return InfraredProtocolUnknown;
}

static const InfraredProtocolVariant* infrared_get_variant_by_protocol(InfraredProtocol protocol) {
    1004:	b510      	push	{r4, lr}
    1006:	4604      	mov	r4, r0
    int index = infrared_find_index_by_protocol(protocol);
    1008:	f7ff fffe 	bl	fdc <infrared_find_index_by_protocol>
    const InfraredProtocolVariant* variant = NULL;
    if(index >= 0) {
    100c:	1e03      	subs	r3, r0, #0
    100e:	da03      	bge.n	1018 <sukima103+0x4>
        variant = infrared_encoder_decoder[index].get_protocol_variant(protocol);
    }

    furi_check(variant);
    1010:	f04f 0c02 	mov.w	ip, #2

00001014 <sukima103>:
    1014:	f7ff fffe 	bl	0 <__furi_crash_implementation>
        variant = infrared_encoder_decoder[index].get_protocol_variant(protocol);
    1018:	4a04      	ldr	r2, [pc, #16]	@ (102c <sukima103+0x18>)
    101a:	2128      	movs	r1, #40	@ 0x28
    101c:	fb01 2303 	mla	r3, r1, r3, r2
    1020:	4620      	mov	r0, r4
    1022:	6a5b      	ldr	r3, [r3, #36]	@ 0x24
    1024:	4798      	blx	r3
    furi_check(variant);
    1026:	2800      	cmp	r0, #0
    1028:	d0f2      	beq.n	1010 <infrared_get_variant_by_protocol+0xc>
    return variant;
}
    102a:	bd10      	pop	{r4, pc}
    102c:	00000598 	.word	0x00000598

00001030 <infrared_decode>:
    infrared_decode(InfraredDecoderHandler* handler, bool level, uint32_t duration) {
    1030:	e92d 43f8 	stmdb	sp!, {r3, r4, r5, r6, r7, r8, r9, lr}
    1034:	4688      	mov	r8, r1
    1036:	4691      	mov	r9, r2
    furi_check(handler);
    1038:	4606      	mov	r6, r0
    103a:	b918      	cbnz	r0, 1044 <sukima175+0x4>
    103c:	f04f 0c02 	mov.w	ip, #2

00001040 <sukima175>:
    1040:	f7ff fffe 	bl	0 <__furi_crash_implementation>
    1044:	2400      	movs	r4, #0
    1046:	4f0a      	ldr	r7, [pc, #40]	@ (1070 <sukima175+0x30>)
    InfraredMessage* result = NULL;
    1048:	4625      	mov	r5, r4
        if(infrared_encoder_decoder[i].decoder.decode) {
    104a:	697b      	ldr	r3, [r7, #20]
    104c:	b13b      	cbz	r3, 105e <sukima175+0x1e>
            message = infrared_encoder_decoder[i].decoder.decode(handler->ctx[i], level, duration);
    104e:	6830      	ldr	r0, [r6, #0]
    1050:	464a      	mov	r2, r9
    1052:	5900      	ldr	r0, [r0, r4]
    1054:	4641      	mov	r1, r8
    1056:	4798      	blx	r3
            if(!result && message) {
    1058:	2d00      	cmp	r5, #0
    105a:	bf08      	it	eq
    105c:	4605      	moveq	r5, r0
    for(size_t i = 0; i < COUNT_OF(infrared_encoder_decoder); ++i) {
    105e:	3404      	adds	r4, #4
    1060:	2c20      	cmp	r4, #32
    1062:	f107 0728 	add.w	r7, r7, #40	@ 0x28
    1066:	d1f0      	bne.n	104a <sukima175+0xa>
}
    1068:	4628      	mov	r0, r5
    106a:	e8bd 83f8 	ldmia.w	sp!, {r3, r4, r5, r6, r7, r8, r9, pc}
    106e:	bf00      	nop
    1070:	00000598 	.word	0x00000598

00001074 <infrared_free_decoder>:
void infrared_free_decoder(InfraredDecoderHandler* handler) {
    1074:	b570      	push	{r4, r5, r6, lr}
    furi_check(handler);
    1076:	4604      	mov	r4, r0
    1078:	b918      	cbnz	r0, 1082 <sukima269+0x4>
    furi_check(handler->ctx);
    107a:	f04f 0c02 	mov.w	ip, #2

0000107e <sukima269>:
    107e:	f7ff fffe 	bl	0 <__furi_crash_implementation>
    1082:	6803      	ldr	r3, [r0, #0]
    1084:	2b00      	cmp	r3, #0
    1086:	d0f8      	beq.n	107a <infrared_free_decoder+0x6>
    1088:	4e09      	ldr	r6, [pc, #36]	@ (10b0 <sukima269+0x32>)
    108a:	2500      	movs	r5, #0
        if(infrared_encoder_decoder[i].decoder.free)
    108c:	69f3      	ldr	r3, [r6, #28]
    108e:	b113      	cbz	r3, 1096 <sukima269+0x18>
            infrared_encoder_decoder[i].decoder.free(handler->ctx[i]);
    1090:	6822      	ldr	r2, [r4, #0]
    1092:	5950      	ldr	r0, [r2, r5]
    1094:	4798      	blx	r3
    for(size_t i = 0; i < COUNT_OF(infrared_encoder_decoder); ++i) {
    1096:	3504      	adds	r5, #4
    1098:	2d20      	cmp	r5, #32
    109a:	f106 0628 	add.w	r6, r6, #40	@ 0x28
    109e:	d1f5      	bne.n	108c <sukima269+0xe>
    free(handler->ctx);
    10a0:	6820      	ldr	r0, [r4, #0]
    10a2:	f7ff fffe 	bl	0 <free>
    free(handler);
    10a6:	4620      	mov	r0, r4
}
    10a8:	e8bd 4070 	ldmia.w	sp!, {r4, r5, r6, lr}
    free(handler);
    10ac:	f7ff bffe 	b.w	0 <free>
    10b0:	00000598 	.word	0x00000598

000010b4 <infrared_reset_decoder>:
void infrared_reset_decoder(InfraredDecoderHandler* handler) {
    10b4:	b570      	push	{r4, r5, r6, lr}
    furi_check(handler);
    10b6:	4605      	mov	r5, r0
    10b8:	b918      	cbnz	r0, 10c2 <sukima361+0x4>
    furi_check(variant);
    10ba:	f04f 0c02 	mov.w	ip, #2

000010be <sukima361>:
    10be:	f7ff fffe 	bl	0 <__furi_crash_implementation>
    10c2:	4e06      	ldr	r6, [pc, #24]	@ (10dc <sukima361+0x1e>)
    furi_check(handler);
    10c4:	2400      	movs	r4, #0
        if(infrared_encoder_decoder[i].decoder.reset)
    10c6:	69b3      	ldr	r3, [r6, #24]
    10c8:	b113      	cbz	r3, 10d0 <sukima361+0x12>
            infrared_encoder_decoder[i].decoder.reset(handler->ctx[i]);
    10ca:	682a      	ldr	r2, [r5, #0]
    10cc:	5910      	ldr	r0, [r2, r4]
    10ce:	4798      	blx	r3
    for(size_t i = 0; i < COUNT_OF(infrared_encoder_decoder); ++i) {
    10d0:	3404      	adds	r4, #4
    10d2:	2c20      	cmp	r4, #32
    10d4:	f106 0628 	add.w	r6, r6, #40	@ 0x28
    10d8:	d1f5      	bne.n	10c6 <sukima361+0x8>
}
    10da:	bd70      	pop	{r4, r5, r6, pc}
    10dc:	00000598 	.word	0x00000598

000010e0 <infrared_alloc_decoder>:
InfraredDecoderHandler* infrared_alloc_decoder(void) {
    10e0:	e92d 41f0 	stmdb	sp!, {r4, r5, r6, r7, r8, lr}
    InfraredDecoderHandler* handler = malloc(sizeof(InfraredDecoderHandler));
    10e4:	2004      	movs	r0, #4
    10e6:	f7ff fffe 	bl	0 <malloc>
    10ea:	4604      	mov	r4, r0
    handler->ctx = malloc(sizeof(void*) * COUNT_OF(infrared_encoder_decoder));
    10ec:	2020      	movs	r0, #32
    10ee:	f7ff fffe 	bl	0 <malloc>
    10f2:	2500      	movs	r5, #0
    10f4:	4e0a      	ldr	r6, [pc, #40]	@ (1120 <infrared_alloc_decoder+0x40>)
    10f6:	6020      	str	r0, [r4, #0]
        handler->ctx[i] = 0;
    10f8:	46a8      	mov	r8, r5
    10fa:	6827      	ldr	r7, [r4, #0]
        if(infrared_encoder_decoder[i].decoder.alloc)
    10fc:	6933      	ldr	r3, [r6, #16]
        handler->ctx[i] = 0;
    10fe:	f847 8005 	str.w	r8, [r7, r5]
        if(infrared_encoder_decoder[i].decoder.alloc)
    1102:	b10b      	cbz	r3, 1108 <infrared_alloc_decoder+0x28>
            handler->ctx[i] = infrared_encoder_decoder[i].decoder.alloc();
    1104:	4798      	blx	r3
    1106:	5178      	str	r0, [r7, r5]
    for(size_t i = 0; i < COUNT_OF(infrared_encoder_decoder); ++i) {
    1108:	3504      	adds	r5, #4
    110a:	2d20      	cmp	r5, #32
    110c:	f106 0628 	add.w	r6, r6, #40	@ 0x28
    1110:	d1f3      	bne.n	10fa <infrared_alloc_decoder+0x1a>
    infrared_reset_decoder(handler);
    1112:	4620      	mov	r0, r4
    1114:	f7ff fffe 	bl	10b4 <infrared_reset_decoder>
}
    1118:	4620      	mov	r0, r4
    111a:	e8bd 81f0 	ldmia.w	sp!, {r4, r5, r6, r7, r8, pc}
    111e:	bf00      	nop
    1120:	00000598 	.word	0x00000598

00001124 <infrared_check_decoder_ready>:
const InfraredMessage* infrared_check_decoder_ready(InfraredDecoderHandler* handler) {
    1124:	b5f8      	push	{r3, r4, r5, r6, r7, lr}
    furi_check(handler);
    1126:	4606      	mov	r6, r0
    1128:	b918      	cbnz	r0, 1132 <sukima507+0x4>
    112a:	f04f 0c02 	mov.w	ip, #2

0000112e <sukima507>:
    112e:	f7ff fffe 	bl	0 <__furi_crash_implementation>
    1132:	2400      	movs	r4, #0
    1134:	4f08      	ldr	r7, [pc, #32]	@ (1158 <sukima507+0x2a>)
    InfraredMessage* result = NULL;
    1136:	4625      	mov	r5, r4
        if(infrared_encoder_decoder[i].decoder.check_ready) {
    1138:	6a3b      	ldr	r3, [r7, #32]
    113a:	b12b      	cbz	r3, 1148 <sukima507+0x1a>
            message = infrared_encoder_decoder[i].decoder.check_ready(handler->ctx[i]);
    113c:	6832      	ldr	r2, [r6, #0]
    113e:	5910      	ldr	r0, [r2, r4]
    1140:	4798      	blx	r3
            if(!result && message) {
    1142:	2d00      	cmp	r5, #0
    1144:	bf08      	it	eq
    1146:	4605      	moveq	r5, r0
    for(size_t i = 0; i < COUNT_OF(infrared_encoder_decoder); ++i) {
    1148:	3404      	adds	r4, #4
    114a:	2c20      	cmp	r4, #32
    114c:	f107 0728 	add.w	r7, r7, #40	@ 0x28
    1150:	d1f2      	bne.n	1138 <sukima507+0xa>
}
    1152:	4628      	mov	r0, r5
    1154:	bdf8      	pop	{r3, r4, r5, r6, r7, pc}
    1156:	bf00      	nop
    1158:	00000598 	.word	0x00000598

0000115c <infrared_alloc_encoder>:
InfraredEncoderHandler* infrared_alloc_encoder(void) {
    115c:	b508      	push	{r3, lr}
    InfraredEncoderHandler* handler = malloc(sizeof(InfraredEncoderHandler));
    115e:	2008      	movs	r0, #8
    1160:	f7ff fffe 	bl	0 <malloc>
    handler->handler = NULL;
    1164:	2200      	movs	r2, #0
    handler->encoder = NULL;
    1166:	e9c0 2200 	strd	r2, r2, [r0]
}
    116a:	bd08      	pop	{r3, pc}

0000116c <infrared_free_encoder>:
void infrared_free_encoder(InfraredEncoderHandler* handler) {
    116c:	b510      	push	{r4, lr}
    furi_check(handler);
    116e:	4604      	mov	r4, r0
    1170:	b918      	cbnz	r0, 117a <sukima611+0x4>
        furi_check(encoder->free);
    1172:	f04f 0c02 	mov.w	ip, #2

00001176 <sukima611>:
    1176:	f7ff fffe 	bl	0 <__furi_crash_implementation>
    if(encoder || handler->handler) {
    117a:	e9d0 0300 	ldrd	r0, r3, [r0]
    117e:	b933      	cbnz	r3, 118e <sukima611+0x18>
    1180:	2800      	cmp	r0, #0
    1182:	d1f6      	bne.n	1172 <infrared_free_encoder+0x6>
    free(handler);
    1184:	4620      	mov	r0, r4
}
    1186:	e8bd 4010 	ldmia.w	sp!, {r4, lr}
    free(handler);
    118a:	f7ff bffe 	b.w	0 <free>
        furi_check(handler->handler);
    118e:	2800      	cmp	r0, #0
    1190:	d0ef      	beq.n	1172 <infrared_free_encoder+0x6>
        furi_check(encoder->free);
    1192:	68db      	ldr	r3, [r3, #12]
    1194:	2b00      	cmp	r3, #0
    1196:	d0ec      	beq.n	1172 <infrared_free_encoder+0x6>
        encoder->free(handler->handler);
    1198:	4798      	blx	r3
    119a:	e7f3      	b.n	1184 <sukima611+0xe>

0000119c <infrared_reset_encoder>:
void infrared_reset_encoder(InfraredEncoderHandler* handler, const InfraredMessage* message) {
    119c:	e92d 41f0 	stmdb	sp!, {r4, r5, r6, r7, r8, lr}
    11a0:	460d      	mov	r5, r1
    furi_check(handler);
    11a2:	4604      	mov	r4, r0
    11a4:	b918      	cbnz	r0, 11ae <sukima698+0x4>
            furi_check(handler->encoder->free);
    11a6:	f04f 0c02 	mov.w	ip, #2

000011aa <sukima698>:
    11aa:	f7ff fffe 	bl	0 <__furi_crash_implementation>
    furi_check(message);
    11ae:	2900      	cmp	r1, #0
    11b0:	d0f9      	beq.n	11a6 <infrared_reset_encoder+0xa>
    int index = infrared_find_index_by_protocol(message->protocol);
    11b2:	f991 0000 	ldrsb.w	r0, [r1]
    11b6:	f7ff fffe 	bl	fdc <infrared_find_index_by_protocol>
    furi_check(index >= 0);
    11ba:	2800      	cmp	r0, #0
    11bc:	dbf3      	blt.n	11a6 <infrared_reset_encoder+0xa>
    const InfraredEncoders* required_encoder = &infrared_encoder_decoder[index].encoder;
    11be:	2328      	movs	r3, #40	@ 0x28
    11c0:	4358      	muls	r0, r3
    11c2:	4b0d      	ldr	r3, [pc, #52]	@ (11f8 <sukima698+0x4e>)
    11c4:	18c6      	adds	r6, r0, r3
    furi_check(required_encoder->reset);
    11c6:	68b2      	ldr	r2, [r6, #8]
    11c8:	2a00      	cmp	r2, #0
    11ca:	d0ec      	beq.n	11a6 <infrared_reset_encoder+0xa>
    furi_check(required_encoder->alloc);
    11cc:	581f      	ldr	r7, [r3, r0]
    11ce:	2f00      	cmp	r7, #0
    11d0:	d0e9      	beq.n	11a6 <infrared_reset_encoder+0xa>
        if(handler->handler != NULL) {
    11d2:	e9d4 0300 	ldrd	r0, r3, [r4]
    if(required_encoder != handler->encoder) {
    11d6:	42b3      	cmp	r3, r6
    11d8:	d007      	beq.n	11ea <sukima698+0x40>
        if(handler->handler != NULL) {
    11da:	b118      	cbz	r0, 11e4 <sukima698+0x3a>
            furi_check(handler->encoder->free);
    11dc:	68db      	ldr	r3, [r3, #12]
    11de:	2b00      	cmp	r3, #0
    11e0:	d0e1      	beq.n	11a6 <infrared_reset_encoder+0xa>
            handler->encoder->free(handler->handler);
    11e2:	4798      	blx	r3
        handler->encoder = required_encoder;
    11e4:	6066      	str	r6, [r4, #4]
        handler->handler = handler->encoder->alloc();
    11e6:	47b8      	blx	r7
    11e8:	6020      	str	r0, [r4, #0]
    handler->encoder->reset(handler->handler, message);
    11ea:	6863      	ldr	r3, [r4, #4]
    11ec:	6820      	ldr	r0, [r4, #0]
    11ee:	689b      	ldr	r3, [r3, #8]
    11f0:	4629      	mov	r1, r5
}
    11f2:	e8bd 41f0 	ldmia.w	sp!, {r4, r5, r6, r7, r8, lr}
    handler->encoder->reset(handler->handler, message);
    11f6:	4718      	bx	r3
    11f8:	00000598 	.word	0x00000598

000011fc <infrared_encode>:
InfraredStatus infrared_encode(InfraredEncoderHandler* handler, uint32_t* duration, bool* level) {
    11fc:	b510      	push	{r4, lr}
    furi_check(handler);
    11fe:	b918      	cbnz	r0, 1208 <sukima842+0x4>
    furi_check(status != InfraredStatusError);
    1200:	f04f 0c02 	mov.w	ip, #2

00001204 <sukima842>:
    1204:	f7ff fffe 	bl	0 <__furi_crash_implementation>
    furi_check(duration);
    1208:	2900      	cmp	r1, #0
    120a:	d0f9      	beq.n	1200 <infrared_encode+0x4>
    furi_check(level);
    120c:	2a00      	cmp	r2, #0
    120e:	d0f7      	beq.n	1200 <infrared_encode+0x4>
    const InfraredEncoders* encoder = handler->encoder;
    1210:	6843      	ldr	r3, [r0, #4]
    furi_check(encoder);
    1212:	2b00      	cmp	r3, #0
    1214:	d0f4      	beq.n	1200 <infrared_encode+0x4>
    furi_check(encoder->encode);
    1216:	685b      	ldr	r3, [r3, #4]
    1218:	2b00      	cmp	r3, #0
    121a:	d0f1      	beq.n	1200 <infrared_encode+0x4>
    InfraredStatus status = encoder->encode(handler->handler, duration, level);
    121c:	6800      	ldr	r0, [r0, #0]
    121e:	4798      	blx	r3
    furi_check(status != InfraredStatusError);
    1220:	2800      	cmp	r0, #0
    1222:	d0ed      	beq.n	1200 <infrared_encode+0x4>
}
    1224:	bd10      	pop	{r4, pc}

00001226 <infrared_is_protocol_valid>:
bool infrared_is_protocol_valid(InfraredProtocol protocol) {
    1226:	b508      	push	{r3, lr}
    return infrared_find_index_by_protocol(protocol) >= 0;
    1228:	f7ff fffe 	bl	fdc <infrared_find_index_by_protocol>
}
    122c:	43c0      	mvns	r0, r0
    122e:	0fc0      	lsrs	r0, r0, #31
    1230:	bd08      	pop	{r3, pc}

00001232 <infrared_get_protocol_name>:

const char* infrared_get_protocol_name(InfraredProtocol protocol) {
    1232:	b508      	push	{r3, lr}
    return infrared_get_variant_by_protocol(protocol)->name;
    1234:	f7ff fffe 	bl	1004 <infrared_get_variant_by_protocol>
}
    1238:	6800      	ldr	r0, [r0, #0]
    123a:	bd08      	pop	{r3, pc}

0000123c <infrared_get_protocol_by_name>:
InfraredProtocol infrared_get_protocol_by_name(const char* protocol_name) {
    123c:	b570      	push	{r4, r5, r6, lr}
    furi_check(protocol_name);
    123e:	4605      	mov	r5, r0
    1240:	b918      	cbnz	r0, 124a <sukima975+0x4>
    1242:	f04f 0c02 	mov.w	ip, #2

00001246 <sukima975>:
    1246:	f7ff fffe 	bl	0 <__furi_crash_implementation>
    124a:	2400      	movs	r4, #0
    124c:	b266      	sxtb	r6, r4
        const char* name = infrared_get_protocol_name(protocol);
    124e:	4630      	mov	r0, r6
    1250:	f7ff fffe 	bl	1232 <infrared_get_protocol_name>
        if(!strcmp(name, protocol_name)) return protocol;
    1254:	4629      	mov	r1, r5
    1256:	f7ff fffe 	bl	0 <strcmp>
    125a:	b120      	cbz	r0, 1266 <sukima975+0x20>
    for(InfraredProtocol protocol = 0; protocol < InfraredProtocolMAX; ++protocol) {
    125c:	3401      	adds	r4, #1
    125e:	2c0e      	cmp	r4, #14
    1260:	d1f4      	bne.n	124c <sukima975+0x6>
    return InfraredProtocolUnknown;
    1262:	f04f 36ff 	mov.w	r6, #4294967295	@ 0xffffffff
}
    1266:	4630      	mov	r0, r6
    1268:	bd70      	pop	{r4, r5, r6, pc}

0000126a <infrared_get_protocol_address_length>:

uint8_t infrared_get_protocol_address_length(InfraredProtocol protocol) {
    126a:	b508      	push	{r3, lr}
    return infrared_get_variant_by_protocol(protocol)->address_length;
    126c:	f7ff fffe 	bl	1004 <infrared_get_variant_by_protocol>
}
    1270:	7900      	ldrb	r0, [r0, #4]
    1272:	bd08      	pop	{r3, pc}

00001274 <infrared_get_protocol_command_length>:

uint8_t infrared_get_protocol_command_length(InfraredProtocol protocol) {
    1274:	b508      	push	{r3, lr}
    return infrared_get_variant_by_protocol(protocol)->command_length;
    1276:	f7ff fffe 	bl	1004 <infrared_get_variant_by_protocol>
}
    127a:	7940      	ldrb	r0, [r0, #5]
    127c:	bd08      	pop	{r3, pc}

0000127e <infrared_get_protocol_frequency>:

uint32_t infrared_get_protocol_frequency(InfraredProtocol protocol) {
    127e:	b508      	push	{r3, lr}
    return infrared_get_variant_by_protocol(protocol)->frequency;
    1280:	f7ff fffe 	bl	1004 <infrared_get_variant_by_protocol>
}
    1284:	6880      	ldr	r0, [r0, #8]
    1286:	bd08      	pop	{r3, pc}

00001288 <infrared_get_protocol_duty_cycle>:

float infrared_get_protocol_duty_cycle(InfraredProtocol protocol) {
    1288:	b508      	push	{r3, lr}
    return infrared_get_variant_by_protocol(protocol)->duty_cycle;
    128a:	f7ff fffe 	bl	1004 <infrared_get_variant_by_protocol>
}
    128e:	ed90 0a03 	vldr	s0, [r0, #12]
    1292:	bd08      	pop	{r3, pc}

00001294 <infrared_get_protocol_min_repeat_count>:

size_t infrared_get_protocol_min_repeat_count(InfraredProtocol protocol) {
    1294:	b508      	push	{r3, lr}
    return infrared_get_variant_by_protocol(protocol)->repeat_count;
    1296:	f7ff fffe 	bl	1004 <infrared_get_variant_by_protocol>
}
    129a:	6900      	ldr	r0, [r0, #16]
    129c:	bd08      	pop	{r3, pc}

0000129e <SignalPositionArray_set>:
#include <m-array.h>
#include <flipper_format/flipper_format.h>

#include "infrared_signal.h"

ARRAY_DEF(SignalPositionArray, size_t, M_DEFAULT_OPLIST); //-V658
    129e:	4288      	cmp	r0, r1
    12a0:	b570      	push	{r4, r5, r6, lr}
    12a2:	4604      	mov	r4, r0
    12a4:	460d      	mov	r5, r1
    12a6:	d01c      	beq.n	12e2 <SignalPositionArray_set+0x44>
    12a8:	680e      	ldr	r6, [r1, #0]
    12aa:	6843      	ldr	r3, [r0, #4]
    12ac:	429e      	cmp	r6, r3
    12ae:	d90c      	bls.n	12ca <SignalPositionArray_set+0x2c>
    12b0:	f1b6 4f80 	cmp.w	r6, #1073741824	@ 0x40000000
    12b4:	d301      	bcc.n	12ba <SignalPositionArray_set+0x1c>
    12b6:	f7ff fffe 	bl	0 <abort>
    12ba:	6880      	ldr	r0, [r0, #8]
    12bc:	00b1      	lsls	r1, r6, #2
    12be:	f7ff fffe 	bl	0 <realloc>
    12c2:	2800      	cmp	r0, #0
    12c4:	d0f7      	beq.n	12b6 <SignalPositionArray_set+0x18>
    12c6:	e9c4 6001 	strd	r6, r0, [r4, #4]
    12ca:	682a      	ldr	r2, [r5, #0]
    12cc:	6823      	ldr	r3, [r4, #0]
    12ce:	4293      	cmp	r3, r2
    12d0:	bf28      	it	cs
    12d2:	4613      	movcs	r3, r2
    12d4:	2200      	movs	r2, #0
    12d6:	429a      	cmp	r2, r3
    12d8:	d104      	bne.n	12e4 <SignalPositionArray_set+0x46>
    12da:	682a      	ldr	r2, [r5, #0]
    12dc:	429a      	cmp	r2, r3
    12de:	d809      	bhi.n	12f4 <SignalPositionArray_set+0x56>
    12e0:	6022      	str	r2, [r4, #0]
    12e2:	bd70      	pop	{r4, r5, r6, pc}
    12e4:	68a9      	ldr	r1, [r5, #8]
    12e6:	f851 0022 	ldr.w	r0, [r1, r2, lsl #2]
    12ea:	68a1      	ldr	r1, [r4, #8]
    12ec:	f841 0022 	str.w	r0, [r1, r2, lsl #2]
    12f0:	3201      	adds	r2, #1
    12f2:	e7f0      	b.n	12d6 <SignalPositionArray_set+0x38>
    12f4:	68aa      	ldr	r2, [r5, #8]
    12f6:	f852 1023 	ldr.w	r1, [r2, r3, lsl #2]
    12fa:	68a2      	ldr	r2, [r4, #8]
    12fc:	f842 1023 	str.w	r1, [r2, r3, lsl #2]
    1300:	3301      	adds	r3, #1
    1302:	e7ea      	b.n	12da <SignalPositionArray_set+0x3c>

00001304 <InfraredBruteForceRecordDict_list_pair_reset>:
    (INIT(IR_BF_RECORD_INIT),         \
     INIT_SET(IR_BF_RECORD_INIT_SET), \
     SET(IR_BF_RECORD_SET),           \
     CLEAR(IR_BF_RECORD_CLEAR))

DICT_DEF2(
    1304:	b538      	push	{r3, r4, r5, lr}
    1306:	2300      	movs	r3, #0
    1308:	6804      	ldr	r4, [r0, #0]
    130a:	6003      	str	r3, [r0, #0]
    130c:	b904      	cbnz	r4, 1310 <InfraredBruteForceRecordDict_list_pair_reset+0xc>
    130e:	bd38      	pop	{r3, r4, r5, pc}
    1310:	e9d4 5000 	ldrd	r5, r0, [r4]
    1314:	f7ff fffe 	bl	0 <furi_string_free>
ARRAY_DEF(SignalPositionArray, size_t, M_DEFAULT_OPLIST); //-V658
    1318:	6960      	ldr	r0, [r4, #20]
    131a:	f7ff fffe 	bl	0 <free>
DICT_DEF2(
    131e:	4620      	mov	r0, r4
    1320:	f7ff fffe 	bl	0 <free>
    1324:	462c      	mov	r4, r5
    1326:	e7f1      	b.n	130c <InfraredBruteForceRecordDict_list_pair_reset+0x8>

00001328 <InfraredBruteForceRecordDict_array_list_pair_reset>:
    1328:	b538      	push	{r3, r4, r5, lr}
    132a:	4604      	mov	r4, r0
    132c:	2500      	movs	r5, #0
    132e:	6823      	ldr	r3, [r4, #0]
    1330:	42ab      	cmp	r3, r5
    1332:	d802      	bhi.n	133a <InfraredBruteForceRecordDict_array_list_pair_reset+0x12>
    1334:	2300      	movs	r3, #0
    1336:	6023      	str	r3, [r4, #0]
    1338:	bd38      	pop	{r3, r4, r5, pc}
    133a:	68a0      	ldr	r0, [r4, #8]
    133c:	eb00 0085 	add.w	r0, r0, r5, lsl #2
    1340:	f7ff fffe 	bl	1304 <InfraredBruteForceRecordDict_list_pair_reset>
    1344:	3501      	adds	r5, #1
    1346:	e7f2      	b.n	132e <InfraredBruteForceRecordDict_array_list_pair_reset+0x6>

00001348 <InfraredBruteForceRecordDict_array_list_pair_resize>:
    1348:	6803      	ldr	r3, [r0, #0]
    134a:	428b      	cmp	r3, r1
    134c:	b570      	push	{r4, r5, r6, lr}
    134e:	4604      	mov	r4, r0
    1350:	460d      	mov	r5, r1
    1352:	d813      	bhi.n	137c <InfraredBruteForceRecordDict_array_list_pair_resize+0x34>
    1354:	d211      	bcs.n	137a <InfraredBruteForceRecordDict_array_list_pair_resize+0x32>
    1356:	6843      	ldr	r3, [r0, #4]
    1358:	4299      	cmp	r1, r3
    135a:	d919      	bls.n	1390 <InfraredBruteForceRecordDict_array_list_pair_resize+0x48>
    135c:	f1b1 4f80 	cmp.w	r1, #1073741824	@ 0x40000000
    1360:	d30e      	bcc.n	1380 <InfraredBruteForceRecordDict_array_list_pair_resize+0x38>
    1362:	f7ff fffe 	bl	0 <abort>
    1366:	68a0      	ldr	r0, [r4, #8]
    1368:	eb00 0086 	add.w	r0, r0, r6, lsl #2
    136c:	f7ff fffe 	bl	1304 <InfraredBruteForceRecordDict_list_pair_reset>
    1370:	3601      	adds	r6, #1
    1372:	6823      	ldr	r3, [r4, #0]
    1374:	42b3      	cmp	r3, r6
    1376:	d8f6      	bhi.n	1366 <InfraredBruteForceRecordDict_array_list_pair_resize+0x1e>
    1378:	6025      	str	r5, [r4, #0]
    137a:	bd70      	pop	{r4, r5, r6, pc}
    137c:	460e      	mov	r6, r1
    137e:	e7f8      	b.n	1372 <InfraredBruteForceRecordDict_array_list_pair_resize+0x2a>
    1380:	6880      	ldr	r0, [r0, #8]
    1382:	0089      	lsls	r1, r1, #2
    1384:	f7ff fffe 	bl	0 <realloc>
    1388:	2800      	cmp	r0, #0
    138a:	d0ea      	beq.n	1362 <InfraredBruteForceRecordDict_array_list_pair_resize+0x1a>
    138c:	e9c4 5001 	strd	r5, r0, [r4, #4]
    1390:	6823      	ldr	r3, [r4, #0]
    1392:	2200      	movs	r2, #0
    1394:	429d      	cmp	r5, r3
    1396:	d9ef      	bls.n	1378 <InfraredBruteForceRecordDict_array_list_pair_resize+0x30>
    1398:	68a1      	ldr	r1, [r4, #8]
    139a:	f841 2023 	str.w	r2, [r1, r3, lsl #2]
    139e:	3301      	adds	r3, #1
    13a0:	e7f8      	b.n	1394 <InfraredBruteForceRecordDict_array_list_pair_resize+0x4c>

000013a2 <infrared_brute_force_alloc>:
    InfraredSignal* current_signal;
    InfraredBruteForceRecordDict_t records;
    bool is_started;
};

InfraredBruteForce* infrared_brute_force_alloc(void) {
    13a2:	b538      	push	{r3, r4, r5, lr}
    InfraredBruteForce* brute_force = malloc(sizeof(InfraredBruteForce));
    13a4:	203c      	movs	r0, #60	@ 0x3c
    13a6:	f7ff fffe 	bl	0 <malloc>
    brute_force->ff = NULL;
    13aa:	2500      	movs	r5, #0
    brute_force->db_filename = NULL;
    13ac:	e9c0 5500 	strd	r5, r5, [r0]
    brute_force->current_signal = NULL;
    13b0:	61c5      	str	r5, [r0, #28]
    brute_force->is_started = false;
    13b2:	f880 5038 	strb.w	r5, [r0, #56]	@ 0x38
    InfraredBruteForce* brute_force = malloc(sizeof(InfraredBruteForce));
    13b6:	4604      	mov	r4, r0
    brute_force->current_record_name = furi_string_alloc();
    13b8:	f7ff fffe 	bl	0 <furi_string_alloc>
DICT_DEF2(
    13bc:	e9c4 550b 	strd	r5, r5, [r4, #44]	@ 0x2c
    brute_force->current_record_name = furi_string_alloc();
    13c0:	60a0      	str	r0, [r4, #8]
DICT_DEF2(
    13c2:	6225      	str	r5, [r4, #32]
    13c4:	f104 002c 	add.w	r0, r4, #44	@ 0x2c
    13c8:	6365      	str	r5, [r4, #52]	@ 0x34
    13ca:	2110      	movs	r1, #16
    13cc:	f7ff fffe 	bl	1348 <InfraredBruteForceRecordDict_array_list_pair_resize>
    13d0:	230a      	movs	r3, #10
    13d2:	6265      	str	r5, [r4, #36]	@ 0x24
    13d4:	62a3      	str	r3, [r4, #40]	@ 0x28
    InfraredBruteForceRecordDict_init(brute_force->records);
    return brute_force;
}
    13d6:	4620      	mov	r0, r4
    13d8:	bd38      	pop	{r3, r4, r5, pc}

000013da <infrared_brute_force_free>:

void infrared_brute_force_free(InfraredBruteForce* brute_force) {
    13da:	b510      	push	{r4, lr}
    furi_check(brute_force);
    13dc:	4604      	mov	r4, r0
    13de:	b918      	cbnz	r0, 13e8 <sukima638+0x4>
    13e0:	f04f 0c02 	mov.w	ip, #2

000013e4 <sukima638>:
    13e4:	f7ff fffe 	bl	0 <__furi_crash_implementation>
DICT_DEF2(
    13e8:	302c      	adds	r0, #44	@ 0x2c
    13ea:	f7ff fffe 	bl	1328 <InfraredBruteForceRecordDict_array_list_pair_reset>
    13ee:	6b60      	ldr	r0, [r4, #52]	@ 0x34
    13f0:	f7ff fffe 	bl	0 <free>
    13f4:	2201      	movs	r2, #1
    13f6:	2300      	movs	r3, #0
    furi_assert(!brute_force->is_started);
    InfraredBruteForceRecordDict_clear(brute_force->records);
    furi_string_free(brute_force->current_record_name);
    13f8:	68a0      	ldr	r0, [r4, #8]
DICT_DEF2(
    13fa:	e9c4 230c 	strd	r2, r3, [r4, #48]	@ 0x30
    furi_string_free(brute_force->current_record_name);
    13fe:	f7ff fffe 	bl	0 <furi_string_free>
    free(brute_force);
    1402:	4620      	mov	r0, r4
}
    1404:	e8bd 4010 	ldmia.w	sp!, {r4, lr}
    free(brute_force);
    1408:	f7ff bffe 	b.w	0 <free>

0000140c <infrared_brute_force_set_db_filename>:

void infrared_brute_force_set_db_filename(InfraredBruteForce* brute_force, const char* db_filename) {
    140c:	b508      	push	{r3, lr}
    furi_check(brute_force);
    140e:	b918      	cbnz	r0, 1418 <sukima740+0x4>
    1410:	f04f 0c02 	mov.w	ip, #2

00001414 <sukima740>:
    1414:	f7ff fffe 	bl	0 <__furi_crash_implementation>
    furi_assert(!brute_force->is_started);
    brute_force->db_filename = db_filename;
    1418:	6041      	str	r1, [r0, #4]
}
    141a:	bd08      	pop	{r3, pc}

0000141c <infrared_brute_force_calculate_messages>:

InfraredErrorCode infrared_brute_force_calculate_messages(InfraredBruteForce* brute_force) {
    141c:	e92d 4ff8 	stmdb	sp!, {r3, r4, r5, r6, r7, r8, r9, sl, fp, lr}
    furi_check(brute_force);
    1420:	4680      	mov	r8, r0
    1422:	b918      	cbnz	r0, 142c <sukima791+0x4>
    1424:	f04f 0c02 	mov.w	ip, #2

00001428 <sukima791>:
    1428:	f7ff fffe 	bl	0 <__furi_crash_implementation>
    furi_assert(!brute_force->is_started);
    furi_assert(brute_force->db_filename);
    InfraredErrorCode error = InfraredErrorCodeNone;

    Storage* storage = furi_record_open(RECORD_STORAGE);
    142c:	4838      	ldr	r0, [pc, #224]	@ (1510 <sukima791+0xe8>)
    142e:	f7ff fffe 	bl	0 <furi_record_open>
    FlipperFormat* ff = flipper_format_buffered_file_alloc(storage);
    1432:	f7ff fffe 	bl	0 <flipper_format_buffered_file_alloc>
    1436:	4605      	mov	r5, r0
    FuriString* signal_name = furi_string_alloc();
    1438:	f7ff fffe 	bl	0 <furi_string_alloc>
    143c:	4607      	mov	r7, r0
    InfraredSignal* signal = infrared_signal_alloc();
    143e:	f7ff fffe 	bl	17fe <infrared_signal_alloc>

    do {
        if(!flipper_format_buffered_file_open_existing(ff, brute_force->db_filename)) {
    1442:	f8d8 1004 	ldr.w	r1, [r8, #4]
    InfraredSignal* signal = infrared_signal_alloc();
    1446:	4681      	mov	r9, r0
        if(!flipper_format_buffered_file_open_existing(ff, brute_force->db_filename)) {
    1448:	4628      	mov	r0, r5
    144a:	f7ff fffe 	bl	0 <flipper_format_buffered_file_open_existing>
    144e:	2800      	cmp	r0, #0
    1450:	d15c      	bne.n	150c <sukima791+0xe4>
            error = InfraredErrorCodeFileOperationFailed;
    1452:	f44f 0600 	mov.w	r6, #8388608	@ 0x800000
            SignalPositionArray_push_back(record->signals, signal_start);
        }
        if(!signal_valid) break;
    } while(false);

    infrared_signal_free(signal);
    1456:	4648      	mov	r0, r9
    1458:	f7ff fffe 	bl	1810 <infrared_signal_free>
    furi_string_free(signal_name);
    145c:	4638      	mov	r0, r7
    145e:	f7ff fffe 	bl	0 <furi_string_free>

    flipper_format_free(ff);
    1462:	4628      	mov	r0, r5
    1464:	f7ff fffe 	bl	0 <flipper_format_free>
    furi_record_close(RECORD_STORAGE);
    1468:	4829      	ldr	r0, [pc, #164]	@ (1510 <sukima791+0xe8>)
    146a:	f7ff fffe 	bl	0 <furi_record_close>
    return error;
}
    146e:	4630      	mov	r0, r6
    1470:	e8bd 8ff8 	ldmia.w	sp!, {r3, r4, r5, r6, r7, r8, r9, sl, fp, pc}
DICT_DEF2(
    1474:	6860      	ldr	r0, [r4, #4]
    1476:	4639      	mov	r1, r7
    1478:	f7ff fffe 	bl	0 <furi_string_equal>
    147c:	b170      	cbz	r0, 149c <sukima791+0x74>
ARRAY_DEF(SignalPositionArray, size_t, M_DEFAULT_OPLIST); //-V658
    147e:	e9d4 2303 	ldrd	r2, r3, [r4, #12]
    1482:	429a      	cmp	r2, r3
    1484:	d317      	bcc.n	14b6 <sukima791+0x8e>
    1486:	2b08      	cmp	r3, #8
    1488:	4619      	mov	r1, r3
    148a:	bf38      	it	cc
    148c:	2108      	movcc	r1, #8
    148e:	ebb3 0f41 	cmp.w	r3, r1, lsl #1
    1492:	ea4f 0b41 	mov.w	fp, r1, lsl #1
    1496:	d303      	bcc.n	14a0 <sukima791+0x78>
    1498:	f7ff fffe 	bl	0 <abort>
DICT_DEF2(
    149c:	6824      	ldr	r4, [r4, #0]
    149e:	e031      	b.n	1504 <sukima791+0xdc>
ARRAY_DEF(SignalPositionArray, size_t, M_DEFAULT_OPLIST); //-V658
    14a0:	f1bb 4f80 	cmp.w	fp, #1073741824	@ 0x40000000
    14a4:	d2f8      	bcs.n	1498 <sukima791+0x70>
    14a6:	6960      	ldr	r0, [r4, #20]
    14a8:	00c9      	lsls	r1, r1, #3
    14aa:	f7ff fffe 	bl	0 <realloc>
    14ae:	2800      	cmp	r0, #0
    14b0:	d0f2      	beq.n	1498 <sukima791+0x70>
    14b2:	e9c4 b004 	strd	fp, r0, [r4, #16]
    14b6:	68e3      	ldr	r3, [r4, #12]
    14b8:	6962      	ldr	r2, [r4, #20]
    14ba:	1c59      	adds	r1, r3, #1
    14bc:	60e1      	str	r1, [r4, #12]
    14be:	f842 a023 	str.w	sl, [r2, r3, lsl #2]
        while(infrared_signal_read_name(ff, signal_name) == InfraredErrorCodeNone) {
    14c2:	4639      	mov	r1, r7
    14c4:	4628      	mov	r0, r5
    14c6:	f7ff fffe 	bl	1bd4 <infrared_signal_read_name>
    14ca:	2800      	cmp	r0, #0
    14cc:	d1c3      	bne.n	1456 <sukima791+0x2e>
            size_t signal_start = flipper_format_tell(ff);
    14ce:	4628      	mov	r0, r5
    14d0:	f7ff fffe 	bl	0 <flipper_format_tell>
            error = infrared_signal_read_body(signal, ff);
    14d4:	4629      	mov	r1, r5
            size_t signal_start = flipper_format_tell(ff);
    14d6:	4682      	mov	sl, r0
            error = infrared_signal_read_body(signal, ff);
    14d8:	4648      	mov	r0, r9
    14da:	f7ff fffe 	bl	192c <infrared_signal_read_body>
            signal_valid = (!INFRARED_ERROR_PRESENT(error)) && infrared_signal_is_valid(signal);
    14de:	28ff      	cmp	r0, #255	@ 0xff
            error = infrared_signal_read_body(signal, ff);
    14e0:	4606      	mov	r6, r0
            signal_valid = (!INFRARED_ERROR_PRESENT(error)) && infrared_signal_is_valid(signal);
    14e2:	d8b8      	bhi.n	1456 <sukima791+0x2e>
    14e4:	4648      	mov	r0, r9
    14e6:	f7ff fffe 	bl	1828 <infrared_signal_is_valid>
    14ea:	2800      	cmp	r0, #0
    14ec:	d0b3      	beq.n	1456 <sukima791+0x2e>
DICT_DEF2(
    14ee:	4638      	mov	r0, r7
    14f0:	f7ff fffe 	bl	0 <furi_string_hash>
    14f4:	f8d8 302c 	ldr.w	r3, [r8, #44]	@ 0x2c
    14f8:	f8d8 2034 	ldr.w	r2, [r8, #52]	@ 0x34
    14fc:	3b01      	subs	r3, #1
    14fe:	4003      	ands	r3, r0
    1500:	f852 4023 	ldr.w	r4, [r2, r3, lsl #2]
    1504:	2c00      	cmp	r4, #0
    1506:	d1b5      	bne.n	1474 <sukima791+0x4c>
ARRAY_DEF(SignalPositionArray, size_t, M_DEFAULT_OPLIST); //-V658
    1508:	6863      	ldr	r3, [r4, #4]
    150a:	deff      	udf	#255	@ 0xff
    InfraredErrorCode error = InfraredErrorCodeNone;
    150c:	2600      	movs	r6, #0
    150e:	e7d8      	b.n	14c2 <sukima791+0x9a>
    1510:	000006d8 	.word	0x000006d8

00001514 <infrared_brute_force_stop>:
bool infrared_brute_force_is_started(const InfraredBruteForce* brute_force) {
    furi_check(brute_force);
    return brute_force->is_started;
}

void infrared_brute_force_stop(InfraredBruteForce* brute_force) {
    1514:	b510      	push	{r4, lr}
    furi_check(brute_force);
    1516:	4604      	mov	r4, r0
    1518:	b918      	cbnz	r0, 1522 <sukima1343+0x4>
    151a:	f04f 0c02 	mov.w	ip, #2

0000151e <sukima1343>:
    151e:	f7ff fffe 	bl	0 <__furi_crash_implementation>
    furi_assert(brute_force->is_started);
    furi_string_reset(brute_force->current_record_name);
    1522:	6880      	ldr	r0, [r0, #8]
    1524:	f7ff fffe 	bl	0 <furi_string_reset>
    infrared_signal_free(brute_force->current_signal);
    1528:	69e0      	ldr	r0, [r4, #28]
    152a:	f7ff fffe 	bl	1810 <infrared_signal_free>
    flipper_format_free(brute_force->ff);
    152e:	6820      	ldr	r0, [r4, #0]
    1530:	f7ff fffe 	bl	0 <flipper_format_free>
    brute_force->current_signal = NULL;
    1534:	2300      	movs	r3, #0
    1536:	61e3      	str	r3, [r4, #28]
    brute_force->ff = NULL;
    1538:	6023      	str	r3, [r4, #0]
    brute_force->is_started = false;
    153a:	f884 3038 	strb.w	r3, [r4, #56]	@ 0x38
    furi_record_close(RECORD_STORAGE);
    153e:	4802      	ldr	r0, [pc, #8]	@ (1548 <sukima1343+0x2a>)
}
    1540:	e8bd 4010 	ldmia.w	sp!, {r4, lr}
    furi_record_close(RECORD_STORAGE);
    1544:	f7ff bffe 	b.w	0 <furi_record_close>
    1548:	000006d8 	.word	0x000006d8

0000154c <infrared_brute_force_start>:
    uint32_t* record_count) {
    154c:	b5f8      	push	{r3, r4, r5, r6, r7, lr}
    154e:	4617      	mov	r7, r2
    furi_check(brute_force);
    1550:	4605      	mov	r5, r0
    1552:	b918      	cbnz	r0, 155c <sukima1421+0x4>
    1554:	f04f 0c02 	mov.w	ip, #2

00001558 <sukima1421>:
    1558:	f7ff fffe 	bl	0 <__furi_crash_implementation>
    *record_count = 0;
    155c:	2300      	movs	r3, #0
    155e:	6013      	str	r3, [r2, #0]
DICT_DEF2(
    1560:	6b42      	ldr	r2, [r0, #52]	@ 0x34
    1562:	6814      	ldr	r4, [r2, #0]
    1564:	b1a4      	cbz	r4, 1590 <sukima1421+0x38>
        if(record->value.index == index) {
    1566:	68a0      	ldr	r0, [r4, #8]
    1568:	4288      	cmp	r0, r1
    156a:	d118      	bne.n	159e <sukima1421+0x46>
ARRAY_DEF(SignalPositionArray, size_t, M_DEFAULT_OPLIST); //-V658
    156c:	68e3      	ldr	r3, [r4, #12]
            *record_count = SignalPositionArray_size(record->value.signals);
    156e:	603b      	str	r3, [r7, #0]
            if(*record_count) {
    1570:	b163      	cbz	r3, 158c <sukima1421+0x34>
                furi_string_set(brute_force->current_record_name, record->key);
    1572:	6861      	ldr	r1, [r4, #4]
    1574:	68a8      	ldr	r0, [r5, #8]
                brute_force->current_record = record->value;
    1576:	3408      	adds	r4, #8
                furi_string_set(brute_force->current_record_name, record->key);
    1578:	f7ff fffe 	bl	0 <furi_string_set>
                brute_force->current_record = record->value;
    157c:	e894 000f 	ldmia.w	r4, {r0, r1, r2, r3}
    1580:	f105 060c 	add.w	r6, r5, #12
    1584:	e886 000f 	stmia.w	r6, {r0, r1, r2, r3}
    if(*record_count) {
    1588:	683b      	ldr	r3, [r7, #0]
    158a:	b993      	cbnz	r3, 15b2 <sukima1421+0x5a>
    bool success = false;
    158c:	2000      	movs	r0, #0
}
    158e:	bdf8      	pop	{r3, r4, r5, r6, r7, pc}
DICT_DEF2(
    1590:	6ae8      	ldr	r0, [r5, #44]	@ 0x2c
    1592:	3301      	adds	r3, #1
    1594:	4283      	cmp	r3, r0
    1596:	d2f9      	bcs.n	158c <sukima1421+0x34>
    1598:	f852 4023 	ldr.w	r4, [r2, r3, lsl #2]
    159c:	e7e2      	b.n	1564 <sukima1421+0xc>
    159e:	6824      	ldr	r4, [r4, #0]
    15a0:	2c00      	cmp	r4, #0
    15a2:	d1e0      	bne.n	1566 <sukima1421+0xe>
    15a4:	6ae8      	ldr	r0, [r5, #44]	@ 0x2c
    15a6:	3301      	adds	r3, #1
    15a8:	4283      	cmp	r3, r0
    15aa:	d2ef      	bcs.n	158c <sukima1421+0x34>
    15ac:	f852 4023 	ldr.w	r4, [r2, r3, lsl #2]
    15b0:	e7f6      	b.n	15a0 <sukima1421+0x48>
        Storage* storage = furi_record_open(RECORD_STORAGE);
    15b2:	480b      	ldr	r0, [pc, #44]	@ (15e0 <sukima1421+0x88>)
    15b4:	f7ff fffe 	bl	0 <furi_record_open>
        brute_force->ff = flipper_format_buffered_file_alloc(storage);
    15b8:	f7ff fffe 	bl	0 <flipper_format_buffered_file_alloc>
    15bc:	6028      	str	r0, [r5, #0]
        brute_force->current_signal = infrared_signal_alloc();
    15be:	f7ff fffe 	bl	17fe <infrared_signal_alloc>
        brute_force->is_started = true;
    15c2:	2301      	movs	r3, #1
        brute_force->current_signal = infrared_signal_alloc();
    15c4:	61e8      	str	r0, [r5, #28]
        brute_force->is_started = true;
    15c6:	f885 3038 	strb.w	r3, [r5, #56]	@ 0x38
            flipper_format_buffered_file_open_existing(brute_force->ff, brute_force->db_filename);
    15ca:	e9d5 0100 	ldrd	r0, r1, [r5]
    15ce:	f7ff fffe 	bl	0 <flipper_format_buffered_file_open_existing>
        if(!success) infrared_brute_force_stop(brute_force);
    15d2:	2800      	cmp	r0, #0
    15d4:	d1db      	bne.n	158e <sukima1421+0x36>
    15d6:	4628      	mov	r0, r5
    15d8:	f7ff fffe 	bl	1514 <infrared_brute_force_stop>
    15dc:	e7d6      	b.n	158c <sukima1421+0x34>
    15de:	bf00      	nop
    15e0:	000006d8 	.word	0x000006d8

000015e4 <infrared_brute_force_send>:

bool infrared_brute_force_send(InfraredBruteForce* brute_force, uint32_t signal_index) {
    15e4:	b538      	push	{r3, r4, r5, lr}
    furi_check(brute_force);
    15e6:	4604      	mov	r4, r0
    15e8:	b918      	cbnz	r0, 15f2 <sukima1862+0x4>
    15ea:	f04f 0c02 	mov.w	ip, #2

000015ee <sukima1862>:
    15ee:	f7ff fffe 	bl	0 <__furi_crash_implementation>
    furi_assert(brute_force->is_started);

    if(signal_index >= SignalPositionArray_size(brute_force->current_record.signals)) return false;
    15f2:	6903      	ldr	r3, [r0, #16]
    15f4:	4299      	cmp	r1, r3
    15f6:	d302      	bcc.n	15fe <sukima1862+0x10>
    15f8:	2500      	movs	r5, #0
           infrared_signal_read_body(brute_force->current_signal, brute_force->ff)))
        return false;

    infrared_signal_transmit(brute_force->current_signal);
    return true;
}
    15fa:	4628      	mov	r0, r5
    15fc:	bd38      	pop	{r3, r4, r5, pc}
    size_t signal_start =
    15fe:	6983      	ldr	r3, [r0, #24]
    if(!flipper_format_seek(brute_force->ff, signal_start, FlipperFormatOffsetFromStart))
    1600:	6800      	ldr	r0, [r0, #0]
    1602:	f853 1021 	ldr.w	r1, [r3, r1, lsl #2]
    1606:	2201      	movs	r2, #1
    1608:	f7ff fffe 	bl	0 <flipper_format_seek>
    160c:	4605      	mov	r5, r0
    160e:	2800      	cmp	r0, #0
    1610:	d0f2      	beq.n	15f8 <sukima1862+0xa>
    if(INFRARED_ERROR_PRESENT(
    1612:	6821      	ldr	r1, [r4, #0]
    1614:	69e0      	ldr	r0, [r4, #28]
    1616:	f7ff fffe 	bl	192c <infrared_signal_read_body>
    161a:	28ff      	cmp	r0, #255	@ 0xff
    161c:	d8ec      	bhi.n	15f8 <sukima1862+0xa>
    infrared_signal_transmit(brute_force->current_signal);
    161e:	69e0      	ldr	r0, [r4, #28]
    1620:	f7ff fffe 	bl	1c10 <infrared_signal_transmit>
    return true;
    1624:	e7e9      	b.n	15fa <sukima1862+0xc>

00001626 <infrared_brute_force_add_record>:

void infrared_brute_force_add_record(
    InfraredBruteForce* brute_force,
    uint32_t index,
    const char* name) {
    1626:	e92d 4ff0 	stmdb	sp!, {r4, r5, r6, r7, r8, r9, sl, fp, lr}
    162a:	4605      	mov	r5, r0
    162c:	b08d      	sub	sp, #52	@ 0x34
    InfraredBruteForceRecord value;
    ir_bf_record_init(&value);
    value.index = index;
    FuriString* key;
    key = furi_string_alloc_set(name);
    162e:	4610      	mov	r0, r2
    const char* name) {
    1630:	460e      	mov	r6, r1
    key = furi_string_alloc_set(name);
    1632:	f7ff fffe 	bl	0 <furi_string_alloc_set_str>
    1636:	2300      	movs	r3, #0
    1638:	e9cd 3305 	strd	r3, r3, [sp, #20]
    163c:	4680      	mov	r8, r0
    InfraredBruteForceRecordDict_set_at(brute_force->records, key, value);
    163e:	9604      	str	r6, [sp, #16]
    1640:	9307      	str	r3, [sp, #28]
DICT_DEF2(
    1642:	f7ff fffe 	bl	0 <furi_string_hash>
    1646:	6aef      	ldr	r7, [r5, #44]	@ 0x2c
    1648:	f8d5 9034 	ldr.w	r9, [r5, #52]	@ 0x34
    164c:	3f01      	subs	r7, #1
    164e:	4007      	ands	r7, r0
    1650:	f859 4027 	ldr.w	r4, [r9, r7, lsl #2]
    1654:	b934      	cbnz	r4, 1664 <infrared_brute_force_add_record+0x3e>
    1656:	2018      	movs	r0, #24
    1658:	f7ff fffe 	bl	0 <malloc>
    165c:	4606      	mov	r6, r0
    165e:	b9a0      	cbnz	r0, 168a <infrared_brute_force_add_record+0x64>
    1660:	f7ff fffe 	bl	0 <abort>
    1664:	6860      	ldr	r0, [r4, #4]
    1666:	4641      	mov	r1, r8
    1668:	f7ff fffe 	bl	0 <furi_string_equal>
    166c:	b158      	cbz	r0, 1686 <infrared_brute_force_add_record+0x60>
    dest->index = src->index;
    166e:	60a6      	str	r6, [r4, #8]
    SignalPositionArray_set(dest->signals, src->signals);
    1670:	a905      	add	r1, sp, #20
    1672:	f104 000c 	add.w	r0, r4, #12
    1676:	f7ff fffe 	bl	129e <SignalPositionArray_set>
    furi_string_free(key);
    167a:	4640      	mov	r0, r8
}
    167c:	b00d      	add	sp, #52	@ 0x34
    167e:	e8bd 4ff0 	ldmia.w	sp!, {r4, r5, r6, r7, r8, r9, sl, fp, lr}
    furi_string_free(key);
    1682:	f7ff bffe 	b.w	0 <furi_string_free>
DICT_DEF2(
    1686:	6824      	ldr	r4, [r4, #0]
    1688:	e7e4      	b.n	1654 <infrared_brute_force_add_record+0x2e>
    168a:	f859 3027 	ldr.w	r3, [r9, r7, lsl #2]
    168e:	6003      	str	r3, [r0, #0]
    1690:	ab04      	add	r3, sp, #16
    1692:	f849 0027 	str.w	r0, [r9, r7, lsl #2]
    1696:	cb0f      	ldmia	r3, {r0, r1, r2, r3}
    1698:	af0c      	add	r7, sp, #48	@ 0x30
    169a:	e907 000f 	stmdb	r7, {r0, r1, r2, r3}
    169e:	4640      	mov	r0, r8
    16a0:	f7ff fffe 	bl	0 <furi_string_alloc_set>
    dest->index = src->index;
    16a4:	9b08      	ldr	r3, [sp, #32]
DICT_DEF2(
    16a6:	6070      	str	r0, [r6, #4]
ARRAY_DEF(SignalPositionArray, size_t, M_DEFAULT_OPLIST); //-V658
    16a8:	e9c6 3402 	strd	r3, r4, [r6, #8]
    16ac:	e9c6 4404 	strd	r4, r4, [r6, #16]
    16b0:	a909      	add	r1, sp, #36	@ 0x24
    16b2:	f106 000c 	add.w	r0, r6, #12
    16b6:	f7ff fffe 	bl	129e <SignalPositionArray_set>
DICT_DEF2(
    16ba:	6a2b      	ldr	r3, [r5, #32]
    16bc:	6aaa      	ldr	r2, [r5, #40]	@ 0x28
    16be:	3301      	adds	r3, #1
    16c0:	4293      	cmp	r3, r2
    16c2:	622b      	str	r3, [r5, #32]
    16c4:	d9d9      	bls.n	167a <infrared_brute_force_add_record+0x54>
    16c6:	f8d5 902c 	ldr.w	r9, [r5, #44]	@ 0x2c
    16ca:	ebb9 0f49 	cmp.w	r9, r9, lsl #1
    16ce:	ea4f 0749 	mov.w	r7, r9, lsl #1
    16d2:	d2c5      	bcs.n	1660 <infrared_brute_force_add_record+0x3a>
    16d4:	4639      	mov	r1, r7
    16d6:	f105 002c 	add.w	r0, r5, #44	@ 0x2c
    16da:	f7ff fffe 	bl	1348 <InfraredBruteForceRecordDict_array_list_pair_resize>
    16de:	ea4f 0a89 	mov.w	sl, r9, lsl #2
    16e2:	1e7b      	subs	r3, r7, #1
    16e4:	46d3      	mov	fp, sl
    16e6:	9301      	str	r3, [sp, #4]
    16e8:	45a1      	cmp	r9, r4
    16ea:	d109      	bne.n	1700 <infrared_brute_force_add_record+0xda>
    16ec:	2f10      	cmp	r7, #16
    16ee:	bf8c      	ite	hi
    16f0:	08bf      	lsrhi	r7, r7, #2
    16f2:	2700      	movls	r7, #0
    16f4:	2303      	movs	r3, #3
    16f6:	626f      	str	r7, [r5, #36]	@ 0x24
    16f8:	fbba f3f3 	udiv	r3, sl, r3
    16fc:	62ab      	str	r3, [r5, #40]	@ 0x28
    16fe:	e7bc      	b.n	167a <infrared_brute_force_add_record+0x54>
    1700:	6b6b      	ldr	r3, [r5, #52]	@ 0x34
    1702:	f853 6024 	ldr.w	r6, [r3, r4, lsl #2]
    1706:	eb03 0c84 	add.w	ip, r3, r4, lsl #2
    170a:	b91e      	cbnz	r6, 1714 <infrared_brute_force_add_record+0xee>
    170c:	3401      	adds	r4, #1
    170e:	f10b 0b04 	add.w	fp, fp, #4
    1712:	e7e9      	b.n	16e8 <infrared_brute_force_add_record+0xc2>
    1714:	2300      	movs	r3, #0
    1716:	6870      	ldr	r0, [r6, #4]
    1718:	e9cd 3c02 	strd	r3, ip, [sp, #8]
    171c:	f7ff fffe 	bl	0 <furi_string_hash>
    1720:	9b01      	ldr	r3, [sp, #4]
    1722:	6832      	ldr	r2, [r6, #0]
    1724:	f8dd c00c 	ldr.w	ip, [sp, #12]
    1728:	4018      	ands	r0, r3
    172a:	4581      	cmp	r9, r0
    172c:	d80e      	bhi.n	174c <infrared_brute_force_add_record+0x126>
    172e:	6b68      	ldr	r0, [r5, #52]	@ 0x34
    1730:	9b02      	ldr	r3, [sp, #8]
    1732:	4458      	add	r0, fp
    1734:	b943      	cbnz	r3, 1748 <infrared_brute_force_add_record+0x122>
    1736:	f8cc 2000 	str.w	r2, [ip]
    173a:	6801      	ldr	r1, [r0, #0]
    173c:	6031      	str	r1, [r6, #0]
    173e:	6006      	str	r6, [r0, #0]
    1740:	4616      	mov	r6, r2
    1742:	2a00      	cmp	r2, #0
    1744:	d1e7      	bne.n	1716 <infrared_brute_force_add_record+0xf0>
    1746:	e7e1      	b.n	170c <infrared_brute_force_add_record+0xe6>
    1748:	601a      	str	r2, [r3, #0]
    174a:	e7f6      	b.n	173a <infrared_brute_force_add_record+0x114>
    174c:	4633      	mov	r3, r6
    174e:	e7f7      	b.n	1740 <infrared_brute_force_add_record+0x11a>

00001750 <infrared_brute_force_reset>:

void infrared_brute_force_reset(InfraredBruteForce* brute_force) {
    1750:	b538      	push	{r3, r4, r5, lr}
DICT_DEF2(
    1752:	f100 052c 	add.w	r5, r0, #44	@ 0x2c
void infrared_brute_force_reset(InfraredBruteForce* brute_force) {
    1756:	4604      	mov	r4, r0
DICT_DEF2(
    1758:	4628      	mov	r0, r5
    175a:	f7ff fffe 	bl	1328 <InfraredBruteForceRecordDict_array_list_pair_reset>
    175e:	2110      	movs	r1, #16
    1760:	4628      	mov	r0, r5
    1762:	f7ff fffe 	bl	1348 <InfraredBruteForceRecordDict_array_list_pair_resize>
    1766:	2300      	movs	r3, #0
    1768:	220a      	movs	r2, #10
    176a:	e9c4 3209 	strd	r3, r2, [r4, #36]	@ 0x24
    176e:	6223      	str	r3, [r4, #32]
    furi_assert(!brute_force->is_started);
    InfraredBruteForceRecordDict_reset(brute_force->records);
}
    1770:	bd38      	pop	{r3, r4, r5, pc}
	...

00001774 <infrared_signal_is_message_valid>:
        signal->payload.raw.timings_size = 0;
        signal->payload.raw.timings = NULL;
    }
}

static bool infrared_signal_is_message_valid(const InfraredMessage* message) {
    1774:	b573      	push	{r0, r1, r4, r5, r6, lr}
    1776:	4605      	mov	r5, r0
    if(!infrared_is_protocol_valid(message->protocol)) {
    1778:	f990 0000 	ldrsb.w	r0, [r0]
    177c:	f7ff fffe 	bl	1226 <infrared_is_protocol_valid>
    1780:	4606      	mov	r6, r0
    1782:	b940      	cbnz	r0, 1796 <infrared_signal_is_message_valid+0x22>
        FURI_LOG_E(TAG, "Unknown protocol");
    1784:	4a14      	ldr	r2, [pc, #80]	@ (17d8 <infrared_signal_is_message_valid+0x64>)
    1786:	4915      	ldr	r1, [pc, #84]	@ (17dc <infrared_signal_is_message_valid+0x68>)
    1788:	2002      	movs	r0, #2
    178a:	f7ff fffe 	bl	0 <furi_log_print_format>
        return false;
    178e:	2600      	movs	r6, #0
            message->command);
        return false;
    }

    return true;
}
    1790:	4630      	mov	r0, r6
    1792:	b002      	add	sp, #8
    1794:	bd70      	pop	{r4, r5, r6, pc}
    uint32_t address_length = infrared_get_protocol_address_length(message->protocol);
    1796:	f995 0000 	ldrsb.w	r0, [r5]
    179a:	f7ff fffe 	bl	126a <infrared_get_protocol_address_length>
    uint32_t address_mask = (1UL << address_length) - 1;
    179e:	2401      	movs	r4, #1
    if(message->address != (message->address & address_mask)) {
    17a0:	686a      	ldr	r2, [r5, #4]
    uint32_t address_mask = (1UL << address_length) - 1;
    17a2:	fa04 f300 	lsl.w	r3, r4, r0
    17a6:	3b01      	subs	r3, #1
    if(message->address != (message->address & address_mask)) {
    17a8:	ea32 0103 	bics.w	r1, r2, r3
    17ac:	d006      	beq.n	17bc <infrared_signal_is_message_valid+0x48>
        FURI_LOG_E(
    17ae:	9200      	str	r2, [sp, #0]
    17b0:	4a0b      	ldr	r2, [pc, #44]	@ (17e0 <infrared_signal_is_message_valid+0x6c>)
    17b2:	490a      	ldr	r1, [pc, #40]	@ (17dc <infrared_signal_is_message_valid+0x68>)
    17b4:	2002      	movs	r0, #2
    17b6:	f7ff fffe 	bl	0 <furi_log_print_format>
        return false;
    17ba:	e7e8      	b.n	178e <infrared_signal_is_message_valid+0x1a>
    uint32_t command_length = infrared_get_protocol_command_length(message->protocol);
    17bc:	f995 0000 	ldrsb.w	r0, [r5]
    17c0:	f7ff fffe 	bl	1274 <infrared_get_protocol_command_length>
    if(message->command != (message->command & command_mask)) {
    17c4:	68aa      	ldr	r2, [r5, #8]
    uint32_t command_mask = (1UL << command_length) - 1;
    17c6:	fa04 f300 	lsl.w	r3, r4, r0
    17ca:	3b01      	subs	r3, #1
    if(message->command != (message->command & command_mask)) {
    17cc:	ea32 0103 	bics.w	r1, r2, r3
    17d0:	d0de      	beq.n	1790 <infrared_signal_is_message_valid+0x1c>
        FURI_LOG_E(
    17d2:	9200      	str	r2, [sp, #0]
    17d4:	4a03      	ldr	r2, [pc, #12]	@ (17e4 <infrared_signal_is_message_valid+0x70>)
    17d6:	e7ec      	b.n	17b2 <infrared_signal_is_message_valid+0x3e>
    17d8:	000006e0 	.word	0x000006e0
    17dc:	000006f1 	.word	0x000006f1
    17e0:	00000700 	.word	0x00000700
    17e4:	00000730 	.word	0x00000730

000017e8 <infrared_signal_clear_timings>:
    if(signal->is_raw) {
    17e8:	7803      	ldrb	r3, [r0, #0]
static void infrared_signal_clear_timings(InfraredSignal* signal) {
    17ea:	b510      	push	{r4, lr}
    17ec:	4604      	mov	r4, r0
    if(signal->is_raw) {
    17ee:	b12b      	cbz	r3, 17fc <infrared_signal_clear_timings+0x14>
        free(signal->payload.raw.timings);
    17f0:	6880      	ldr	r0, [r0, #8]
    17f2:	f7ff fffe 	bl	0 <free>
        signal->payload.raw.timings_size = 0;
    17f6:	2300      	movs	r3, #0
        signal->payload.raw.timings = NULL;
    17f8:	e9c4 3301 	strd	r3, r3, [r4, #4]
}
    17fc:	bd10      	pop	{r4, pc}

000017fe <infrared_signal_alloc>:
    furi_string_free(tmp);

    return error;
}

InfraredSignal* infrared_signal_alloc(void) {
    17fe:	b508      	push	{r3, lr}
    InfraredSignal* signal = malloc(sizeof(InfraredSignal));
    1800:	2014      	movs	r0, #20
    1802:	f7ff fffe 	bl	0 <malloc>

    signal->is_raw = false;
    1806:	2200      	movs	r2, #0
    1808:	7002      	strb	r2, [r0, #0]
    signal->payload.message.protocol = InfraredProtocolUnknown;
    180a:	22ff      	movs	r2, #255	@ 0xff
    180c:	7102      	strb	r2, [r0, #4]

    return signal;
}
    180e:	bd08      	pop	{r3, pc}

00001810 <infrared_signal_free>:

void infrared_signal_free(InfraredSignal* signal) {
    1810:	b510      	push	{r4, lr}
    1812:	4604      	mov	r4, r0
    infrared_signal_clear_timings(signal);
    1814:	f7ff fffe 	bl	17e8 <infrared_signal_clear_timings>
    free(signal);
    1818:	4620      	mov	r0, r4
}
    181a:	e8bd 4010 	ldmia.w	sp!, {r4, lr}
    free(signal);
    181e:	f7ff bffe 	b.w	0 <free>

00001822 <infrared_signal_is_raw>:

bool infrared_signal_is_raw(const InfraredSignal* signal) {
    return signal->is_raw;
}
    1822:	7800      	ldrb	r0, [r0, #0]
    1824:	4770      	bx	lr
	...

00001828 <infrared_signal_is_valid>:

bool infrared_signal_is_valid(const InfraredSignal* signal) {
    1828:	b513      	push	{r0, r1, r4, lr}
    182a:	4603      	mov	r3, r0
    return signal->is_raw ? infrared_signal_is_raw_valid(&signal->payload.raw) :
    182c:	7800      	ldrb	r0, [r0, #0]
    182e:	2800      	cmp	r0, #0
    1830:	d03b      	beq.n	18aa <infrared_signal_is_valid+0x82>
    if((raw->frequency > INFRARED_MAX_FREQUENCY) || (raw->frequency < INFRARED_MIN_FREQUENCY)) {
    1832:	68d9      	ldr	r1, [r3, #12]
    1834:	4c20      	ldr	r4, [pc, #128]	@ (18b8 <infrared_signal_is_valid+0x90>)
    1836:	f5a1 521c 	sub.w	r2, r1, #9984	@ 0x2700
    183a:	3a10      	subs	r2, #16
    183c:	42a2      	cmp	r2, r4
    183e:	d90c      	bls.n	185a <infrared_signal_is_valid+0x32>
        FURI_LOG_E(
    1840:	4b1e      	ldr	r3, [pc, #120]	@ (18bc <infrared_signal_is_valid+0x94>)
    1842:	9101      	str	r1, [sp, #4]
    1844:	9300      	str	r3, [sp, #0]
    1846:	4a1e      	ldr	r2, [pc, #120]	@ (18c0 <infrared_signal_is_valid+0x98>)
    1848:	491e      	ldr	r1, [pc, #120]	@ (18c4 <infrared_signal_is_valid+0x9c>)
    184a:	f242 7310 	movw	r3, #10000	@ 0x2710
    184e:	2002      	movs	r0, #2
    1850:	f7ff fffe 	bl	0 <furi_log_print_format>
        return false;
    1854:	2000      	movs	r0, #0
                            infrared_signal_is_message_valid(&signal->payload.message);
}
    1856:	b002      	add	sp, #8
    1858:	bd10      	pop	{r4, pc}
    } else if((raw->duty_cycle <= 0) || (raw->duty_cycle > 1.f)) {
    185a:	edd3 7a04 	vldr	s15, [r3, #16]
    185e:	eef5 7ac0 	vcmpe.f32	s15, #0.0
    1862:	eef1 fa10 	vmrs	APSR_nzcv, fpscr
    1866:	d906      	bls.n	1876 <infrared_signal_is_valid+0x4e>
    1868:	eeb7 7a00 	vmov.f32	s14, #112	@ 0x3f800000  1.0
    186c:	eef4 7ac7 	vcmpe.f32	s15, s14
    1870:	eef1 fa10 	vmrs	APSR_nzcv, fpscr
    1874:	dd0b      	ble.n	188e <infrared_signal_is_valid+0x66>
        FURI_LOG_E(TAG, "Duty cycle is out of range (0 - 1): %f", (double)raw->duty_cycle);
    1876:	ee17 0a90 	vmov	r0, s15
    187a:	f7ff fffe 	bl	0 <__aeabi_f2d>
    187e:	4a12      	ldr	r2, [pc, #72]	@ (18c8 <infrared_signal_is_valid+0xa0>)
    1880:	e9cd 0100 	strd	r0, r1, [sp]
    1884:	490f      	ldr	r1, [pc, #60]	@ (18c4 <infrared_signal_is_valid+0x9c>)
    1886:	2002      	movs	r0, #2
    1888:	f7ff fffe 	bl	0 <furi_log_print_format>
        return false;
    188c:	e7e2      	b.n	1854 <infrared_signal_is_valid+0x2c>
    } else if((raw->timings_size <= 0) || (raw->timings_size > MAX_TIMINGS_AMOUNT)) {
    188e:	685b      	ldr	r3, [r3, #4]
    1890:	1e5a      	subs	r2, r3, #1
    1892:	f5b2 6f80 	cmp.w	r2, #1024	@ 0x400
    1896:	d3de      	bcc.n	1856 <infrared_signal_is_valid+0x2e>
        FURI_LOG_E(
    1898:	9300      	str	r3, [sp, #0]
    189a:	4a0c      	ldr	r2, [pc, #48]	@ (18cc <infrared_signal_is_valid+0xa4>)
    189c:	4909      	ldr	r1, [pc, #36]	@ (18c4 <infrared_signal_is_valid+0x9c>)
    189e:	f44f 6380 	mov.w	r3, #1024	@ 0x400
    18a2:	2002      	movs	r0, #2
    18a4:	f7ff fffe 	bl	0 <furi_log_print_format>
        return false;
    18a8:	e7d4      	b.n	1854 <infrared_signal_is_valid+0x2c>
                            infrared_signal_is_message_valid(&signal->payload.message);
    18aa:	1d18      	adds	r0, r3, #4
}
    18ac:	b002      	add	sp, #8
    18ae:	e8bd 4010 	ldmia.w	sp!, {r4, lr}
                            infrared_signal_is_message_valid(&signal->payload.message);
    18b2:	f7ff bffe 	b.w	1774 <infrared_signal_is_message_valid>
    18b6:	bf00      	nop
    18b8:	000f1b30 	.word	0x000f1b30
    18bc:	000f4240 	.word	0x000f4240
    18c0:	00000760 	.word	0x00000760
    18c4:	000006f1 	.word	0x000006f1
    18c8:	00000789 	.word	0x00000789
    18cc:	000007b0 	.word	0x000007b0

000018d0 <infrared_signal_set_raw_signal>:
void infrared_signal_set_raw_signal(
    InfraredSignal* signal,
    const uint32_t* timings,
    size_t timings_size,
    uint32_t frequency,
    float duty_cycle) {
    18d0:	b5f8      	push	{r3, r4, r5, r6, r7, lr}
    18d2:	4605      	mov	r5, r0
    18d4:	ed2d 8b02 	vpush	{d8}
    18d8:	4614      	mov	r4, r2
    18da:	460e      	mov	r6, r1
    18dc:	461f      	mov	r7, r3
    18de:	eeb0 8a40 	vmov.f32	s16, s0
    infrared_signal_clear_timings(signal);
    18e2:	f7ff fffe 	bl	17e8 <infrared_signal_clear_timings>

    signal->is_raw = true;
    18e6:	2301      	movs	r3, #1

    signal->payload.raw.timings_size = timings_size;
    18e8:	606c      	str	r4, [r5, #4]
    signal->payload.raw.frequency = frequency;
    signal->payload.raw.duty_cycle = duty_cycle;

    signal->payload.raw.timings = malloc(timings_size * sizeof(uint32_t));
    18ea:	00a4      	lsls	r4, r4, #2
    signal->payload.raw.duty_cycle = duty_cycle;
    18ec:	ed85 8a04 	vstr	s16, [r5, #16]
    signal->is_raw = true;
    18f0:	702b      	strb	r3, [r5, #0]
    signal->payload.raw.frequency = frequency;
    18f2:	60ef      	str	r7, [r5, #12]
    signal->payload.raw.timings = malloc(timings_size * sizeof(uint32_t));
    18f4:	4620      	mov	r0, r4
    18f6:	f7ff fffe 	bl	0 <malloc>
    memcpy(signal->payload.raw.timings, timings, timings_size * sizeof(uint32_t));
}
    18fa:	ecbd 8b02 	vpop	{d8}
    signal->payload.raw.timings = malloc(timings_size * sizeof(uint32_t));
    18fe:	60a8      	str	r0, [r5, #8]
    memcpy(signal->payload.raw.timings, timings, timings_size * sizeof(uint32_t));
    1900:	4622      	mov	r2, r4
    1902:	4631      	mov	r1, r6
}
    1904:	e8bd 40f8 	ldmia.w	sp!, {r3, r4, r5, r6, r7, lr}
    memcpy(signal->payload.raw.timings, timings, timings_size * sizeof(uint32_t));
    1908:	f7ff bffe 	b.w	0 <memcpy>

0000190c <infrared_signal_get_raw_signal>:

const InfraredRawSignal* infrared_signal_get_raw_signal(const InfraredSignal* signal) {
    furi_assert(signal->is_raw);
    return &signal->payload.raw;
}
    190c:	3004      	adds	r0, #4
    190e:	4770      	bx	lr

00001910 <infrared_signal_set_message>:

void infrared_signal_set_message(InfraredSignal* signal, const InfraredMessage* message) {
    1910:	b538      	push	{r3, r4, r5, lr}
    1912:	4604      	mov	r4, r0
    1914:	460d      	mov	r5, r1
    infrared_signal_clear_timings(signal);
    1916:	f7ff fffe 	bl	17e8 <infrared_signal_clear_timings>

    signal->is_raw = false;
    191a:	2300      	movs	r3, #0
    191c:	f804 3b04 	strb.w	r3, [r4], #4
    signal->payload.message = *message;
    1920:	e895 000f 	ldmia.w	r5, {r0, r1, r2, r3}
    1924:	e884 000f 	stmia.w	r4, {r0, r1, r2, r3}
}
    1928:	bd38      	pop	{r3, r4, r5, pc}
	...

0000192c <infrared_signal_read_body>:
InfraredErrorCode infrared_signal_read_body(InfraredSignal* signal, FlipperFormat* ff) {
    192c:	e92d 41f0 	stmdb	sp!, {r4, r5, r6, r7, r8, lr}
    1930:	b086      	sub	sp, #24
    1932:	460d      	mov	r5, r1
    1934:	4680      	mov	r8, r0
    FuriString* tmp = furi_string_alloc();
    1936:	f7ff fffe 	bl	0 <furi_string_alloc>
        if(!flipper_format_read_string(ff, INFRARED_SIGNAL_TYPE_KEY, tmp)) {
    193a:	494b      	ldr	r1, [pc, #300]	@ (1a68 <infrared_signal_read_body+0x13c>)
    FuriString* tmp = furi_string_alloc();
    193c:	4606      	mov	r6, r0
        if(!flipper_format_read_string(ff, INFRARED_SIGNAL_TYPE_KEY, tmp)) {
    193e:	4602      	mov	r2, r0
    1940:	4628      	mov	r0, r5
    1942:	f7ff fffe 	bl	0 <flipper_format_read_string>
    1946:	2800      	cmp	r0, #0
    1948:	f000 808c 	beq.w	1a64 <infrared_signal_read_body+0x138>
        if(furi_string_equal(tmp, INFRARED_SIGNAL_TYPE_RAW)) {
    194c:	4947      	ldr	r1, [pc, #284]	@ (1a6c <infrared_signal_read_body+0x140>)
    194e:	4630      	mov	r0, r6
    1950:	f7ff fffe 	bl	0 <furi_string_equal_str>
    1954:	4604      	mov	r4, r0
    1956:	2800      	cmp	r0, #0
    1958:	d042      	beq.n	19e0 <infrared_signal_read_body+0xb4>
        if(!flipper_format_read_uint32(ff, INFRARED_SIGNAL_FREQUENCY_KEY, &frequency, 1)) {
    195a:	4945      	ldr	r1, [pc, #276]	@ (1a70 <infrared_signal_read_body+0x144>)
    195c:	2301      	movs	r3, #1
    195e:	466a      	mov	r2, sp
    1960:	4628      	mov	r0, r5
    1962:	f7ff fffe 	bl	0 <flipper_format_read_uint32>
    1966:	b398      	cbz	r0, 19d0 <infrared_signal_read_body+0xa4>
        if(!flipper_format_read_float(ff, INFRARED_SIGNAL_DUTY_CYCLE_KEY, &duty_cycle, 1)) {
    1968:	4942      	ldr	r1, [pc, #264]	@ (1a74 <infrared_signal_read_body+0x148>)
    196a:	2301      	movs	r3, #1
    196c:	aa01      	add	r2, sp, #4
    196e:	4628      	mov	r0, r5
    1970:	f7ff fffe 	bl	0 <flipper_format_read_float>
    1974:	b370      	cbz	r0, 19d4 <infrared_signal_read_body+0xa8>
        if(!flipper_format_get_value_count(ff, INFRARED_SIGNAL_DATA_KEY, &timings_size)) {
    1976:	4940      	ldr	r1, [pc, #256]	@ (1a78 <infrared_signal_read_body+0x14c>)
    1978:	aa02      	add	r2, sp, #8
    197a:	4628      	mov	r0, r5
    197c:	f7ff fffe 	bl	0 <flipper_format_get_value_count>
    1980:	b350      	cbz	r0, 19d8 <infrared_signal_read_body+0xac>
        if(timings_size > MAX_TIMINGS_AMOUNT) {
    1982:	9f02      	ldr	r7, [sp, #8]
    1984:	f5b7 6f80 	cmp.w	r7, #1024	@ 0x400
    1988:	d828      	bhi.n	19dc <infrared_signal_read_body+0xb0>
        uint32_t* timings = malloc(sizeof(uint32_t) * timings_size);
    198a:	00b8      	lsls	r0, r7, #2
    198c:	f7ff fffe 	bl	0 <malloc>
        if(!flipper_format_read_uint32(ff, INFRARED_SIGNAL_DATA_KEY, timings, timings_size)) {
    1990:	4939      	ldr	r1, [pc, #228]	@ (1a78 <infrared_signal_read_body+0x14c>)
        uint32_t* timings = malloc(sizeof(uint32_t) * timings_size);
    1992:	4604      	mov	r4, r0
        if(!flipper_format_read_uint32(ff, INFRARED_SIGNAL_DATA_KEY, timings, timings_size)) {
    1994:	4602      	mov	r2, r0
    1996:	b2bb      	uxth	r3, r7
    1998:	4628      	mov	r0, r5
    199a:	f7ff fffe 	bl	0 <flipper_format_read_uint32>
    199e:	b950      	cbnz	r0, 19b6 <infrared_signal_read_body+0x8a>
            free(timings);
    19a0:	4620      	mov	r0, r4
    19a2:	f7ff fffe 	bl	0 <free>
            error = InfraredErrorCodeSignalRawUnableToReadData;
    19a6:	4c35      	ldr	r4, [pc, #212]	@ (1a7c <infrared_signal_read_body+0x150>)
    furi_string_free(tmp);
    19a8:	4630      	mov	r0, r6
    19aa:	f7ff fffe 	bl	0 <furi_string_free>
}
    19ae:	4620      	mov	r0, r4
    19b0:	b006      	add	sp, #24
    19b2:	e8bd 81f0 	ldmia.w	sp!, {r4, r5, r6, r7, r8, pc}
        infrared_signal_set_raw_signal(signal, timings, timings_size, frequency, duty_cycle);
    19b6:	4621      	mov	r1, r4
    19b8:	ed9d 0a01 	vldr	s0, [sp, #4]
    19bc:	9b00      	ldr	r3, [sp, #0]
    19be:	9a02      	ldr	r2, [sp, #8]
    19c0:	4640      	mov	r0, r8
    19c2:	f7ff fffe 	bl	18d0 <infrared_signal_set_raw_signal>
        free(timings);
    19c6:	4620      	mov	r0, r4
    19c8:	f7ff fffe 	bl	0 <free>
        error = InfraredErrorCodeNone;
    19cc:	2400      	movs	r4, #0
    19ce:	e7eb      	b.n	19a8 <infrared_signal_read_body+0x7c>
            error = InfraredErrorCodeSignalRawUnableToReadFrequency;
    19d0:	4c2b      	ldr	r4, [pc, #172]	@ (1a80 <infrared_signal_read_body+0x154>)
    19d2:	e7e9      	b.n	19a8 <infrared_signal_read_body+0x7c>
            error = InfraredErrorCodeSignalRawUnableToReadDutyCycle;
    19d4:	4c2b      	ldr	r4, [pc, #172]	@ (1a84 <infrared_signal_read_body+0x158>)
    19d6:	e7e7      	b.n	19a8 <infrared_signal_read_body+0x7c>
            error = InfraredErrorCodeSignalRawUnableToReadTimingsSize;
    19d8:	4c2b      	ldr	r4, [pc, #172]	@ (1a88 <infrared_signal_read_body+0x15c>)
    19da:	e7e5      	b.n	19a8 <infrared_signal_read_body+0x7c>
            error = InfraredErrorCodeSignalRawUnableToReadTooLongData;
    19dc:	4c2b      	ldr	r4, [pc, #172]	@ (1a8c <infrared_signal_read_body+0x160>)
    19de:	e7e3      	b.n	19a8 <infrared_signal_read_body+0x7c>
        } else if(furi_string_equal(tmp, INFRARED_SIGNAL_TYPE_PARSED)) {
    19e0:	492b      	ldr	r1, [pc, #172]	@ (1a90 <infrared_signal_read_body+0x164>)
    19e2:	4630      	mov	r0, r6
    19e4:	f7ff fffe 	bl	0 <furi_string_equal_str>
    19e8:	b388      	cbz	r0, 1a4e <infrared_signal_read_body+0x122>
    buf = furi_string_alloc();
    19ea:	f7ff fffe 	bl	0 <furi_string_alloc>
        if(!flipper_format_read_string(ff, INFRARED_SIGNAL_PROTOCOL_KEY, buf)) {
    19ee:	4929      	ldr	r1, [pc, #164]	@ (1a94 <infrared_signal_read_body+0x168>)
    buf = furi_string_alloc();
    19f0:	4607      	mov	r7, r0
        if(!flipper_format_read_string(ff, INFRARED_SIGNAL_PROTOCOL_KEY, buf)) {
    19f2:	4602      	mov	r2, r0
    19f4:	4628      	mov	r0, r5
    19f6:	f7ff fffe 	bl	0 <flipper_format_read_string>
    19fa:	b300      	cbz	r0, 1a3e <infrared_signal_read_body+0x112>
        message.protocol = infrared_get_protocol_by_name(furi_string_get_cstr(buf));
    19fc:	4638      	mov	r0, r7
    19fe:	f7ff fffe 	bl	0 <furi_string_get_cstr>
    1a02:	f7ff fffe 	bl	123c <infrared_get_protocol_by_name>
        if(!flipper_format_read_hex(
    1a06:	4924      	ldr	r1, [pc, #144]	@ (1a98 <infrared_signal_read_body+0x16c>)
        message.protocol = infrared_get_protocol_by_name(furi_string_get_cstr(buf));
    1a08:	f88d 0008 	strb.w	r0, [sp, #8]
        if(!flipper_format_read_hex(
    1a0c:	2304      	movs	r3, #4
    1a0e:	aa03      	add	r2, sp, #12
    1a10:	4628      	mov	r0, r5
    1a12:	f7ff fffe 	bl	0 <flipper_format_read_hex>
    1a16:	b1a0      	cbz	r0, 1a42 <infrared_signal_read_body+0x116>
        if(!flipper_format_read_hex(
    1a18:	4920      	ldr	r1, [pc, #128]	@ (1a9c <infrared_signal_read_body+0x170>)
    1a1a:	2304      	movs	r3, #4
    1a1c:	aa04      	add	r2, sp, #16
    1a1e:	4628      	mov	r0, r5
    1a20:	f7ff fffe 	bl	0 <flipper_format_read_hex>
    1a24:	b178      	cbz	r0, 1a46 <infrared_signal_read_body+0x11a>
        if(!infrared_signal_is_message_valid(&message)) {
    1a26:	a802      	add	r0, sp, #8
    1a28:	f7ff fffe 	bl	1774 <infrared_signal_is_message_valid>
    1a2c:	b168      	cbz	r0, 1a4a <infrared_signal_read_body+0x11e>
        infrared_signal_set_message(signal, &message);
    1a2e:	a902      	add	r1, sp, #8
    1a30:	4640      	mov	r0, r8
    1a32:	f7ff fffe 	bl	1910 <infrared_signal_set_message>
    furi_string_free(buf);
    1a36:	4638      	mov	r0, r7
    1a38:	f7ff fffe 	bl	0 <furi_string_free>
    return error;
    1a3c:	e7b4      	b.n	19a8 <infrared_signal_read_body+0x7c>
            error = InfraredErrorCodeSignalMessageUnableToReadProtocol;
    1a3e:	4c18      	ldr	r4, [pc, #96]	@ (1aa0 <infrared_signal_read_body+0x174>)
    1a40:	e7f9      	b.n	1a36 <infrared_signal_read_body+0x10a>
            error = InfraredErrorCodeSignalMessageUnableToReadAddress;
    1a42:	4c18      	ldr	r4, [pc, #96]	@ (1aa4 <infrared_signal_read_body+0x178>)
    1a44:	e7f7      	b.n	1a36 <infrared_signal_read_body+0x10a>
            error = InfraredErrorCodeSignalMessageUnableToReadCommand;
    1a46:	4c18      	ldr	r4, [pc, #96]	@ (1aa8 <infrared_signal_read_body+0x17c>)
    1a48:	e7f5      	b.n	1a36 <infrared_signal_read_body+0x10a>
            error = InfraredErrorCodeSignalMessageIsInvalid;
    1a4a:	4c18      	ldr	r4, [pc, #96]	@ (1aac <infrared_signal_read_body+0x180>)
    1a4c:	e7f3      	b.n	1a36 <infrared_signal_read_body+0x10a>
            FURI_LOG_E(TAG, "Unknown signal type: %s", furi_string_get_cstr(tmp));
    1a4e:	4630      	mov	r0, r6
    1a50:	f7ff fffe 	bl	0 <furi_string_get_cstr>
    1a54:	4a16      	ldr	r2, [pc, #88]	@ (1ab0 <infrared_signal_read_body+0x184>)
    1a56:	4917      	ldr	r1, [pc, #92]	@ (1ab4 <infrared_signal_read_body+0x188>)
            error = InfraredErrorCodeSignalTypeUnknown;
    1a58:	4c17      	ldr	r4, [pc, #92]	@ (1ab8 <infrared_signal_read_body+0x18c>)
            FURI_LOG_E(TAG, "Unknown signal type: %s", furi_string_get_cstr(tmp));
    1a5a:	4603      	mov	r3, r0
    1a5c:	2002      	movs	r0, #2
    1a5e:	f7ff fffe 	bl	0 <furi_log_print_format>
            break;
    1a62:	e7a1      	b.n	19a8 <infrared_signal_read_body+0x7c>
            error = InfraredErrorCodeSignalUnableToReadType;
    1a64:	4c15      	ldr	r4, [pc, #84]	@ (1abc <infrared_signal_read_body+0x190>)
    1a66:	e79f      	b.n	19a8 <infrared_signal_read_body+0x7c>
    1a68:	000007dd 	.word	0x000007dd
    1a6c:	000007e2 	.word	0x000007e2
    1a70:	000007e6 	.word	0x000007e6
    1a74:	000007f0 	.word	0x000007f0
    1a78:	000007fb 	.word	0x000007fb
    1a7c:	80000b00 	.word	0x80000b00
    1a80:	80000700 	.word	0x80000700
    1a84:	80000800 	.word	0x80000800
    1a88:	80000900 	.word	0x80000900
    1a8c:	80000a00 	.word	0x80000a00
    1a90:	00000800 	.word	0x00000800
    1a94:	00000807 	.word	0x00000807
    1a98:	00000810 	.word	0x00000810
    1a9c:	00000818 	.word	0x00000818
    1aa0:	80000f00 	.word	0x80000f00
    1aa4:	80001000 	.word	0x80001000
    1aa8:	80001100 	.word	0x80001100
    1aac:	80001200 	.word	0x80001200
    1ab0:	00000820 	.word	0x00000820
    1ab4:	000006f1 	.word	0x000006f1
    1ab8:	80000300 	.word	0x80000300
    1abc:	80000500 	.word	0x80000500

00001ac0 <infrared_signal_save>:
    furi_assert(!signal->is_raw);
    return &signal->payload.message;
}

InfraredErrorCode
    infrared_signal_save(const InfraredSignal* signal, FlipperFormat* ff, const char* name) {
    1ac0:	b570      	push	{r4, r5, r6, lr}
    1ac2:	460c      	mov	r4, r1
    1ac4:	4605      	mov	r5, r0
    InfraredErrorCode error = InfraredErrorCodeNone;

    if(!flipper_format_write_comment_cstr(ff, "") ||
    1ac6:	4931      	ldr	r1, [pc, #196]	@ (1b8c <infrared_signal_save+0xcc>)
    1ac8:	4620      	mov	r0, r4
    infrared_signal_save(const InfraredSignal* signal, FlipperFormat* ff, const char* name) {
    1aca:	4616      	mov	r6, r2
    if(!flipper_format_write_comment_cstr(ff, "") ||
    1acc:	f7ff fffe 	bl	0 <flipper_format_write_comment_cstr>
    1ad0:	b910      	cbnz	r0, 1ad8 <infrared_signal_save+0x18>
       !flipper_format_write_string_cstr(ff, INFRARED_SIGNAL_NAME_KEY, name)) {
        error = InfraredErrorCodeFileOperationFailed;
    1ad2:	f44f 0000 	mov.w	r0, #8388608	@ 0x800000
    } else {
        error = infrared_signal_save_message(&signal->payload.message, ff);
    }

    return error;
}
    1ad6:	bd70      	pop	{r4, r5, r6, pc}
       !flipper_format_write_string_cstr(ff, INFRARED_SIGNAL_NAME_KEY, name)) {
    1ad8:	492d      	ldr	r1, [pc, #180]	@ (1b90 <infrared_signal_save+0xd0>)
    1ada:	4632      	mov	r2, r6
    1adc:	4620      	mov	r0, r4
    1ade:	f7ff fffe 	bl	0 <flipper_format_write_string_cstr>
    if(!flipper_format_write_comment_cstr(ff, "") ||
    1ae2:	2800      	cmp	r0, #0
    1ae4:	d0f5      	beq.n	1ad2 <infrared_signal_save+0x12>
    } else if(signal->is_raw) {
    1ae6:	782b      	ldrb	r3, [r5, #0]
    1ae8:	b30b      	cbz	r3, 1b2e <infrared_signal_save+0x6e>
        if(!flipper_format_write_string_cstr(
    1aea:	4a2a      	ldr	r2, [pc, #168]	@ (1b94 <infrared_signal_save+0xd4>)
    1aec:	492a      	ldr	r1, [pc, #168]	@ (1b98 <infrared_signal_save+0xd8>)
    1aee:	4620      	mov	r0, r4
    1af0:	f7ff fffe 	bl	0 <flipper_format_write_string_cstr>
    1af4:	b908      	cbnz	r0, 1afa <infrared_signal_save+0x3a>
            error = InfraredErrorCodeSignalUnableToWriteType;
    1af6:	4829      	ldr	r0, [pc, #164]	@ (1b9c <infrared_signal_save+0xdc>)
    1af8:	e7ed      	b.n	1ad6 <infrared_signal_save+0x16>
        if(!flipper_format_write_uint32(ff, INFRARED_SIGNAL_FREQUENCY_KEY, &raw->frequency, 1)) {
    1afa:	4929      	ldr	r1, [pc, #164]	@ (1ba0 <infrared_signal_save+0xe0>)
    1afc:	2301      	movs	r3, #1
    1afe:	f105 020c 	add.w	r2, r5, #12
    1b02:	4620      	mov	r0, r4
    1b04:	f7ff fffe 	bl	0 <flipper_format_write_uint32>
    1b08:	2800      	cmp	r0, #0
    1b0a:	d035      	beq.n	1b78 <infrared_signal_save+0xb8>
        if(!flipper_format_write_float(ff, INFRARED_SIGNAL_DUTY_CYCLE_KEY, &raw->duty_cycle, 1)) {
    1b0c:	4925      	ldr	r1, [pc, #148]	@ (1ba4 <infrared_signal_save+0xe4>)
    1b0e:	2301      	movs	r3, #1
    1b10:	f105 0210 	add.w	r2, r5, #16
    1b14:	4620      	mov	r0, r4
    1b16:	f7ff fffe 	bl	0 <flipper_format_write_float>
    1b1a:	b378      	cbz	r0, 1b7c <infrared_signal_save+0xbc>
        if(!flipper_format_write_uint32(
    1b1c:	88ab      	ldrh	r3, [r5, #4]
    1b1e:	68aa      	ldr	r2, [r5, #8]
    1b20:	4921      	ldr	r1, [pc, #132]	@ (1ba8 <infrared_signal_save+0xe8>)
    1b22:	4620      	mov	r0, r4
    1b24:	f7ff fffe 	bl	0 <flipper_format_write_uint32>
    1b28:	b350      	cbz	r0, 1b80 <infrared_signal_save+0xc0>
    InfraredErrorCode error = InfraredErrorCodeNone;
    1b2a:	2000      	movs	r0, #0
    1b2c:	e7d3      	b.n	1ad6 <infrared_signal_save+0x16>
    const char* protocol_name = infrared_get_protocol_name(message->protocol);
    1b2e:	f995 0004 	ldrsb.w	r0, [r5, #4]
    1b32:	f7ff fffe 	bl	1232 <infrared_get_protocol_name>
        if(!flipper_format_write_string_cstr(
    1b36:	4a1d      	ldr	r2, [pc, #116]	@ (1bac <infrared_signal_save+0xec>)
    1b38:	4917      	ldr	r1, [pc, #92]	@ (1b98 <infrared_signal_save+0xd8>)
    const char* protocol_name = infrared_get_protocol_name(message->protocol);
    1b3a:	4606      	mov	r6, r0
        if(!flipper_format_write_string_cstr(
    1b3c:	4620      	mov	r0, r4
    1b3e:	f7ff fffe 	bl	0 <flipper_format_write_string_cstr>
    1b42:	2800      	cmp	r0, #0
    1b44:	d0d7      	beq.n	1af6 <infrared_signal_save+0x36>
        if(!flipper_format_write_string_cstr(ff, INFRARED_SIGNAL_PROTOCOL_KEY, protocol_name)) {
    1b46:	491a      	ldr	r1, [pc, #104]	@ (1bb0 <infrared_signal_save+0xf0>)
    1b48:	4632      	mov	r2, r6
    1b4a:	4620      	mov	r0, r4
    1b4c:	f7ff fffe 	bl	0 <flipper_format_write_string_cstr>
    1b50:	b1c0      	cbz	r0, 1b84 <infrared_signal_save+0xc4>
        if(!flipper_format_write_hex(
    1b52:	4918      	ldr	r1, [pc, #96]	@ (1bb4 <infrared_signal_save+0xf4>)
    1b54:	2304      	movs	r3, #4
    1b56:	f105 0208 	add.w	r2, r5, #8
    1b5a:	4620      	mov	r0, r4
    1b5c:	f7ff fffe 	bl	0 <flipper_format_write_hex>
    1b60:	b190      	cbz	r0, 1b88 <infrared_signal_save+0xc8>
        if(!flipper_format_write_hex(
    1b62:	4915      	ldr	r1, [pc, #84]	@ (1bb8 <infrared_signal_save+0xf8>)
    1b64:	2304      	movs	r3, #4
    1b66:	f105 020c 	add.w	r2, r5, #12
    1b6a:	4620      	mov	r0, r4
    1b6c:	f7ff fffe 	bl	0 <flipper_format_write_hex>
    1b70:	2800      	cmp	r0, #0
    1b72:	d1da      	bne.n	1b2a <infrared_signal_save+0x6a>
            error = InfraredErrorCodeSignalMessageUnableToWriteCommand;
    1b74:	4811      	ldr	r0, [pc, #68]	@ (1bbc <infrared_signal_save+0xfc>)
    1b76:	e7ae      	b.n	1ad6 <infrared_signal_save+0x16>
            error = InfraredErrorCodeSignalRawUnableToWriteFrequency;
    1b78:	4811      	ldr	r0, [pc, #68]	@ (1bc0 <infrared_signal_save+0x100>)
    1b7a:	e7ac      	b.n	1ad6 <infrared_signal_save+0x16>
            error = InfraredErrorCodeSignalRawUnableToWriteDutyCycle;
    1b7c:	4811      	ldr	r0, [pc, #68]	@ (1bc4 <infrared_signal_save+0x104>)
    1b7e:	e7aa      	b.n	1ad6 <infrared_signal_save+0x16>
            error = InfraredErrorCodeSignalRawUnableToWriteData;
    1b80:	4811      	ldr	r0, [pc, #68]	@ (1bc8 <infrared_signal_save+0x108>)
    1b82:	e7a8      	b.n	1ad6 <infrared_signal_save+0x16>
            error = InfraredErrorCodeSignalMessageUnableToWriteProtocol;
    1b84:	4811      	ldr	r0, [pc, #68]	@ (1bcc <infrared_signal_save+0x10c>)
    1b86:	e7a6      	b.n	1ad6 <infrared_signal_save+0x16>
            error = InfraredErrorCodeSignalMessageUnableToWriteAddress;
    1b88:	4811      	ldr	r0, [pc, #68]	@ (1bd0 <infrared_signal_save+0x110>)
    return error;
    1b8a:	e7a4      	b.n	1ad6 <infrared_signal_save+0x16>
    1b8c:	00000838 	.word	0x00000838
    1b90:	00000839 	.word	0x00000839
    1b94:	000007e2 	.word	0x000007e2
    1b98:	000007dd 	.word	0x000007dd
    1b9c:	80000600 	.word	0x80000600
    1ba0:	000007e6 	.word	0x000007e6
    1ba4:	000007f0 	.word	0x000007f0
    1ba8:	000007fb 	.word	0x000007fb
    1bac:	00000800 	.word	0x00000800
    1bb0:	00000807 	.word	0x00000807
    1bb4:	00000810 	.word	0x00000810
    1bb8:	00000818 	.word	0x00000818
    1bbc:	80001500 	.word	0x80001500
    1bc0:	80000c00 	.word	0x80000c00
    1bc4:	80000d00 	.word	0x80000d00
    1bc8:	80000e00 	.word	0x80000e00
    1bcc:	80001300 	.word	0x80001300
    1bd0:	80001400 	.word	0x80001400

00001bd4 <infrared_signal_read_name>:
    } while(false);

    return error;
}

InfraredErrorCode infrared_signal_read_name(FlipperFormat* ff, FuriString* name) {
    1bd4:	460a      	mov	r2, r1
    1bd6:	b508      	push	{r3, lr}
    return flipper_format_read_string(ff, INFRARED_SIGNAL_NAME_KEY, name) ?
    1bd8:	4903      	ldr	r1, [pc, #12]	@ (1be8 <infrared_signal_read_name+0x14>)
    1bda:	f7ff fffe 	bl	0 <flipper_format_read_string>
               InfraredErrorCodeNone :
    1bde:	2800      	cmp	r0, #0
               InfraredErrorCodeSignalNameNotFound;
}
    1be0:	4802      	ldr	r0, [pc, #8]	@ (1bec <infrared_signal_read_name+0x18>)
    1be2:	bf18      	it	ne
    1be4:	2000      	movne	r0, #0
    1be6:	bd08      	pop	{r3, pc}
    1be8:	00000839 	.word	0x00000839
    1bec:	80000400 	.word	0x80000400

00001bf0 <infrared_signal_read>:
    infrared_signal_read(InfraredSignal* signal, FlipperFormat* ff, FuriString* name) {
    1bf0:	b538      	push	{r3, r4, r5, lr}
    1bf2:	460c      	mov	r4, r1
    1bf4:	4605      	mov	r5, r0
        error = infrared_signal_read_name(ff, name);
    1bf6:	4611      	mov	r1, r2
    1bf8:	4620      	mov	r0, r4
    1bfa:	f7ff fffe 	bl	1bd4 <infrared_signal_read_name>
        if(INFRARED_ERROR_PRESENT(error)) break;
    1bfe:	28ff      	cmp	r0, #255	@ 0xff
    1c00:	d805      	bhi.n	1c0e <infrared_signal_read+0x1e>
        error = infrared_signal_read_body(signal, ff);
    1c02:	4621      	mov	r1, r4
    1c04:	4628      	mov	r0, r5
}
    1c06:	e8bd 4038 	ldmia.w	sp!, {r3, r4, r5, lr}
        error = infrared_signal_read_body(signal, ff);
    1c0a:	f7ff bffe 	b.w	192c <infrared_signal_read_body>
}
    1c0e:	bd38      	pop	{r3, r4, r5, pc}

00001c10 <infrared_signal_transmit>:
    furi_string_free(tmp);
    return error;
}

void infrared_signal_transmit(const InfraredSignal* signal) {
    if(signal->is_raw) {
    1c10:	7803      	ldrb	r3, [r0, #0]
    1c12:	b13b      	cbz	r3, 1c24 <infrared_signal_transmit+0x14>
        const InfraredRawSignal* raw_signal = &signal->payload.raw;
        infrared_send_raw_ext(
    1c14:	ed90 0a04 	vldr	s0, [r0, #16]
    1c18:	68c3      	ldr	r3, [r0, #12]
    1c1a:	2201      	movs	r2, #1
    1c1c:	e9d0 1001 	ldrd	r1, r0, [r0, #4]
    1c20:	f7ff bffe 	b.w	1cc4 <infrared_send_raw_ext>
            true,
            raw_signal->frequency,
            raw_signal->duty_cycle);
    } else {
        const InfraredMessage* message = &signal->payload.message;
        infrared_send(message, 1);
    1c24:	2101      	movs	r1, #1
    1c26:	3004      	adds	r0, #4
    1c28:	f7ff bffe 	b.w	1d28 <infrared_send>

00001c2c <infrared_get_raw_data_callback>:
static uint32_t infrared_tx_raw_timings_number = 0;
static uint32_t infrared_tx_raw_start_from_mark = 0;
static bool infrared_tx_raw_add_silence = false;

FuriHalInfraredTxGetDataState
    infrared_get_raw_data_callback(void* context, uint32_t* duration, bool* level) {
    1c2c:	b570      	push	{r4, r5, r6, lr}
    furi_assert(context);

    FuriHalInfraredTxGetDataState state = FuriHalInfraredTxGetDataStateOk;
    const uint32_t* timings = context;

    if(infrared_tx_raw_add_silence && (infrared_tx_raw_timings_index == 0)) {
    1c2e:	4d0f      	ldr	r5, [pc, #60]	@ (1c6c <infrared_get_raw_data_callback+0x40>)
    1c30:	4c0f      	ldr	r4, [pc, #60]	@ (1c70 <infrared_get_raw_data_callback+0x44>)
    1c32:	782e      	ldrb	r6, [r5, #0]
    1c34:	6823      	ldr	r3, [r4, #0]
    1c36:	b166      	cbz	r6, 1c52 <infrared_get_raw_data_callback+0x26>
    1c38:	b95b      	cbnz	r3, 1c52 <infrared_get_raw_data_callback+0x26>
        infrared_tx_raw_add_silence = false;
    1c3a:	702b      	strb	r3, [r5, #0]
        *level = false;
    1c3c:	7013      	strb	r3, [r2, #0]
        *duration = INFRARED_RAW_TX_TIMING_DELAY_US;
    1c3e:	4b0d      	ldr	r3, [pc, #52]	@ (1c74 <infrared_get_raw_data_callback+0x48>)
    1c40:	600b      	str	r3, [r1, #0]
    } else {
        *level = infrared_tx_raw_start_from_mark ^ (infrared_tx_raw_timings_index % 2);
        *duration = timings[infrared_tx_raw_timings_index++];
    }

    if(infrared_tx_raw_timings_number == infrared_tx_raw_timings_index) {
    1c42:	4b0d      	ldr	r3, [pc, #52]	@ (1c78 <infrared_get_raw_data_callback+0x4c>)
    1c44:	6818      	ldr	r0, [r3, #0]
    1c46:	6823      	ldr	r3, [r4, #0]
    1c48:	1ac3      	subs	r3, r0, r3
    1c4a:	4258      	negs	r0, r3
    1c4c:	4158      	adcs	r0, r3
        state = FuriHalInfraredTxGetDataStateLastDone;
    }

    return state;
}
    1c4e:	0040      	lsls	r0, r0, #1
    1c50:	bd70      	pop	{r4, r5, r6, pc}
        *level = infrared_tx_raw_start_from_mark ^ (infrared_tx_raw_timings_index % 2);
    1c52:	4e0a      	ldr	r6, [pc, #40]	@ (1c7c <infrared_get_raw_data_callback+0x50>)
    1c54:	6836      	ldr	r6, [r6, #0]
    1c56:	f003 0501 	and.w	r5, r3, #1
    1c5a:	1bad      	subs	r5, r5, r6
    1c5c:	bf18      	it	ne
    1c5e:	2501      	movne	r5, #1
    1c60:	7015      	strb	r5, [r2, #0]
        *duration = timings[infrared_tx_raw_timings_index++];
    1c62:	1c5a      	adds	r2, r3, #1
    1c64:	6022      	str	r2, [r4, #0]
    1c66:	f850 3023 	ldr.w	r3, [r0, r3, lsl #2]
    1c6a:	e7e9      	b.n	1c40 <infrared_get_raw_data_callback+0x14>
    1c6c:	00000000 	.word	0x00000000
    1c70:	0000000c 	.word	0x0000000c
    1c74:	0002bf20 	.word	0x0002bf20
    1c78:	00000008 	.word	0x00000008
    1c7c:	00000004 	.word	0x00000004

00001c80 <infrared_get_data_callback>:
        INFRARED_COMMON_CARRIER_FREQUENCY,
        INFRARED_COMMON_DUTY_CYCLE);
}

FuriHalInfraredTxGetDataState
    infrared_get_data_callback(void* context, uint32_t* duration, bool* level) {
    1c80:	b570      	push	{r4, r5, r6, lr}
    FuriHalInfraredTxGetDataState state;
    InfraredEncoderHandler* handler = context;
    InfraredStatus status = InfraredStatusError;

    if(infrared_tx_number_of_transmissions > 0) {
    1c82:	4c0f      	ldr	r4, [pc, #60]	@ (1cc0 <sukima218+0x8>)
    1c84:	6823      	ldr	r3, [r4, #0]
    infrared_get_data_callback(void* context, uint32_t* duration, bool* level) {
    1c86:	460d      	mov	r5, r1
    1c88:	4616      	mov	r6, r2
    if(infrared_tx_number_of_transmissions > 0) {
    1c8a:	b923      	cbnz	r3, 1c96 <infrared_get_data_callback+0x16>
        status = infrared_encode(handler, duration, level);
    }

    if(status == InfraredStatusError) {
        state = FuriHalInfraredTxGetDataStateLastDone;
        *duration = 0;
    1c8c:	2300      	movs	r3, #0
    1c8e:	602b      	str	r3, [r5, #0]
        *level = 0;
    1c90:	7033      	strb	r3, [r6, #0]
        state = FuriHalInfraredTxGetDataStateLastDone;
    1c92:	2002      	movs	r0, #2
    1c94:	e00d      	b.n	1cb2 <infrared_get_data_callback+0x32>
        status = infrared_encode(handler, duration, level);
    1c96:	f7ff fffe 	bl	11fc <infrared_encode>
    if(status == InfraredStatusError) {
    1c9a:	2800      	cmp	r0, #0
    1c9c:	d0f6      	beq.n	1c8c <infrared_get_data_callback+0xc>
    } else if(status == InfraredStatusOk) {
    1c9e:	2801      	cmp	r0, #1
    1ca0:	d00c      	beq.n	1cbc <sukima218+0x4>
        state = FuriHalInfraredTxGetDataStateOk;
    } else if(status == InfraredStatusDone) {
    1ca2:	2802      	cmp	r0, #2
    1ca4:	d106      	bne.n	1cb4 <infrared_get_data_callback+0x34>
        if(--infrared_tx_number_of_transmissions == 0) {
    1ca6:	6823      	ldr	r3, [r4, #0]
    1ca8:	3b01      	subs	r3, #1
    1caa:	6023      	str	r3, [r4, #0]
    1cac:	2b00      	cmp	r3, #0
    1cae:	d0f0      	beq.n	1c92 <infrared_get_data_callback+0x12>
            state = FuriHalInfraredTxGetDataStateLastDone;
        } else {
            state = FuriHalInfraredTxGetDataStateDone;
    1cb0:	2001      	movs	r0, #1
    } else {
        furi_crash();
    }

    return state;
}
    1cb2:	bd70      	pop	{r4, r5, r6, pc}
        furi_crash();
    1cb4:	f04f 0c00 	mov.w	ip, #0

00001cb8 <sukima218>:
    1cb8:	f7ff fffe 	bl	0 <__furi_crash_implementation>
        state = FuriHalInfraredTxGetDataStateOk;
    1cbc:	2000      	movs	r0, #0
    1cbe:	e7f8      	b.n	1cb2 <infrared_get_data_callback+0x32>
    1cc0:	00000010 	.word	0x00000010

00001cc4 <infrared_send_raw_ext>:
    float duty_cycle) {
    1cc4:	b538      	push	{r3, r4, r5, lr}
    1cc6:	460d      	mov	r5, r1
    1cc8:	ed2d 8b02 	vpush	{d8}
    1ccc:	461c      	mov	r4, r3
    1cce:	eeb0 8a40 	vmov.f32	s16, s0
    furi_check(timings);
    1cd2:	4601      	mov	r1, r0
    1cd4:	b918      	cbnz	r0, 1cde <sukima289+0x4>
    furi_check(!furi_hal_infrared_is_busy());
    1cd6:	f04f 0c02 	mov.w	ip, #2

00001cda <sukima289>:
    1cda:	f7ff fffe 	bl	0 <__furi_crash_implementation>
    infrared_tx_raw_start_from_mark = start_from_mark;
    1cde:	4b0d      	ldr	r3, [pc, #52]	@ (1d14 <sukima289+0x3a>)
    1ce0:	601a      	str	r2, [r3, #0]
    infrared_tx_raw_timings_index = 0;
    1ce2:	4b0d      	ldr	r3, [pc, #52]	@ (1d18 <sukima289+0x3e>)
    1ce4:	2000      	movs	r0, #0
    1ce6:	6018      	str	r0, [r3, #0]
    infrared_tx_raw_timings_number = timings_cnt;
    1ce8:	4b0c      	ldr	r3, [pc, #48]	@ (1d1c <sukima289+0x42>)
    furi_hal_infrared_async_tx_set_data_isr_callback(
    1cea:	480d      	ldr	r0, [pc, #52]	@ (1d20 <sukima289+0x46>)
    infrared_tx_raw_timings_number = timings_cnt;
    1cec:	601d      	str	r5, [r3, #0]
    infrared_tx_raw_add_silence = start_from_mark;
    1cee:	4b0d      	ldr	r3, [pc, #52]	@ (1d24 <sukima289+0x4a>)
    1cf0:	701a      	strb	r2, [r3, #0]
    furi_hal_infrared_async_tx_set_data_isr_callback(
    1cf2:	f7ff fffe 	bl	0 <furi_hal_infrared_async_tx_set_data_isr_callback>
    furi_hal_infrared_async_tx_start(frequency, duty_cycle);
    1cf6:	eeb0 0a48 	vmov.f32	s0, s16
    1cfa:	4620      	mov	r0, r4
    1cfc:	f7ff fffe 	bl	0 <furi_hal_infrared_async_tx_start>
    furi_hal_infrared_async_tx_wait_termination();
    1d00:	f7ff fffe 	bl	0 <furi_hal_infrared_async_tx_wait_termination>
    furi_check(!furi_hal_infrared_is_busy());
    1d04:	f7ff fffe 	bl	0 <furi_hal_infrared_is_busy>
    1d08:	2800      	cmp	r0, #0
    1d0a:	d1e4      	bne.n	1cd6 <infrared_send_raw_ext+0x12>
}
    1d0c:	ecbd 8b02 	vpop	{d8}
    1d10:	bd38      	pop	{r3, r4, r5, pc}
    1d12:	bf00      	nop
    1d14:	00000004 	.word	0x00000004
    1d18:	0000000c 	.word	0x0000000c
    1d1c:	00000008 	.word	0x00000008
	...

00001d28 <infrared_send>:

void infrared_send(const InfraredMessage* message, int times) {
    1d28:	b570      	push	{r4, r5, r6, lr}
    1d2a:	460e      	mov	r6, r1
    1d2c:	ed2d 8b02 	vpush	{d8}
    furi_check(message);
    1d30:	4604      	mov	r4, r0
    1d32:	b918      	cbnz	r0, 1d3c <sukima417+0x4>
    furi_hal_infrared_async_tx_start(frequency, duty_cycle);
    furi_hal_infrared_async_tx_wait_termination();

    infrared_free_encoder(handler);

    furi_check(!furi_hal_infrared_is_busy());
    1d34:	f04f 0c02 	mov.w	ip, #2

00001d38 <sukima417>:
    1d38:	f7ff fffe 	bl	0 <__furi_crash_implementation>
    furi_check(times);
    1d3c:	2900      	cmp	r1, #0
    1d3e:	d0f9      	beq.n	1d34 <infrared_send+0xc>
    furi_check(infrared_is_protocol_valid(message->protocol));
    1d40:	f990 0000 	ldrsb.w	r0, [r0]
    1d44:	f7ff fffe 	bl	1226 <infrared_is_protocol_valid>
    1d48:	2800      	cmp	r0, #0
    1d4a:	d0f3      	beq.n	1d34 <infrared_send+0xc>
    InfraredEncoderHandler* handler = infrared_alloc_encoder();
    1d4c:	f7ff fffe 	bl	115c <infrared_alloc_encoder>
    infrared_reset_encoder(handler, message);
    1d50:	4621      	mov	r1, r4
    InfraredEncoderHandler* handler = infrared_alloc_encoder();
    1d52:	4605      	mov	r5, r0
    infrared_reset_encoder(handler, message);
    1d54:	f7ff fffe 	bl	119c <infrared_reset_encoder>
        MAX((int)infrared_get_protocol_min_repeat_count(message->protocol), times);
    1d58:	f994 0000 	ldrsb.w	r0, [r4]
    1d5c:	f7ff fffe 	bl	1294 <infrared_get_protocol_min_repeat_count>
    infrared_tx_number_of_transmissions =
    1d60:	4b12      	ldr	r3, [pc, #72]	@ (1dac <sukima417+0x74>)
    1d62:	42b0      	cmp	r0, r6
    1d64:	bfac      	ite	ge
    1d66:	6018      	strge	r0, [r3, #0]
    1d68:	601e      	strlt	r6, [r3, #0]
    uint32_t frequency = infrared_get_protocol_frequency(message->protocol);
    1d6a:	f994 0000 	ldrsb.w	r0, [r4]
    1d6e:	f7ff fffe 	bl	127e <infrared_get_protocol_frequency>
    1d72:	4606      	mov	r6, r0
    float duty_cycle = infrared_get_protocol_duty_cycle(message->protocol);
    1d74:	f994 0000 	ldrsb.w	r0, [r4]
    1d78:	f7ff fffe 	bl	1288 <infrared_get_protocol_duty_cycle>
    furi_hal_infrared_async_tx_set_data_isr_callback(infrared_get_data_callback, handler);
    1d7c:	4629      	mov	r1, r5
    1d7e:	480c      	ldr	r0, [pc, #48]	@ (1db0 <sukima417+0x78>)
    float duty_cycle = infrared_get_protocol_duty_cycle(message->protocol);
    1d80:	eeb0 8a40 	vmov.f32	s16, s0
    furi_hal_infrared_async_tx_set_data_isr_callback(infrared_get_data_callback, handler);
    1d84:	f7ff fffe 	bl	0 <furi_hal_infrared_async_tx_set_data_isr_callback>
    furi_hal_infrared_async_tx_start(frequency, duty_cycle);
    1d88:	eeb0 0a48 	vmov.f32	s0, s16
    1d8c:	4630      	mov	r0, r6
    1d8e:	f7ff fffe 	bl	0 <furi_hal_infrared_async_tx_start>
    furi_hal_infrared_async_tx_wait_termination();
    1d92:	f7ff fffe 	bl	0 <furi_hal_infrared_async_tx_wait_termination>
    infrared_free_encoder(handler);
    1d96:	4628      	mov	r0, r5
    1d98:	f7ff fffe 	bl	116c <infrared_free_encoder>
    furi_check(!furi_hal_infrared_is_busy());
    1d9c:	f7ff fffe 	bl	0 <furi_hal_infrared_is_busy>
    1da0:	2800      	cmp	r0, #0
    1da2:	d1c7      	bne.n	1d34 <infrared_send+0xc>
}
    1da4:	ecbd 8b02 	vpop	{d8}
    1da8:	bd70      	pop	{r4, r5, r6, pc}
    1daa:	bf00      	nop
    1dac:	00000010 	.word	0x00000010
    1db0:	00000000 	.word	0x00000000

00001db4 <infrared_worker_rx_callback>:
    uint32_t flags_set = furi_thread_flags_set(
        furi_thread_get_id(instance->thread), INFRARED_WORKER_RX_TIMEOUT_RECEIVED);
    furi_check(flags_set & INFRARED_WORKER_RX_TIMEOUT_RECEIVED);
}

static void infrared_worker_rx_callback(void* context, bool level, uint32_t duration) {
    1db4:	b537      	push	{r0, r1, r2, r4, r5, lr}
    InfraredWorker* instance = context;

    furi_assert(duration != 0);
    LevelDuration level_duration = level_duration_make(level, duration);
    1db6:	3101      	adds	r1, #1
    1db8:	f022 4240 	bic.w	r2, r2, #3221225472	@ 0xc0000000
    1dbc:	ea42 7281 	orr.w	r2, r2, r1, lsl #30
    1dc0:	9201      	str	r2, [sp, #4]

    size_t ret =
        furi_stream_buffer_send(instance->stream, &level_duration, sizeof(LevelDuration), 0);
    1dc2:	2204      	movs	r2, #4
    1dc4:	eb0d 0102 	add.w	r1, sp, r2
    1dc8:	2300      	movs	r3, #0
static void infrared_worker_rx_callback(void* context, bool level, uint32_t duration) {
    1dca:	4604      	mov	r4, r0
        furi_stream_buffer_send(instance->stream, &level_duration, sizeof(LevelDuration), 0);
    1dcc:	6840      	ldr	r0, [r0, #4]
    1dce:	f7ff fffe 	bl	0 <furi_stream_buffer_send>
    uint32_t events = (ret == sizeof(LevelDuration)) ? INFRARED_WORKER_RX_RECEIVED :
    1dd2:	2804      	cmp	r0, #4
    1dd4:	bf14      	ite	ne
    1dd6:	2504      	movne	r5, #4
    1dd8:	2501      	moveq	r5, #1
                                                       INFRARED_WORKER_OVERRUN;

    uint32_t flags_set = furi_thread_flags_set(furi_thread_get_id(instance->thread), events);
    1dda:	6820      	ldr	r0, [r4, #0]
    1ddc:	f7ff fffe 	bl	0 <furi_thread_get_id>
    1de0:	4629      	mov	r1, r5
    1de2:	f7ff fffe 	bl	0 <furi_thread_flags_set>
    furi_check(flags_set & events);
    1de6:	4205      	tst	r5, r0
    1de8:	d103      	bne.n	1df2 <sukima68+0x4>
    1dea:	f04f 0c02 	mov.w	ip, #2

00001dee <sukima68>:
    1dee:	f7ff fffe 	bl	0 <__furi_crash_implementation>
}
    1df2:	b003      	add	sp, #12
    1df4:	bd30      	pop	{r4, r5, pc}
	...

00001df8 <infrared_worker_rx_thread>:
            instance->rx.overrun = true;
        }
    }
}

static int32_t infrared_worker_rx_thread(void* thread_context) {
    1df8:	e92d 4ff7 	stmdb	sp!, {r0, r1, r2, r4, r5, r6, r7, r8, r9, sl, fp, lr}
               ((furi_get_tick() - last_blink_time) > 80)) {
                last_blink_time = furi_get_tick();
                notification_message(instance->notification, &sequence_blink_blue_10);
            }
            if(instance->signal.timings_cnt == 0)
                notification_message(instance->notification, &sequence_display_backlight_on);
    1dfc:	f8df 8198 	ldr.w	r8, [pc, #408]	@ 1f98 <sukima279+0x17a>
static int32_t infrared_worker_rx_thread(void* thread_context) {
    1e00:	4604      	mov	r4, r0
    uint32_t last_blink_time = 0;
    1e02:	2700      	movs	r7, #0
            if(!instance->rx.overrun && instance->blink_enable &&
    1e04:	f500 5580 	add.w	r5, r0, #4096	@ 0x1000
        events = furi_thread_flags_wait(INFRARED_WORKER_ALL_RX_EVENTS, 0, FuriWaitForever);
    1e08:	f04f 32ff 	mov.w	r2, #4294967295	@ 0xffffffff
    1e0c:	2100      	movs	r1, #0
    1e0e:	200f      	movs	r0, #15
    1e10:	f7ff fffe 	bl	0 <furi_thread_flags_wait>
        furi_check(events & INFRARED_WORKER_ALL_RX_EVENTS); /* at least one caught */
    1e14:	0702      	lsls	r2, r0, #28
        events = furi_thread_flags_wait(INFRARED_WORKER_ALL_RX_EVENTS, 0, FuriWaitForever);
    1e16:	4606      	mov	r6, r0
        furi_check(events & INFRARED_WORKER_ALL_RX_EVENTS); /* at least one caught */
    1e18:	d103      	bne.n	1e22 <sukima279+0x4>
            furi_check(flags_set & INFRARED_WORKER_OVERRUN);
    1e1a:	f04f 0c02 	mov.w	ip, #2

00001e1e <sukima279>:
    1e1e:	f7ff fffe 	bl	0 <__furi_crash_implementation>
        if(events & INFRARED_WORKER_RX_RECEIVED) {
    1e22:	07c3      	lsls	r3, r0, #31
    1e24:	d520      	bpl.n	1e68 <sukima279+0x4a>
            if(!instance->rx.overrun && instance->blink_enable &&
    1e26:	f895 3038 	ldrb.w	r3, [r5, #56]	@ 0x38
    1e2a:	b973      	cbnz	r3, 1e4a <sukima279+0x2c>
    1e2c:	f895 302c 	ldrb.w	r3, [r5, #44]	@ 0x2c
    1e30:	b15b      	cbz	r3, 1e4a <sukima279+0x2c>
               ((furi_get_tick() - last_blink_time) > 80)) {
    1e32:	f7ff fffe 	bl	0 <furi_get_tick>
    1e36:	1bc0      	subs	r0, r0, r7
            if(!instance->rx.overrun && instance->blink_enable &&
    1e38:	2850      	cmp	r0, #80	@ 0x50
    1e3a:	d906      	bls.n	1e4a <sukima279+0x2c>
                last_blink_time = furi_get_tick();
    1e3c:	f7ff fffe 	bl	0 <furi_get_tick>
                notification_message(instance->notification, &sequence_blink_blue_10);
    1e40:	4951      	ldr	r1, [pc, #324]	@ (1f88 <sukima279+0x16a>)
                last_blink_time = furi_get_tick();
    1e42:	4607      	mov	r7, r0
                notification_message(instance->notification, &sequence_blink_blue_10);
    1e44:	6aa8      	ldr	r0, [r5, #40]	@ 0x28
    1e46:	f7ff fffe 	bl	0 <notification_message>
            if(instance->signal.timings_cnt == 0)
    1e4a:	68e3      	ldr	r3, [r4, #12]
    1e4c:	b91b      	cbnz	r3, 1e56 <sukima279+0x38>
                notification_message(instance->notification, &sequence_display_backlight_on);
    1e4e:	6aa8      	ldr	r0, [r5, #40]	@ 0x28
    1e50:	4641      	mov	r1, r8
    1e52:	f7ff fffe 	bl	0 <notification_message>
            while(sizeof(LevelDuration) ==
                  furi_stream_buffer_receive(
    1e56:	2204      	movs	r2, #4
    1e58:	6860      	ldr	r0, [r4, #4]
    1e5a:	2300      	movs	r3, #0
    1e5c:	eb0d 0102 	add.w	r1, sp, r2
    1e60:	f7ff fffe 	bl	0 <furi_stream_buffer_receive>
            while(sizeof(LevelDuration) ==
    1e64:	2804      	cmp	r0, #4
    1e66:	d02e      	beq.n	1ec6 <sukima279+0xa8>
                    uint32_t duration = level_duration_get_duration(level_duration);
                    infrared_worker_process_timings(instance, duration, level);
                }
            }
        }
        if(events & INFRARED_WORKER_OVERRUN) {
    1e68:	0771      	lsls	r1, r6, #29
    1e6a:	d50e      	bpl.n	1e8a <sukima279+0x6c>
            printf("#");
    1e6c:	2023      	movs	r0, #35	@ 0x23
    1e6e:	f7ff fffe 	bl	0 <__wrap_putchar>
            infrared_reset_decoder(instance->infrared_decoder);
    1e72:	6a68      	ldr	r0, [r5, #36]	@ 0x24
    1e74:	f7ff fffe 	bl	10b4 <infrared_reset_decoder>
            instance->signal.timings_cnt = 0;
    1e78:	2300      	movs	r3, #0
    1e7a:	60e3      	str	r3, [r4, #12]
            if(instance->blink_enable)
    1e7c:	f895 302c 	ldrb.w	r3, [r5, #44]	@ 0x2c
    1e80:	b11b      	cbz	r3, 1e8a <sukima279+0x6c>
                notification_message(instance->notification, &sequence_set_red_255);
    1e82:	4942      	ldr	r1, [pc, #264]	@ (1f8c <sukima279+0x16e>)
    1e84:	6aa8      	ldr	r0, [r5, #40]	@ 0x28
    1e86:	f7ff fffe 	bl	0 <notification_message>
        }
        if(events & INFRARED_WORKER_RX_TIMEOUT_RECEIVED) {
    1e8a:	07b2      	lsls	r2, r6, #30
    1e8c:	d515      	bpl.n	1eba <sukima279+0x9c>
            if(instance->rx.overrun) {
    1e8e:	f895 9038 	ldrb.w	r9, [r5, #56]	@ 0x38
    1e92:	f1b9 0f00 	cmp.w	r9, #0
    1e96:	d05c      	beq.n	1f52 <sukima279+0x134>
                printf("\nOVERRUN, max samples: %d\n", MAX_TIMINGS_AMOUNT);
    1e98:	483d      	ldr	r0, [pc, #244]	@ (1f90 <sukima279+0x172>)
    1e9a:	f44f 6180 	mov.w	r1, #1024	@ 0x400
    1e9e:	f7ff fffe 	bl	0 <__wrap_printf>
                instance->rx.overrun = false;
    1ea2:	2300      	movs	r3, #0
    1ea4:	f885 3038 	strb.w	r3, [r5, #56]	@ 0x38
                if(instance->blink_enable)
    1ea8:	f895 302c 	ldrb.w	r3, [r5, #44]	@ 0x2c
    1eac:	b11b      	cbz	r3, 1eb6 <sukima279+0x98>
                    notification_message(instance->notification, &sequence_reset_red);
    1eae:	4939      	ldr	r1, [pc, #228]	@ (1f94 <sukima279+0x176>)
    1eb0:	6aa8      	ldr	r0, [r5, #40]	@ 0x28
    1eb2:	f7ff fffe 	bl	0 <notification_message>
            } else {
                infrared_worker_process_timeout(instance);
            }
            instance->signal.timings_cnt = 0;
    1eb6:	2300      	movs	r3, #0
    1eb8:	60e3      	str	r3, [r4, #12]
        }
        if(events & INFRARED_WORKER_EXIT) break;
    1eba:	0733      	lsls	r3, r6, #28
    1ebc:	d5a4      	bpl.n	1e08 <infrared_worker_rx_thread+0x10>
    }

    return 0;
}
    1ebe:	2000      	movs	r0, #0
    1ec0:	b003      	add	sp, #12
    1ec2:	e8bd 8ff0 	ldmia.w	sp!, {r4, r5, r6, r7, r8, r9, sl, fp, pc}
                if(!instance->rx.overrun) {
    1ec6:	f895 9038 	ldrb.w	r9, [r5, #56]	@ 0x38
    1eca:	f1b9 0f00 	cmp.w	r9, #0
    1ece:	d1c2      	bne.n	1e56 <sukima279+0x38>
                    bool level = level_duration_get_level(level_duration);
    1ed0:	9b01      	ldr	r3, [sp, #4]
static inline bool level_duration_is_wait(LevelDuration level_duration) {
    return level_duration.level == LEVEL_DURATION_WAIT;
}

static inline bool level_duration_get_level(LevelDuration level_duration) {
    return level_duration.level == LEVEL_DURATION_LEVEL_HIGH;
    1ed2:	f3c3 6a07 	ubfx	sl, r3, #24, #8
}

static inline uint32_t level_duration_get_duration(LevelDuration level_duration) {
    return level_duration.duration;
    1ed6:	f3c3 0b1d 	ubfx	fp, r3, #0, #30
        instance->decode_enable ? infrared_decode(instance->infrared_decoder, level, duration) :
    1eda:	f895 302d 	ldrb.w	r3, [r5, #45]	@ 0x2d
    return level_duration.level == LEVEL_DURATION_LEVEL_HIGH;
    1ede:	f00a 0ac0 	and.w	sl, sl, #192	@ 0xc0
    1ee2:	b1db      	cbz	r3, 1f1c <sukima279+0xfe>
    1ee4:	f1aa 0c80 	sub.w	ip, sl, #128	@ 0x80
    1ee8:	f1dc 0100 	rsbs	r1, ip, #0
    1eec:	eb41 010c 	adc.w	r1, r1, ip
    1ef0:	6a68      	ldr	r0, [r5, #36]	@ 0x24
    1ef2:	465a      	mov	r2, fp
    1ef4:	f7ff fffe 	bl	1030 <infrared_decode>
    if(message_decoded) {
    1ef8:	b180      	cbz	r0, 1f1c <sukima279+0xfe>
        instance->signal.message = *message_decoded;
    1efa:	c80f      	ldmia	r0, {r0, r1, r2, r3}
    1efc:	f104 0c10 	add.w	ip, r4, #16
    1f00:	e88c 000f 	stmia.w	ip, {r0, r1, r2, r3}
        instance->signal.decoded = true;
    1f04:	2301      	movs	r3, #1
    1f06:	7223      	strb	r3, [r4, #8]
        if(instance->rx.received_signal_callback)
    1f08:	6b2b      	ldr	r3, [r5, #48]	@ 0x30
        instance->signal.timings_cnt = 0;
    1f0a:	f8c4 900c 	str.w	r9, [r4, #12]
        if(instance->rx.received_signal_callback)
    1f0e:	2b00      	cmp	r3, #0
    1f10:	d0a1      	beq.n	1e56 <sukima279+0x38>
            instance->rx.received_signal_callback(
    1f12:	6b68      	ldr	r0, [r5, #52]	@ 0x34
    1f14:	f104 0108 	add.w	r1, r4, #8
    1f18:	4798      	blx	r3
    1f1a:	e79c      	b.n	1e56 <sukima279+0x38>
        if((instance->signal.timings_cnt == 0) && !level) {
    1f1c:	68e3      	ldr	r3, [r4, #12]
    1f1e:	b943      	cbnz	r3, 1f32 <sukima279+0x114>
    1f20:	f1ba 0f80 	cmp.w	sl, #128	@ 0x80
    1f24:	d197      	bne.n	1e56 <sukima279+0x38>
            instance->signal.raw.timings[instance->signal.timings_cnt] = duration;
    1f26:	1d1a      	adds	r2, r3, #4
            ++instance->signal.timings_cnt;
    1f28:	3301      	adds	r3, #1
            instance->signal.raw.timings[instance->signal.timings_cnt] = duration;
    1f2a:	f844 b022 	str.w	fp, [r4, r2, lsl #2]
            ++instance->signal.timings_cnt;
    1f2e:	60e3      	str	r3, [r4, #12]
    1f30:	e791      	b.n	1e56 <sukima279+0x38>
        if(instance->signal.timings_cnt < MAX_TIMINGS_AMOUNT) {
    1f32:	f5b3 6f80 	cmp.w	r3, #1024	@ 0x400
    1f36:	d3f6      	bcc.n	1f26 <sukima279+0x108>
            uint32_t flags_set = furi_thread_flags_set(
    1f38:	6820      	ldr	r0, [r4, #0]
    1f3a:	f7ff fffe 	bl	0 <furi_thread_get_id>
    1f3e:	2104      	movs	r1, #4
    1f40:	f7ff fffe 	bl	0 <furi_thread_flags_set>
            furi_check(flags_set & INFRARED_WORKER_OVERRUN);
    1f44:	0740      	lsls	r0, r0, #29
    1f46:	f57f af68 	bpl.w	1e1a <infrared_worker_rx_thread+0x22>
            instance->rx.overrun = true;
    1f4a:	2301      	movs	r3, #1
    1f4c:	f885 3038 	strb.w	r3, [r5, #56]	@ 0x38
    1f50:	e781      	b.n	1e56 <sukima279+0x38>
    if(instance->signal.timings_cnt < 2) return;
    1f52:	68e3      	ldr	r3, [r4, #12]
    1f54:	2b01      	cmp	r3, #1
    1f56:	d9ae      	bls.n	1eb6 <sukima279+0x98>
        infrared_check_decoder_ready(instance->infrared_decoder);
    1f58:	6a68      	ldr	r0, [r5, #36]	@ 0x24
    1f5a:	f7ff fffe 	bl	1124 <infrared_check_decoder_ready>
    if(message_decoded) {
    1f5e:	b140      	cbz	r0, 1f72 <sukima279+0x154>
        instance->signal.message = *message_decoded;
    1f60:	c80f      	ldmia	r0, {r0, r1, r2, r3}
    1f62:	f104 0c10 	add.w	ip, r4, #16
    1f66:	e88c 000f 	stmia.w	ip, {r0, r1, r2, r3}
        instance->signal.timings_cnt = 0;
    1f6a:	f8c4 900c 	str.w	r9, [r4, #12]
        instance->signal.decoded = true;
    1f6e:	f04f 0901 	mov.w	r9, #1
    if(instance->rx.received_signal_callback)
    1f72:	6b2b      	ldr	r3, [r5, #48]	@ 0x30
        instance->signal.decoded = true;
    1f74:	f884 9008 	strb.w	r9, [r4, #8]
    if(instance->rx.received_signal_callback)
    1f78:	2b00      	cmp	r3, #0
    1f7a:	d09c      	beq.n	1eb6 <sukima279+0x98>
        instance->rx.received_signal_callback(
    1f7c:	6b68      	ldr	r0, [r5, #52]	@ 0x34
    1f7e:	f104 0108 	add.w	r1, r4, #8
    1f82:	4798      	blx	r3
    1f84:	e797      	b.n	1eb6 <sukima279+0x98>
    1f86:	bf00      	nop
	...
    1f90:	0000083e 	.word	0x0000083e
	...

00001f9c <infrared_worker_rx_timeout_callback>:
static void infrared_worker_rx_timeout_callback(void* context) {
    1f9c:	b508      	push	{r3, lr}
    uint32_t flags_set = furi_thread_flags_set(
    1f9e:	6800      	ldr	r0, [r0, #0]
    1fa0:	f7ff fffe 	bl	0 <furi_thread_get_id>
    1fa4:	2102      	movs	r1, #2
    1fa6:	f7ff fffe 	bl	0 <furi_thread_flags_set>
    furi_check(flags_set & INFRARED_WORKER_RX_TIMEOUT_RECEIVED);
    1faa:	0783      	lsls	r3, r0, #30
    1fac:	d403      	bmi.n	1fb6 <sukima1492+0x4>
    1fae:	f04f 0c02 	mov.w	ip, #2

00001fb2 <sukima1492>:
    1fb2:	f7ff fffe 	bl	0 <__furi_crash_implementation>
}
    1fb6:	bd08      	pop	{r3, pc}

00001fb8 <infrared_worker_rx_set_received_signal_callback>:

void infrared_worker_rx_set_received_signal_callback(
    InfraredWorker* instance,
    InfraredWorkerReceivedSignalCallback callback,
    void* context) {
    1fb8:	b508      	push	{r3, lr}
    furi_check(instance);
    1fba:	b918      	cbnz	r0, 1fc4 <sukima1581+0x4>
    1fbc:	f04f 0c02 	mov.w	ip, #2

00001fc0 <sukima1581>:
    1fc0:	f7ff fffe 	bl	0 <__furi_crash_implementation>

    instance->rx.received_signal_callback = callback;
    1fc4:	f500 5080 	add.w	r0, r0, #4096	@ 0x1000
    instance->rx.received_signal_context = context;
    1fc8:	e9c0 120c 	strd	r1, r2, [r0, #48]	@ 0x30
}
    1fcc:	bd08      	pop	{r3, pc}
	...

00001fd0 <infrared_worker_alloc>:

InfraredWorker* infrared_worker_alloc(void) {
    1fd0:	b538      	push	{r3, r4, r5, lr}
    InfraredWorker* instance = malloc(sizeof(InfraredWorker));
    1fd2:	f241 0050 	movw	r0, #4176	@ 0x1050
    1fd6:	f7ff fffe 	bl	0 <malloc>

    instance->thread = furi_thread_alloc_ex("InfraredWorker", 2048, NULL, instance);
    1fda:	2200      	movs	r2, #0
    InfraredWorker* instance = malloc(sizeof(InfraredWorker));
    1fdc:	4604      	mov	r4, r0
    instance->thread = furi_thread_alloc_ex("InfraredWorker", 2048, NULL, instance);
    1fde:	4603      	mov	r3, r0
    1fe0:	f44f 6100 	mov.w	r1, #2048	@ 0x800
    1fe4:	480e      	ldr	r0, [pc, #56]	@ (2020 <infrared_worker_alloc+0x50>)
    1fe6:	f7ff fffe 	bl	0 <furi_thread_alloc_ex>

    size_t buffer_size =
        MAX(sizeof(InfraredWorkerTiming) * (MAX_TIMINGS_AMOUNT + 1),
            sizeof(LevelDuration) * MAX_TIMINGS_AMOUNT);
    instance->stream = furi_stream_buffer_alloc(buffer_size, sizeof(InfraredWorkerTiming));
    1fea:	2108      	movs	r1, #8
    instance->thread = furi_thread_alloc_ex("InfraredWorker", 2048, NULL, instance);
    1fec:	6020      	str	r0, [r4, #0]
    instance->stream = furi_stream_buffer_alloc(buffer_size, sizeof(InfraredWorkerTiming));
    1fee:	f242 0008 	movw	r0, #8200	@ 0x2008
    1ff2:	f7ff fffe 	bl	0 <furi_stream_buffer_alloc>
    1ff6:	6060      	str	r0, [r4, #4]
    instance->infrared_decoder = infrared_alloc_decoder();
    1ff8:	f7ff fffe 	bl	10e0 <infrared_alloc_decoder>
    1ffc:	f504 5580 	add.w	r5, r4, #4096	@ 0x1000
    2000:	6268      	str	r0, [r5, #36]	@ 0x24
    instance->infrared_encoder = infrared_alloc_encoder();
    2002:	f7ff fffe 	bl	115c <infrared_alloc_encoder>
    instance->blink_enable = false;
    2006:	f44f 7380 	mov.w	r3, #256	@ 0x100
    instance->infrared_encoder = infrared_alloc_encoder();
    200a:	6228      	str	r0, [r5, #32]
    instance->blink_enable = false;
    200c:	85ab      	strh	r3, [r5, #44]	@ 0x2c
    instance->decode_enable = true;
    instance->notification = furi_record_open(RECORD_NOTIFICATION);
    200e:	4805      	ldr	r0, [pc, #20]	@ (2024 <infrared_worker_alloc+0x54>)
    2010:	f7ff fffe 	bl	0 <furi_record_open>
    instance->state = InfraredWorkerStateIdle;
    2014:	2300      	movs	r3, #0
    2016:	772b      	strb	r3, [r5, #28]
    instance->notification = furi_record_open(RECORD_NOTIFICATION);
    2018:	62a8      	str	r0, [r5, #40]	@ 0x28

    return instance;
}
    201a:	4620      	mov	r0, r4
    201c:	bd38      	pop	{r3, r4, r5, pc}
    201e:	bf00      	nop
    2020:	00000859 	.word	0x00000859
    2024:	00000868 	.word	0x00000868

00002028 <infrared_worker_free>:

void infrared_worker_free(InfraredWorker* instance) {
    2028:	b538      	push	{r3, r4, r5, lr}
    furi_check(instance);
    202a:	4604      	mov	r4, r0
    202c:	b918      	cbnz	r0, 2036 <sukima1703+0x4>
    furi_check(instance->state == InfraredWorkerStateIdle);
    202e:	f04f 0c02 	mov.w	ip, #2

00002032 <sukima1703>:
    2032:	f7ff fffe 	bl	0 <__furi_crash_implementation>
    2036:	f500 5580 	add.w	r5, r0, #4096	@ 0x1000
    203a:	7f2b      	ldrb	r3, [r5, #28]
    203c:	2b00      	cmp	r3, #0
    203e:	d1f6      	bne.n	202e <infrared_worker_free+0x6>

    furi_record_close(RECORD_NOTIFICATION);
    2040:	4809      	ldr	r0, [pc, #36]	@ (2068 <sukima1703+0x36>)
    2042:	f7ff fffe 	bl	0 <furi_record_close>
    infrared_free_decoder(instance->infrared_decoder);
    2046:	6a68      	ldr	r0, [r5, #36]	@ 0x24
    2048:	f7ff fffe 	bl	1074 <infrared_free_decoder>
    infrared_free_encoder(instance->infrared_encoder);
    204c:	6a28      	ldr	r0, [r5, #32]
    204e:	f7ff fffe 	bl	116c <infrared_free_encoder>
    furi_stream_buffer_free(instance->stream);
    2052:	6860      	ldr	r0, [r4, #4]
    2054:	f7ff fffe 	bl	0 <furi_stream_buffer_free>
    furi_thread_free(instance->thread);
    2058:	6820      	ldr	r0, [r4, #0]
    205a:	f7ff fffe 	bl	0 <furi_thread_free>

    free(instance);
    205e:	4620      	mov	r0, r4
}
    2060:	e8bd 4038 	ldmia.w	sp!, {r3, r4, r5, lr}
    free(instance);
    2064:	f7ff bffe 	b.w	0 <free>
    2068:	00000868 	.word	0x00000868

0000206c <infrared_worker_rx_start>:

void infrared_worker_rx_start(InfraredWorker* instance) {
    206c:	b570      	push	{r4, r5, r6, lr}
    furi_check(instance);
    206e:	4604      	mov	r4, r0
    2070:	b918      	cbnz	r0, 207a <sukima1782+0x4>
    furi_check(instance->state == InfraredWorkerStateIdle);
    2072:	f04f 0c02 	mov.w	ip, #2

00002076 <sukima1782>:
    2076:	f7ff fffe 	bl	0 <__furi_crash_implementation>
    207a:	f500 5580 	add.w	r5, r0, #4096	@ 0x1000
    207e:	7f2e      	ldrb	r6, [r5, #28]
    2080:	2e00      	cmp	r6, #0
    2082:	d1f6      	bne.n	2072 <infrared_worker_rx_start+0x6>

    furi_stream_set_trigger_level(instance->stream, sizeof(LevelDuration));
    2084:	2104      	movs	r1, #4
    2086:	6840      	ldr	r0, [r0, #4]
    2088:	f7ff fffe 	bl	0 <furi_stream_set_trigger_level>

    furi_thread_set_callback(instance->thread, infrared_worker_rx_thread);
    208c:	490c      	ldr	r1, [pc, #48]	@ (20c0 <sukima1782+0x4a>)
    208e:	6820      	ldr	r0, [r4, #0]
    2090:	f7ff fffe 	bl	0 <furi_thread_set_callback>
    furi_thread_start(instance->thread);
    2094:	6820      	ldr	r0, [r4, #0]
    2096:	f7ff fffe 	bl	0 <furi_thread_start>

    furi_hal_infrared_async_rx_set_capture_isr_callback(infrared_worker_rx_callback, instance);
    209a:	480a      	ldr	r0, [pc, #40]	@ (20c4 <sukima1782+0x4e>)
    209c:	4621      	mov	r1, r4
    209e:	f7ff fffe 	bl	0 <furi_hal_infrared_async_rx_set_capture_isr_callback>
    furi_hal_infrared_async_rx_set_timeout_isr_callback(
    20a2:	4809      	ldr	r0, [pc, #36]	@ (20c8 <sukima1782+0x52>)
    20a4:	4621      	mov	r1, r4
    20a6:	f7ff fffe 	bl	0 <furi_hal_infrared_async_rx_set_timeout_isr_callback>
        infrared_worker_rx_timeout_callback, instance);
    furi_hal_infrared_async_rx_start();
    20aa:	f7ff fffe 	bl	0 <furi_hal_infrared_async_rx_start>
    furi_hal_infrared_async_rx_set_timeout(INFRARED_WORKER_RX_TIMEOUT);
    20ae:	4807      	ldr	r0, [pc, #28]	@ (20cc <sukima1782+0x56>)
    20b0:	f7ff fffe 	bl	0 <furi_hal_infrared_async_rx_set_timeout>

    instance->rx.overrun = false;
    instance->state = InfraredWorkerStateRunRx;
    20b4:	2301      	movs	r3, #1
    20b6:	772b      	strb	r3, [r5, #28]
    instance->rx.overrun = false;
    20b8:	f885 6038 	strb.w	r6, [r5, #56]	@ 0x38
}
    20bc:	bd70      	pop	{r4, r5, r6, pc}
    20be:	bf00      	nop
	...
    20cc:	000249f0 	.word	0x000249f0

000020d0 <infrared_worker_rx_stop>:

void infrared_worker_rx_stop(InfraredWorker* instance) {
    20d0:	b538      	push	{r3, r4, r5, lr}
    furi_check(instance);
    20d2:	4604      	mov	r4, r0
    20d4:	b918      	cbnz	r0, 20de <sukima1870+0x4>
    furi_hal_infrared_async_rx_stop();

    furi_thread_flags_set(furi_thread_get_id(instance->thread), INFRARED_WORKER_EXIT);
    furi_thread_join(instance->thread);

    furi_check(furi_stream_buffer_reset(instance->stream) == FuriStatusOk);
    20d6:	f04f 0c02 	mov.w	ip, #2

000020da <sukima1870>:
    20da:	f7ff fffe 	bl	0 <__furi_crash_implementation>
    furi_check(instance->state == InfraredWorkerStateRunRx);
    20de:	f500 5580 	add.w	r5, r0, #4096	@ 0x1000
    20e2:	7f2b      	ldrb	r3, [r5, #28]
    20e4:	2b01      	cmp	r3, #1
    20e6:	d1f6      	bne.n	20d6 <infrared_worker_rx_stop+0x6>
    furi_hal_infrared_async_rx_set_timeout_isr_callback(NULL, NULL);
    20e8:	2100      	movs	r1, #0
    20ea:	4608      	mov	r0, r1
    20ec:	f7ff fffe 	bl	0 <furi_hal_infrared_async_rx_set_timeout_isr_callback>
    furi_hal_infrared_async_rx_set_capture_isr_callback(NULL, NULL);
    20f0:	2100      	movs	r1, #0
    20f2:	4608      	mov	r0, r1
    20f4:	f7ff fffe 	bl	0 <furi_hal_infrared_async_rx_set_capture_isr_callback>
    furi_hal_infrared_async_rx_stop();
    20f8:	f7ff fffe 	bl	0 <furi_hal_infrared_async_rx_stop>
    furi_thread_flags_set(furi_thread_get_id(instance->thread), INFRARED_WORKER_EXIT);
    20fc:	6820      	ldr	r0, [r4, #0]
    20fe:	f7ff fffe 	bl	0 <furi_thread_get_id>
    2102:	2108      	movs	r1, #8
    2104:	f7ff fffe 	bl	0 <furi_thread_flags_set>
    furi_thread_join(instance->thread);
    2108:	6820      	ldr	r0, [r4, #0]
    210a:	f7ff fffe 	bl	0 <furi_thread_join>
    furi_check(furi_stream_buffer_reset(instance->stream) == FuriStatusOk);
    210e:	6860      	ldr	r0, [r4, #4]
    2110:	f7ff fffe 	bl	0 <furi_stream_buffer_reset>
    2114:	2800      	cmp	r0, #0
    2116:	d1de      	bne.n	20d6 <infrared_worker_rx_stop+0x6>

    instance->state = InfraredWorkerStateIdle;
    2118:	7728      	strb	r0, [r5, #28]
}
    211a:	bd38      	pop	{r3, r4, r5, pc}

0000211c <infrared_worker_signal_is_decoded>:

bool infrared_worker_signal_is_decoded(const InfraredWorkerSignal* signal) {
    211c:	b508      	push	{r3, lr}
    furi_check(signal);
    211e:	b918      	cbnz	r0, 2128 <sukima1943+0x4>
    2120:	f04f 0c02 	mov.w	ip, #2

00002124 <sukima1943>:
    2124:	f7ff fffe 	bl	0 <__furi_crash_implementation>

    return signal->decoded;
}
    2128:	7800      	ldrb	r0, [r0, #0]
    212a:	bd08      	pop	{r3, pc}

0000212c <infrared_worker_get_raw_signal>:

void infrared_worker_get_raw_signal(
    const InfraredWorkerSignal* signal,
    const uint32_t** timings,
    size_t* timings_cnt) {
    212c:	b508      	push	{r3, lr}
    furi_check(signal);
    212e:	b918      	cbnz	r0, 2138 <sukima1986+0x4>
    furi_check(timings);
    furi_check(timings_cnt);
    2130:	f04f 0c02 	mov.w	ip, #2

00002134 <sukima1986>:
    2134:	f7ff fffe 	bl	0 <__furi_crash_implementation>
    furi_check(timings);
    2138:	2900      	cmp	r1, #0
    213a:	d0f9      	beq.n	2130 <infrared_worker_get_raw_signal+0x4>
    furi_check(timings_cnt);
    213c:	2a00      	cmp	r2, #0
    213e:	d0f7      	beq.n	2130 <infrared_worker_get_raw_signal+0x4>

    *timings = signal->raw.timings;
    2140:	f100 0308 	add.w	r3, r0, #8
    2144:	600b      	str	r3, [r1, #0]
    *timings_cnt = signal->timings_cnt;
    2146:	6843      	ldr	r3, [r0, #4]
    2148:	6013      	str	r3, [r2, #0]
}
    214a:	bd08      	pop	{r3, pc}

0000214c <infrared_worker_get_decoded_signal>:

const InfraredMessage* infrared_worker_get_decoded_signal(const InfraredWorkerSignal* signal) {
    214c:	b508      	push	{r3, lr}
    furi_check(signal);
    214e:	b918      	cbnz	r0, 2158 <sukima2044+0x4>
    2150:	f04f 0c02 	mov.w	ip, #2

00002154 <sukima2044>:
    2154:	f7ff fffe 	bl	0 <__furi_crash_implementation>

    return &signal->message;
}
    2158:	3008      	adds	r0, #8
    215a:	bd08      	pop	{r3, pc}

0000215c <infrared_worker_rx_enable_signal_decoding>:
    furi_check(instance);

    instance->blink_enable = enable;
}

void infrared_worker_rx_enable_signal_decoding(InfraredWorker* instance, bool enable) {
    215c:	b508      	push	{r3, lr}
    furi_check(instance);
    215e:	b918      	cbnz	r0, 2168 <sukima2125+0x4>
    2160:	f04f 0c02 	mov.w	ip, #2

00002164 <sukima2125>:
    2164:	f7ff fffe 	bl	0 <__furi_crash_implementation>

    instance->decode_enable = enable;
    2168:	f500 5080 	add.w	r0, r0, #4096	@ 0x1000
    216c:	f880 102d 	strb.w	r1, [r0, #45]	@ 0x2d
}
    2170:	bd08      	pop	{r3, pc}

00002172 <infrared_decoder_kaseikyo_check_ready>:
#include "infrared_protocol_kaseikyo_i.h"
#include <core/check.h>

InfraredMessage* infrared_decoder_kaseikyo_check_ready(void* ctx) {
    return infrared_common_decoder_check_ready(ctx);
    2172:	f7ff bffe 	b.w	2f5c <infrared_common_decoder_check_ready>

00002176 <infrared_decoder_kaseikyo_interpret>:
}

bool infrared_decoder_kaseikyo_interpret(InfraredCommonDecoder* decoder) {
    2176:	b530      	push	{r4, r5, lr}
    uint8_t genre2 = decoder->data[3] & 0x0f;
    uint16_t data = (uint16_t)(decoder->data[3] >> 4) | ((uint16_t)(decoder->data[4] & 0x3f) << 4);
    uint8_t id = decoder->data[4] >> 6;
    uint8_t parity = decoder->data[5];

    uint8_t vendor_parity_check = decoder->data[0] ^ decoder->data[1];
    2178:	f890 1036 	ldrb.w	r1, [r0, #54]	@ 0x36
    217c:	f890 3037 	ldrb.w	r3, [r0, #55]	@ 0x37
    uint8_t vendor_parity = decoder->data[2] & 0x0f;
    2180:	f890 2038 	ldrb.w	r2, [r0, #56]	@ 0x38
    uint8_t vendor_parity_check = decoder->data[0] ^ decoder->data[1];
    2184:	404b      	eors	r3, r1
    vendor_parity_check = (vendor_parity_check & 0xf) ^ (vendor_parity_check >> 4);
    uint8_t parity_check = decoder->data[2] ^ decoder->data[3] ^ decoder->data[4];

    if(vendor_parity == vendor_parity_check && parity == parity_check) {
    2186:	f003 010f 	and.w	r1, r3, #15
    218a:	f002 040f 	and.w	r4, r2, #15
    218e:	ea81 1313 	eor.w	r3, r1, r3, lsr #4
    2192:	429c      	cmp	r4, r3
    2194:	d124      	bne.n	21e0 <infrared_decoder_kaseikyo_interpret+0x6a>
    uint8_t genre2 = decoder->data[3] & 0x0f;
    2196:	f890 3039 	ldrb.w	r3, [r0, #57]	@ 0x39
    uint16_t data = (uint16_t)(decoder->data[3] >> 4) | ((uint16_t)(decoder->data[4] & 0x3f) << 4);
    219a:	f890 103a 	ldrb.w	r1, [r0, #58]	@ 0x3a
    if(vendor_parity == vendor_parity_check && parity == parity_check) {
    219e:	f890 503b 	ldrb.w	r5, [r0, #59]	@ 0x3b
    uint8_t parity_check = decoder->data[2] ^ decoder->data[3] ^ decoder->data[4];
    21a2:	ea82 0403 	eor.w	r4, r2, r3
    if(vendor_parity == vendor_parity_check && parity == parity_check) {
    21a6:	404c      	eors	r4, r1
    21a8:	42a5      	cmp	r5, r4
    21aa:	d119      	bne.n	21e0 <infrared_decoder_kaseikyo_interpret+0x6a>
    uint16_t data = (uint16_t)(decoder->data[3] >> 4) | ((uint16_t)(decoder->data[4] & 0x3f) << 4);
    21ac:	010c      	lsls	r4, r1, #4
    21ae:	8ec5      	ldrh	r5, [r0, #54]	@ 0x36
    21b0:	f404 747c 	and.w	r4, r4, #1008	@ 0x3f0
        decoder->message.command = (uint32_t)data;
    21b4:	ea44 1413 	orr.w	r4, r4, r3, lsr #4
        decoder->message.address = ((uint32_t)id << 24) | ((uint32_t)vendor_id << 8) |
                                   ((uint32_t)genre1 << 4) | (uint32_t)genre2;
    21b8:	f003 030f 	and.w	r3, r3, #15
    21bc:	ea43 2305 	orr.w	r3, r3, r5, lsl #8
        decoder->message.address = ((uint32_t)id << 24) | ((uint32_t)vendor_id << 8) |
    21c0:	0989      	lsrs	r1, r1, #6
                                   ((uint32_t)genre1 << 4) | (uint32_t)genre2;
    21c2:	ea43 6301 	orr.w	r3, r3, r1, lsl #24
    21c6:	f002 02f0 	and.w	r2, r2, #240	@ 0xf0
    21ca:	4313      	orrs	r3, r2
        decoder->message.address = ((uint32_t)id << 24) | ((uint32_t)vendor_id << 8) |
    21cc:	6243      	str	r3, [r0, #36]	@ 0x24
        decoder->message.protocol = InfraredProtocolKaseikyo;
    21ce:	230b      	movs	r3, #11
    21d0:	f880 3020 	strb.w	r3, [r0, #32]
        decoder->message.repeat = false;
    21d4:	2300      	movs	r3, #0
        decoder->message.command = (uint32_t)data;
    21d6:	6284      	str	r4, [r0, #40]	@ 0x28
        decoder->message.repeat = false;
    21d8:	f880 302c 	strb.w	r3, [r0, #44]	@ 0x2c
        result = true;
    21dc:	2001      	movs	r0, #1
    }

    return result;
}
    21de:	bd30      	pop	{r4, r5, pc}
    bool result = false;
    21e0:	2000      	movs	r0, #0
    21e2:	e7fc      	b.n	21de <infrared_decoder_kaseikyo_interpret+0x68>

000021e4 <infrared_decoder_kaseikyo_alloc>:

void* infrared_decoder_kaseikyo_alloc(void) {
    return infrared_common_decoder_alloc(&infrared_protocol_kaseikyo);
    21e4:	4801      	ldr	r0, [pc, #4]	@ (21ec <infrared_decoder_kaseikyo_alloc+0x8>)
    21e6:	f7ff bffe 	b.w	2fa2 <infrared_common_decoder_alloc>
    21ea:	bf00      	nop
    21ec:	00000000 	.word	0x00000000

000021f0 <infrared_decoder_kaseikyo_decode>:
}

InfraredMessage* infrared_decoder_kaseikyo_decode(void* decoder, bool level, uint32_t duration) {
    return infrared_common_decode(decoder, level, duration);
    21f0:	f7ff bffe 	b.w	2fda <infrared_common_decode>

000021f4 <infrared_decoder_kaseikyo_free>:
}

void infrared_decoder_kaseikyo_free(void* decoder) {
    infrared_common_decoder_free(decoder);
    21f4:	f7ff bffe 	b.w	2fc6 <infrared_common_decoder_free>

000021f8 <infrared_decoder_kaseikyo_reset>:
}

void infrared_decoder_kaseikyo_reset(void* decoder) {
    infrared_common_decoder_reset(decoder);
    21f8:	f7ff bffe 	b.w	2fca <infrared_common_decoder_reset>

000021fc <infrared_encoder_kaseikyo_reset>:
#include "infrared_protocol_kaseikyo_i.h"
#include <core/check.h>

void infrared_encoder_kaseikyo_reset(void* encoder_ptr, const InfraredMessage* message) {
    21fc:	b538      	push	{r3, r4, r5, lr}
    21fe:	460d      	mov	r5, r1
    2200:	4604      	mov	r4, r0
    furi_assert(encoder_ptr);

    InfraredCommonEncoder* encoder = encoder_ptr;
    infrared_common_encoder_reset(encoder);
    2202:	f7ff fffe 	bl	3344 <infrared_common_encoder_reset>

    uint32_t address = message->address;
    uint16_t command = message->command;
    2206:	e9d5 0201 	ldrd	r0, r2, [r5, #4]
    uint16_t vendor_id = (address >> 8) & 0xffff;
    uint8_t genre1 = (address >> 4) & 0xf;
    uint8_t genre2 = address & 0xf;

    encoder->data[0] = (uint8_t)(vendor_id & 0xff);
    encoder->data[1] = (uint8_t)(vendor_id >> 8);
    220a:	f3c0 4307 	ubfx	r3, r0, #16, #8
    encoder->data[0] = (uint8_t)(vendor_id & 0xff);
    220e:	f3c0 2107 	ubfx	r1, r0, #8, #8
    2212:	7521      	strb	r1, [r4, #20]
    uint8_t vendor_parity = encoder->data[0] ^ encoder->data[1];
    2214:	4059      	eors	r1, r3
    encoder->data[1] = (uint8_t)(vendor_id >> 8);
    2216:	7563      	strb	r3, [r4, #21]
    vendor_parity = (vendor_parity & 0xf) ^ (vendor_parity >> 4);
    2218:	f001 030f 	and.w	r3, r1, #15
    221c:	ea83 1311 	eor.w	r3, r3, r1, lsr #4
    encoder->data[2] = (vendor_parity & 0xf) | (genre1 << 4);
    2220:	f000 01f0 	and.w	r1, r0, #240	@ 0xf0
    2224:	430b      	orrs	r3, r1
    uint8_t genre2 = address & 0xf;
    2226:	f000 010f 	and.w	r1, r0, #15
    encoder->data[3] = (genre2 & 0xf) | ((uint8_t)(command & 0xf) << 4);
    222a:	ea41 1102 	orr.w	r1, r1, r2, lsl #4
    encoder->data[4] = (id << 6) | (uint8_t)(command >> 4);
    222e:	f3c0 6001 	ubfx	r0, r0, #24, #2
    2232:	f3c2 120b 	ubfx	r2, r2, #4, #12
    2236:	ea42 1280 	orr.w	r2, r2, r0, lsl #6
    encoder->data[3] = (genre2 & 0xf) | ((uint8_t)(command & 0xf) << 4);
    223a:	b249      	sxtb	r1, r1
    encoder->data[4] = (id << 6) | (uint8_t)(command >> 4);
    223c:	b252      	sxtb	r2, r2
    encoder->data[2] = (vendor_parity & 0xf) | (genre1 << 4);
    223e:	b25b      	sxtb	r3, r3
    encoder->data[3] = (genre2 & 0xf) | ((uint8_t)(command & 0xf) << 4);
    2240:	75e1      	strb	r1, [r4, #23]
    encoder->data[5] = encoder->data[2] ^ encoder->data[3] ^ encoder->data[4];
    2242:	4051      	eors	r1, r2
    encoder->data[2] = (vendor_parity & 0xf) | (genre1 << 4);
    2244:	75a3      	strb	r3, [r4, #22]
    encoder->data[5] = encoder->data[2] ^ encoder->data[3] ^ encoder->data[4];
    2246:	404b      	eors	r3, r1
    2248:	7663      	strb	r3, [r4, #25]

    encoder->bits_to_encode = encoder->protocol->databit_len[0];
    224a:	6823      	ldr	r3, [r4, #0]
    encoder->data[4] = (id << 6) | (uint8_t)(command >> 4);
    224c:	7622      	strb	r2, [r4, #24]
    encoder->bits_to_encode = encoder->protocol->databit_len[0];
    224e:	7f5b      	ldrb	r3, [r3, #29]
    2250:	71a3      	strb	r3, [r4, #6]
}
    2252:	bd38      	pop	{r3, r4, r5, pc}

00002254 <infrared_encoder_kaseikyo_alloc>:

void* infrared_encoder_kaseikyo_alloc(void) {
    return infrared_common_encoder_alloc(&infrared_protocol_kaseikyo);
    2254:	4801      	ldr	r0, [pc, #4]	@ (225c <infrared_encoder_kaseikyo_alloc+0x8>)
    2256:	f7ff bffe 	b.w	3314 <infrared_common_encoder_alloc>
    225a:	bf00      	nop
    225c:	00000000 	.word	0x00000000

00002260 <infrared_encoder_kaseikyo_free>:
}

void infrared_encoder_kaseikyo_free(void* encoder_ptr) {
    infrared_common_encoder_free(encoder_ptr);
    2260:	f7ff bffe 	b.w	3340 <infrared_common_encoder_free>

00002264 <infrared_encoder_kaseikyo_encode>:
}

InfraredStatus
    infrared_encoder_kaseikyo_encode(void* encoder_ptr, uint32_t* duration, bool* level) {
    return infrared_common_encode(encoder_ptr, duration, level);
    2264:	f7ff bffe 	b.w	3266 <infrared_common_encode>

00002268 <infrared_protocol_kaseikyo_get_variant>:
    .repeat_count = INFRARED_KASEIKYO_REPEAT_COUNT_MIN,
};

const InfraredProtocolVariant* infrared_protocol_kaseikyo_get_variant(InfraredProtocol protocol) {
    if(protocol == InfraredProtocolKaseikyo)
        return &infrared_protocol_variant_kaseikyo;
    2268:	280b      	cmp	r0, #11
    else
        return NULL;
}
    226a:	4802      	ldr	r0, [pc, #8]	@ (2274 <infrared_protocol_kaseikyo_get_variant+0xc>)
    226c:	bf18      	it	ne
    226e:	2000      	movne	r0, #0
    2270:	4770      	bx	lr
    2272:	bf00      	nop
    2274:	00000880 	.word	0x00000880

00002278 <infrared_decoder_nec_check_ready>:
#include "infrared_protocol_nec_i.h"
#include <core/check.h>

InfraredMessage* infrared_decoder_nec_check_ready(void* ctx) {
    return infrared_common_decoder_check_ready(ctx);
    2278:	f7ff bffe 	b.w	2f5c <infrared_common_decoder_check_ready>

0000227c <infrared_decoder_nec_interpret>:
bool infrared_decoder_nec_interpret(InfraredCommonDecoder* decoder) {
    furi_assert(decoder);

    bool result = false;

    if(decoder->databit_cnt == 32) {
    227c:	8e83      	ldrh	r3, [r0, #52]	@ 0x34
    227e:	2b20      	cmp	r3, #32
bool infrared_decoder_nec_interpret(InfraredCommonDecoder* decoder) {
    2280:	b570      	push	{r4, r5, r6, lr}
    if(decoder->databit_cnt == 32) {
    2282:	d11f      	bne.n	22c4 <infrared_decoder_nec_interpret+0x48>
        uint8_t address = decoder->data[0];
        uint8_t address_inverse = decoder->data[1];
        uint8_t command = decoder->data[2];
        uint8_t command_inverse = decoder->data[3];
        uint8_t inverse_command_inverse = (uint8_t)~command_inverse;
    2284:	f890 1039 	ldrb.w	r1, [r0, #57]	@ 0x39
        uint8_t command = decoder->data[2];
    2288:	f890 4038 	ldrb.w	r4, [r0, #56]	@ 0x38
    228c:	8ec2      	ldrh	r2, [r0, #54]	@ 0x36
        uint8_t inverse_address_inverse = (uint8_t)~address_inverse;
        if((command == inverse_command_inverse) && (address == inverse_address_inverse)) {
    228e:	8f03      	ldrh	r3, [r0, #56]	@ 0x38
        uint8_t inverse_command_inverse = (uint8_t)~command_inverse;
    2290:	43c9      	mvns	r1, r1
        if((command == inverse_command_inverse) && (address == inverse_address_inverse)) {
    2292:	b2c9      	uxtb	r1, r1
    2294:	428c      	cmp	r4, r1
    2296:	d113      	bne.n	22c0 <infrared_decoder_nec_interpret+0x44>
        uint8_t inverse_address_inverse = (uint8_t)~address_inverse;
    2298:	f890 1037 	ldrb.w	r1, [r0, #55]	@ 0x37
        uint8_t address = decoder->data[0];
    229c:	f890 5036 	ldrb.w	r5, [r0, #54]	@ 0x36
        uint8_t inverse_address_inverse = (uint8_t)~address_inverse;
    22a0:	43c9      	mvns	r1, r1
        if((command == inverse_command_inverse) && (address == inverse_address_inverse)) {
    22a2:	b2c9      	uxtb	r1, r1
    22a4:	428d      	cmp	r5, r1
    22a6:	d10b      	bne.n	22c0 <infrared_decoder_nec_interpret+0x44>
            decoder->message.protocol = InfraredProtocolNEC;
            decoder->message.address = address;
    22a8:	462a      	mov	r2, r5
            decoder->message.command = command;
    22aa:	4623      	mov	r3, r4
            decoder->message.repeat = false;
            result = true;
    22ac:	2100      	movs	r1, #0
        uint16_t command_inverse = (*data2 >> 2) & 0xFF;

        if((address == (~address_inverse & 0x1FFF)) && (command == (~command_inverse & 0xFF))) {
            decoder->message.protocol = InfraredProtocolNEC42;
            decoder->message.address = address;
            decoder->message.command = command;
    22ae:	e9c0 2309 	strd	r2, r3, [r0, #36]	@ 0x24
            decoder->message.repeat = false;
    22b2:	2300      	movs	r3, #0
            decoder->message.protocol = InfraredProtocolNEC42;
    22b4:	f880 1020 	strb.w	r1, [r0, #32]
            decoder->message.repeat = false;
    22b8:	f880 302c 	strb.w	r3, [r0, #44]	@ 0x2c
            result = true;
    22bc:	2001      	movs	r0, #1
            result = true;
        }
    }

    return result;
}
    22be:	bd70      	pop	{r4, r5, r6, pc}
            decoder->message.command = decoder->data[2] | (decoder->data[3] << 8);
    22c0:	2101      	movs	r1, #1
    22c2:	e7f4      	b.n	22ae <infrared_decoder_nec_interpret+0x32>
    } else if(decoder->databit_cnt == 42) {
    22c4:	2b2a      	cmp	r3, #42	@ 0x2a
    22c6:	d11e      	bne.n	2306 <infrared_decoder_nec_interpret+0x8a>
        uint16_t command = ((*data1 >> 26) & 0x3F) | ((*data2 & 0x3) << 6);
    22c8:	8f41      	ldrh	r1, [r0, #58]	@ 0x3a
        uint16_t address = *data1 & 0x1FFF;
    22ca:	f8d0 2036 	ldr.w	r2, [r0, #54]	@ 0x36
        uint16_t command = ((*data1 >> 26) & 0x3F) | ((*data2 & 0x3) << 6);
    22ce:	018b      	lsls	r3, r1, #6
        uint16_t address_inverse = (*data1 >> 13) & 0x1FFF;
    22d0:	f3c2 354c 	ubfx	r5, r2, #13, #13
        uint16_t command = ((*data1 >> 26) & 0x3F) | ((*data2 & 0x3) << 6);
    22d4:	b2db      	uxtb	r3, r3
        uint16_t address = *data1 & 0x1FFF;
    22d6:	f3c2 040c 	ubfx	r4, r2, #0, #13
        uint16_t command = ((*data1 >> 26) & 0x3F) | ((*data2 & 0x3) << 6);
    22da:	ea43 6392 	orr.w	r3, r3, r2, lsr #26
        if((address == (~address_inverse & 0x1FFF)) && (command == (~command_inverse & 0xFF))) {
    22de:	f485 52ff 	eor.w	r2, r5, #8160	@ 0x1fe0
    22e2:	f082 021f 	eor.w	r2, r2, #31
    22e6:	42a2      	cmp	r2, r4
        uint16_t command_inverse = (*data2 >> 2) & 0xFF;
    22e8:	f3c1 0187 	ubfx	r1, r1, #2, #8
        if((address == (~address_inverse & 0x1FFF)) && (command == (~command_inverse & 0xFF))) {
    22ec:	d105      	bne.n	22fa <infrared_decoder_nec_interpret+0x7e>
    22ee:	f081 06ff 	eor.w	r6, r1, #255	@ 0xff
    22f2:	42b3      	cmp	r3, r6
    22f4:	d101      	bne.n	22fa <infrared_decoder_nec_interpret+0x7e>
            result = true;
    22f6:	2102      	movs	r1, #2
    22f8:	e7d9      	b.n	22ae <infrared_decoder_nec_interpret+0x32>
            decoder->message.command = command | (command_inverse << 8);
    22fa:	ea43 2301 	orr.w	r3, r3, r1, lsl #8
            decoder->message.address = address | (address_inverse << 13);
    22fe:	ea44 3245 	orr.w	r2, r4, r5, lsl #13
            decoder->message.command = command | (command_inverse << 8);
    2302:	2103      	movs	r1, #3
    2304:	e7d3      	b.n	22ae <infrared_decoder_nec_interpret+0x32>
    bool result = false;
    2306:	2000      	movs	r0, #0
    2308:	e7d9      	b.n	22be <infrared_decoder_nec_interpret+0x42>
	...

0000230c <infrared_decoder_nec_decode_repeat>:

// timings start from Space (delay between message and repeat)
InfraredStatus infrared_decoder_nec_decode_repeat(InfraredCommonDecoder* decoder) {
    230c:	b510      	push	{r4, lr}

    float preamble_tolerance = decoder->protocol->timings.preamble_tolerance;
    uint32_t bit_tolerance = decoder->protocol->timings.bit_tolerance;
    InfraredStatus status = InfraredStatusError;

    if(decoder->timings_cnt < 4) return InfraredStatusOk;
    230e:	f890 2031 	ldrb.w	r2, [r0, #49]	@ 0x31
    2312:	2a03      	cmp	r2, #3
InfraredStatus infrared_decoder_nec_decode_repeat(InfraredCommonDecoder* decoder) {
    2314:	4603      	mov	r3, r0
    if(decoder->timings_cnt < 4) return InfraredStatusOk;
    2316:	d942      	bls.n	239e <infrared_decoder_nec_decode_repeat+0x92>

    if((decoder->timings[0] > INFRARED_NEC_REPEAT_PAUSE_MIN) &&
    2318:	6882      	ldr	r2, [r0, #8]
    231a:	f46f 617a 	mvn.w	r1, #4000	@ 0xfa0
    231e:	440a      	add	r2, r1
    2320:	4921      	ldr	r1, [pc, #132]	@ (23a8 <infrared_decoder_nec_decode_repeat+0x9c>)
    2322:	428a      	cmp	r2, r1
    2324:	d83d      	bhi.n	23a2 <infrared_decoder_nec_decode_repeat+0x96>
    float preamble_tolerance = decoder->protocol->timings.preamble_tolerance;
    2326:	6802      	ldr	r2, [r0, #0]
       (decoder->timings[0] < INFRARED_NEC_REPEAT_PAUSE_MAX) &&
       MATCH_TIMING(decoder->timings[1], INFRARED_NEC_REPEAT_MARK, preamble_tolerance) &&
    2328:	ed90 7a03 	vldr	s14, [r0, #12]
    float preamble_tolerance = decoder->protocol->timings.preamble_tolerance;
    232c:	edd2 7a05 	vldr	s15, [r2, #20]
       MATCH_TIMING(decoder->timings[1], INFRARED_NEC_REPEAT_MARK, preamble_tolerance) &&
    2330:	eef8 6a47 	vcvt.f32.u32	s13, s14
    float preamble_tolerance = decoder->protocol->timings.preamble_tolerance;
    2334:	eef8 7a67 	vcvt.f32.u32	s15, s15
       MATCH_TIMING(decoder->timings[1], INFRARED_NEC_REPEAT_MARK, preamble_tolerance) &&
    2338:	ed9f 7a1c 	vldr	s14, [pc, #112]	@ 23ac <infrared_decoder_nec_decode_repeat+0xa0>
    233c:	ee37 6a87 	vadd.f32	s12, s15, s14
       (decoder->timings[0] < INFRARED_NEC_REPEAT_PAUSE_MAX) &&
    2340:	eef4 6ac6 	vcmpe.f32	s13, s12
    2344:	eef1 fa10 	vmrs	APSR_nzcv, fpscr
    2348:	d52b      	bpl.n	23a2 <infrared_decoder_nec_decode_repeat+0x96>
       MATCH_TIMING(decoder->timings[1], INFRARED_NEC_REPEAT_MARK, preamble_tolerance) &&
    234a:	ee37 7a67 	vsub.f32	s14, s14, s15
    234e:	eef4 6ac7 	vcmpe.f32	s13, s14
    2352:	eef1 fa10 	vmrs	APSR_nzcv, fpscr
    2356:	dd24      	ble.n	23a2 <infrared_decoder_nec_decode_repeat+0x96>
       MATCH_TIMING(decoder->timings[2], INFRARED_NEC_REPEAT_SPACE, preamble_tolerance) &&
    2358:	ed90 7a04 	vldr	s14, [r0, #16]
    235c:	eef8 6a47 	vcvt.f32.u32	s13, s14
    2360:	ed9f 7a13 	vldr	s14, [pc, #76]	@ 23b0 <infrared_decoder_nec_decode_repeat+0xa4>
    2364:	ee37 6a87 	vadd.f32	s12, s15, s14
       MATCH_TIMING(decoder->timings[1], INFRARED_NEC_REPEAT_MARK, preamble_tolerance) &&
    2368:	eef4 6ac6 	vcmpe.f32	s13, s12
    236c:	eef1 fa10 	vmrs	APSR_nzcv, fpscr
    2370:	d517      	bpl.n	23a2 <infrared_decoder_nec_decode_repeat+0x96>
       MATCH_TIMING(decoder->timings[2], INFRARED_NEC_REPEAT_SPACE, preamble_tolerance) &&
    2372:	ee37 7a67 	vsub.f32	s14, s14, s15
    2376:	eef4 6ac7 	vcmpe.f32	s13, s14
    237a:	eef1 fa10 	vmrs	APSR_nzcv, fpscr
    237e:	dd10      	ble.n	23a2 <infrared_decoder_nec_decode_repeat+0x96>
    uint32_t bit_tolerance = decoder->protocol->timings.bit_tolerance;
    2380:	6994      	ldr	r4, [r2, #24]
       MATCH_TIMING(decoder->timings[3], decoder->protocol->timings.bit1_mark, bit_tolerance)) {
    2382:	8992      	ldrh	r2, [r2, #12]
    2384:	6941      	ldr	r1, [r0, #20]
    2386:	1910      	adds	r0, r2, r4
       MATCH_TIMING(decoder->timings[2], INFRARED_NEC_REPEAT_SPACE, preamble_tolerance) &&
    2388:	4281      	cmp	r1, r0
    238a:	f04f 0000 	mov.w	r0, #0
    238e:	d205      	bcs.n	239c <infrared_decoder_nec_decode_repeat+0x90>
       MATCH_TIMING(decoder->timings[3], decoder->protocol->timings.bit1_mark, bit_tolerance)) {
    2390:	1b12      	subs	r2, r2, r4
    2392:	4291      	cmp	r1, r2
    2394:	d902      	bls.n	239c <infrared_decoder_nec_decode_repeat+0x90>
        status = InfraredStatusReady;
        decoder->timings_cnt = 0;
    2396:	f883 0031 	strb.w	r0, [r3, #49]	@ 0x31
        status = InfraredStatusReady;
    239a:	2003      	movs	r0, #3
    } else {
        status = InfraredStatusError;
    }

    return status;
}
    239c:	bd10      	pop	{r4, pc}
    if(decoder->timings_cnt < 4) return InfraredStatusOk;
    239e:	2001      	movs	r0, #1
    23a0:	e7fc      	b.n	239c <infrared_decoder_nec_decode_repeat+0x90>
        status = InfraredStatusError;
    23a2:	2000      	movs	r0, #0
    23a4:	e7fa      	b.n	239c <infrared_decoder_nec_decode_repeat+0x90>
    23a6:	bf00      	nop
    23a8:	00023a4e 	.word	0x00023a4e
    23ac:	460ca000 	.word	0x460ca000
    23b0:	450ca000 	.word	0x450ca000

000023b4 <infrared_decoder_nec_alloc>:

void* infrared_decoder_nec_alloc(void) {
    return infrared_common_decoder_alloc(&infrared_protocol_nec);
    23b4:	4801      	ldr	r0, [pc, #4]	@ (23bc <infrared_decoder_nec_alloc+0x8>)
    23b6:	f7ff bffe 	b.w	2fa2 <infrared_common_decoder_alloc>
    23ba:	bf00      	nop
    23bc:	00000000 	.word	0x00000000

000023c0 <infrared_decoder_nec_decode>:
}

InfraredMessage* infrared_decoder_nec_decode(void* decoder, bool level, uint32_t duration) {
    return infrared_common_decode(decoder, level, duration);
    23c0:	f7ff bffe 	b.w	2fda <infrared_common_decode>

000023c4 <infrared_decoder_nec_free>:
}

void infrared_decoder_nec_free(void* decoder) {
    infrared_common_decoder_free(decoder);
    23c4:	f7ff bffe 	b.w	2fc6 <infrared_common_decoder_free>

000023c8 <infrared_decoder_nec_reset>:
}

void infrared_decoder_nec_reset(void* decoder) {
    infrared_common_decoder_reset(decoder);
    23c8:	f7ff bffe 	b.w	2fca <infrared_common_decoder_reset>

000023cc <infrared_encoder_nec_reset>:
    INFRARED_NEC_REPEAT_MARK,
    INFRARED_NEC_REPEAT_SPACE,
    INFRARED_NEC_BIT1_MARK,
};

void infrared_encoder_nec_reset(void* encoder_ptr, const InfraredMessage* message) {
    23cc:	b538      	push	{r3, r4, r5, lr}
    23ce:	460c      	mov	r4, r1
    23d0:	4605      	mov	r5, r0
    furi_assert(encoder_ptr);
    furi_assert(message);

    InfraredCommonEncoder* encoder = encoder_ptr;
    infrared_common_encoder_reset(encoder);
    23d2:	f7ff fffe 	bl	3344 <infrared_common_encoder_reset>

    uint32_t* data1 = (void*)encoder->data;
    uint32_t* data2 = data1 + 1;
    if(message->protocol == InfraredProtocolNEC) {
    23d6:	f994 3000 	ldrsb.w	r3, [r4]
    23da:	b983      	cbnz	r3, 23fe <infrared_encoder_nec_reset+0x32>
        uint8_t address = message->address;
        uint8_t address_inverse = ~address;
        uint8_t command = message->command;
    23dc:	e9d4 2101 	ldrd	r2, r1, [r4, #4]
        uint8_t command_inverse = ~command;
        *data1 = address;
        *data1 |= address_inverse << 8;
        *data1 |= command << 16;
    23e0:	040b      	lsls	r3, r1, #16
    23e2:	b2d0      	uxtb	r0, r2
    23e4:	f403 037f 	and.w	r3, r3, #16711680	@ 0xff0000
        uint8_t address_inverse = ~address;
    23e8:	43d2      	mvns	r2, r2
        *data1 |= command << 16;
    23ea:	4303      	orrs	r3, r0
        *data1 |= address_inverse << 8;
    23ec:	b2d2      	uxtb	r2, r2
        *data1 |= command << 16;
    23ee:	ea43 2302 	orr.w	r3, r3, r2, lsl #8
        uint8_t command_inverse = ~command;
    23f2:	43c9      	mvns	r1, r1
        *data1 |= command_inverse << 24;
    23f4:	ea43 6301 	orr.w	r3, r3, r1, lsl #24
    23f8:	616b      	str	r3, [r5, #20]
    23fa:	2320      	movs	r3, #32
    23fc:	e024      	b.n	2448 <infrared_encoder_nec_reset+0x7c>
        encoder->bits_to_encode = 32;
    } else if(message->protocol == InfraredProtocolNECext) {
    23fe:	2b01      	cmp	r3, #1
    2400:	d105      	bne.n	240e <infrared_encoder_nec_reset+0x42>
        *data1 = (uint16_t)message->address;
    2402:	88a3      	ldrh	r3, [r4, #4]
    2404:	616b      	str	r3, [r5, #20]
        *data1 |= (message->command & 0xFFFF) << 16;
    2406:	68a2      	ldr	r2, [r4, #8]
    2408:	ea43 4302 	orr.w	r3, r3, r2, lsl #16
        encoder->bits_to_encode = 32;
    240c:	e7f4      	b.n	23f8 <infrared_encoder_nec_reset+0x2c>
    } else if(message->protocol == InfraredProtocolNEC42) {
    240e:	2b02      	cmp	r3, #2
    2410:	d11c      	bne.n	244c <infrared_encoder_nec_reset+0x80>
        /* 13 address + 13 inverse address + 8 command + 8 inv command */
        *data1 = message->address & 0x1FFFUL;
    2412:	6862      	ldr	r2, [r4, #4]
    2414:	f3c2 020c 	ubfx	r2, r2, #0, #13
    2418:	616a      	str	r2, [r5, #20]
        *data1 |= (~message->address & 0x1FFFUL) << 13;
    241a:	6863      	ldr	r3, [r4, #4]
    241c:	43d9      	mvns	r1, r3
    241e:	4b14      	ldr	r3, [pc, #80]	@ (2470 <sukima200+0x4>)
    2420:	ea03 3341 	and.w	r3, r3, r1, lsl #13
    2424:	4313      	orrs	r3, r2
    2426:	616b      	str	r3, [r5, #20]
        *data1 |= ((message->command & 0x3FUL) << 26);
    2428:	68a2      	ldr	r2, [r4, #8]
    242a:	ea43 6382 	orr.w	r3, r3, r2, lsl #26
    242e:	616b      	str	r3, [r5, #20]
        *data2 = (message->command & 0xC0UL) >> 6;
    2430:	68a2      	ldr	r2, [r4, #8]
    2432:	f3c2 1281 	ubfx	r2, r2, #6, #2
    2436:	61aa      	str	r2, [r5, #24]
        *data2 |= (~message->command & 0xFFUL) << 2;
    2438:	68a3      	ldr	r3, [r4, #8]
    243a:	43db      	mvns	r3, r3
    243c:	009b      	lsls	r3, r3, #2
    243e:	f403 737f 	and.w	r3, r3, #1020	@ 0x3fc
    2442:	4313      	orrs	r3, r2
    2444:	61ab      	str	r3, [r5, #24]
    2446:	232a      	movs	r3, #42	@ 0x2a
        encoder->bits_to_encode = 32;
    2448:	71ab      	strb	r3, [r5, #6]
        *data2 = (message->command & 0xFFC0) >> 6;
        encoder->bits_to_encode = 42;
    } else {
        furi_crash();
    }
}
    244a:	bd38      	pop	{r3, r4, r5, pc}
    } else if(message->protocol == InfraredProtocolNEC42ext) {
    244c:	2b03      	cmp	r3, #3
    244e:	d10b      	bne.n	2468 <infrared_encoder_nec_reset+0x9c>
        *data1 = message->address & 0x3FFFFFF;
    2450:	6863      	ldr	r3, [r4, #4]
    2452:	f023 437c 	bic.w	r3, r3, #4227858432	@ 0xfc000000
    2456:	616b      	str	r3, [r5, #20]
        *data1 |= ((message->command & 0x3F) << 26);
    2458:	68a2      	ldr	r2, [r4, #8]
    245a:	ea43 6382 	orr.w	r3, r3, r2, lsl #26
    245e:	616b      	str	r3, [r5, #20]
        *data2 = (message->command & 0xFFC0) >> 6;
    2460:	68a3      	ldr	r3, [r4, #8]
    2462:	f3c3 1389 	ubfx	r3, r3, #6, #10
        encoder->bits_to_encode = 42;
    2466:	e7ed      	b.n	2444 <infrared_encoder_nec_reset+0x78>
        furi_crash();
    2468:	f04f 0c00 	mov.w	ip, #0

0000246c <sukima200>:
    246c:	f7ff fffe 	bl	0 <__furi_crash_implementation>
    2470:	03ffe000 	.word	0x03ffe000

00002474 <infrared_encoder_nec_encode_repeat>:

InfraredStatus infrared_encoder_nec_encode_repeat(
    InfraredCommonEncoder* encoder,
    uint32_t* duration,
    bool* level) {
    2474:	b530      	push	{r4, r5, lr}
    2476:	4604      	mov	r4, r0
    furi_assert(encoder);

    /* space + 2 timings preambule + payload + stop bit */
    uint32_t timings_encoded_up_to_repeat = 1 + 2 + encoder->bits_to_encode * 2 + 1;
    2478:	7980      	ldrb	r0, [r0, #6]
    uint32_t repeat_cnt = encoder->timings_encoded - timings_encoded_up_to_repeat;
    247a:	68e3      	ldr	r3, [r4, #12]
    uint32_t timings_encoded_up_to_repeat = 1 + 2 + encoder->bits_to_encode * 2 + 1;
    247c:	3002      	adds	r0, #2

    furi_assert(encoder->timings_encoded >= timings_encoded_up_to_repeat);

    if(repeat_cnt > 0) {
    247e:	ebb3 0340 	subs.w	r3, r3, r0, lsl #1
    2482:	d013      	beq.n	24ac <infrared_encoder_nec_encode_repeat+0x38>
        *duration = repeat_timings[repeat_cnt % COUNT_OF(repeat_timings)];
    2484:	f003 0503 	and.w	r5, r3, #3
    2488:	480e      	ldr	r0, [pc, #56]	@ (24c4 <infrared_encoder_nec_encode_repeat+0x50>)
    248a:	f850 0025 	ldr.w	r0, [r0, r5, lsl #2]
    248e:	6008      	str	r0, [r1, #0]
    } else {
        *duration = INFRARED_NEC_REPEAT_PERIOD - encoder->timings_sum;
    }

    *level = repeat_cnt % 2;
    2490:	f003 0101 	and.w	r1, r3, #1
    2494:	7011      	strb	r1, [r2, #0]
    ++encoder->timings_encoded;
    bool done = (!((repeat_cnt + 1) % COUNT_OF(repeat_timings)));
    2496:	3301      	adds	r3, #1
    ++encoder->timings_encoded;
    2498:	68e2      	ldr	r2, [r4, #12]

    return done ? InfraredStatusDone : InfraredStatusOk;
    249a:	f013 0f03 	tst.w	r3, #3
    ++encoder->timings_encoded;
    249e:	f102 0201 	add.w	r2, r2, #1
    return done ? InfraredStatusDone : InfraredStatusOk;
    24a2:	bf14      	ite	ne
    24a4:	2001      	movne	r0, #1
    24a6:	2002      	moveq	r0, #2
    ++encoder->timings_encoded;
    24a8:	60e2      	str	r2, [r4, #12]
}
    24aa:	bd30      	pop	{r4, r5, pc}
        *duration = INFRARED_NEC_REPEAT_PERIOD - encoder->timings_sum;
    24ac:	68a0      	ldr	r0, [r4, #8]
    24ae:	f5c0 30d6 	rsb	r0, r0, #109568	@ 0x1ac00
    24b2:	f500 70d8 	add.w	r0, r0, #432	@ 0x1b0
    24b6:	6008      	str	r0, [r1, #0]
    *level = repeat_cnt % 2;
    24b8:	7013      	strb	r3, [r2, #0]
    ++encoder->timings_encoded;
    24ba:	68e2      	ldr	r2, [r4, #12]
    return done ? InfraredStatusDone : InfraredStatusOk;
    24bc:	2001      	movs	r0, #1
    ++encoder->timings_encoded;
    24be:	3201      	adds	r2, #1
    return done ? InfraredStatusDone : InfraredStatusOk;
    24c0:	e7f2      	b.n	24a8 <infrared_encoder_nec_encode_repeat+0x34>
    24c2:	bf00      	nop
    24c4:	000008cc 	.word	0x000008cc

000024c8 <infrared_encoder_nec_alloc>:

void* infrared_encoder_nec_alloc(void) {
    return infrared_common_encoder_alloc(&infrared_protocol_nec);
    24c8:	4801      	ldr	r0, [pc, #4]	@ (24d0 <infrared_encoder_nec_alloc+0x8>)
    24ca:	f7ff bffe 	b.w	3314 <infrared_common_encoder_alloc>
    24ce:	bf00      	nop
    24d0:	00000000 	.word	0x00000000

000024d4 <infrared_encoder_nec_free>:
}

void infrared_encoder_nec_free(void* encoder_ptr) {
    infrared_common_encoder_free(encoder_ptr);
    24d4:	f7ff bffe 	b.w	3340 <infrared_common_encoder_free>

000024d8 <infrared_encoder_nec_encode>:
}

InfraredStatus infrared_encoder_nec_encode(void* encoder_ptr, uint32_t* duration, bool* level) {
    return infrared_common_encode(encoder_ptr, duration, level);
    24d8:	f7ff bffe 	b.w	3266 <infrared_common_encode>

000024dc <infrared_protocol_nec_get_variant>:
    .duty_cycle = INFRARED_COMMON_DUTY_CYCLE,
    .repeat_count = INFRARED_NEC_REPEAT_COUNT_MIN,
};

const InfraredProtocolVariant* infrared_protocol_nec_get_variant(InfraredProtocol protocol) {
    if(protocol == InfraredProtocolNEC)
    24dc:	b2c0      	uxtb	r0, r0
    24de:	2803      	cmp	r0, #3
    24e0:	bf9a      	itte	ls
    24e2:	4b02      	ldrls	r3, [pc, #8]	@ (24ec <infrared_protocol_nec_get_variant+0x10>)
    24e4:	f853 0020 	ldrls.w	r0, [r3, r0, lsl #2]
const InfraredProtocolVariant* infrared_protocol_nec_get_variant(InfraredProtocol protocol) {
    24e8:	2000      	movhi	r0, #0
        return &infrared_protocol_variant_nec42;
    else if(protocol == InfraredProtocolNEC42ext)
        return &infrared_protocol_variant_nec42ext;
    else
        return NULL;
}
    24ea:	4770      	bx	lr
    24ec:	000008dc 	.word	0x000008dc

000024f0 <infrared_decoder_pioneer_check_ready>:
#include "infrared_protocol_pioneer_i.h"
#include <core/check.h>

InfraredMessage* infrared_decoder_pioneer_check_ready(void* ctx) {
    return infrared_common_decoder_check_ready(ctx);
    24f0:	f7ff bffe 	b.w	2f5c <infrared_common_decoder_check_ready>

000024f4 <infrared_decoder_pioneer_interpret>:
    uint32_t* data = (void*)&decoder->data[0];
    uint8_t address = 0;
    uint8_t command = 0;
    InfraredProtocol protocol = InfraredProtocolUnknown;

    if(decoder->databit_cnt == decoder->protocol->databit_len[0] ||
    24f4:	6802      	ldr	r2, [r0, #0]
    24f6:	8e83      	ldrh	r3, [r0, #52]	@ 0x34
    24f8:	7f51      	ldrb	r1, [r2, #29]
    24fa:	4299      	cmp	r1, r3
    24fc:	d002      	beq.n	2504 <infrared_decoder_pioneer_interpret+0x10>
    24fe:	7f92      	ldrb	r2, [r2, #30]
    2500:	429a      	cmp	r2, r3
    2502:	d11b      	bne.n	253c <infrared_decoder_pioneer_interpret+0x48>
       decoder->databit_cnt == decoder->protocol->databit_len[1]) {
        address = *data & 0xFF;
    2504:	f8d0 3036 	ldr.w	r3, [r0, #54]	@ 0x36
        uint8_t real_address_checksum = ~address;
    2508:	43da      	mvns	r2, r3
        uint8_t address_checksum = (*data >> 8) & 0xFF;
        command = (*data >> 16) & 0xFF;
        uint8_t real_command_checksum = ~command;
        uint8_t command_checksum = (*data >> 24) & 0xFF;
        if(address_checksum != real_address_checksum) {
    250a:	b2d2      	uxtb	r2, r2
    250c:	f3c3 2107 	ubfx	r1, r3, #8, #8
    2510:	428a      	cmp	r2, r1
    2512:	d113      	bne.n	253c <infrared_decoder_pioneer_interpret+0x48>
        uint8_t real_command_checksum = ~command;
    2514:	ea6f 4113 	mvn.w	r1, r3, lsr #16
            return false;
        }
        if(command_checksum != real_command_checksum) {
    2518:	b2c9      	uxtb	r1, r1
    251a:	ebb1 6f13 	cmp.w	r1, r3, lsr #24
        command = (*data >> 16) & 0xFF;
    251e:	ea4f 4213 	mov.w	r2, r3, lsr #16
        if(command_checksum != real_command_checksum) {
    2522:	d10b      	bne.n	253c <infrared_decoder_pioneer_interpret+0x48>
    } else {
        return false;
    }

    decoder->message.protocol = protocol;
    decoder->message.address = address;
    2524:	b2db      	uxtb	r3, r3
    2526:	6243      	str	r3, [r0, #36]	@ 0x24
    decoder->message.protocol = protocol;
    2528:	210d      	movs	r1, #13
    decoder->message.command = command;
    252a:	b2d2      	uxtb	r2, r2
    decoder->message.repeat = false;
    252c:	2300      	movs	r3, #0
    decoder->message.protocol = protocol;
    252e:	f880 1020 	strb.w	r1, [r0, #32]
    decoder->message.command = command;
    2532:	6282      	str	r2, [r0, #40]	@ 0x28
    decoder->message.repeat = false;
    2534:	f880 302c 	strb.w	r3, [r0, #44]	@ 0x2c

    return true;
    2538:	2001      	movs	r0, #1
    253a:	4770      	bx	lr
            return false;
    253c:	2000      	movs	r0, #0
}
    253e:	4770      	bx	lr

00002540 <infrared_decoder_pioneer_alloc>:

void* infrared_decoder_pioneer_alloc(void) {
    return infrared_common_decoder_alloc(&infrared_protocol_pioneer);
    2540:	4801      	ldr	r0, [pc, #4]	@ (2548 <infrared_decoder_pioneer_alloc+0x8>)
    2542:	f7ff bffe 	b.w	2fa2 <infrared_common_decoder_alloc>
    2546:	bf00      	nop
    2548:	00000000 	.word	0x00000000

0000254c <infrared_decoder_pioneer_decode>:
}

InfraredMessage* infrared_decoder_pioneer_decode(void* decoder, bool level, uint32_t duration) {
    return infrared_common_decode(decoder, level, duration);
    254c:	f7ff bffe 	b.w	2fda <infrared_common_decode>

00002550 <infrared_decoder_pioneer_free>:
}

void infrared_decoder_pioneer_free(void* decoder) {
    infrared_common_decoder_free(decoder);
    2550:	f7ff bffe 	b.w	2fc6 <infrared_common_decoder_free>

00002554 <infrared_decoder_pioneer_reset>:
}

void infrared_decoder_pioneer_reset(void* decoder) {
    infrared_common_decoder_reset(decoder);
    2554:	f7ff bffe 	b.w	2fca <infrared_common_decoder_reset>

00002558 <infrared_encoder_pioneer_reset>:
#include "infrared_protocol_pioneer_i.h"
#include <core/check.h>

void infrared_encoder_pioneer_reset(void* encoder_ptr, const InfraredMessage* message) {
    2558:	b538      	push	{r3, r4, r5, lr}
    255a:	460d      	mov	r5, r1
    255c:	4604      	mov	r4, r0
    furi_assert(encoder_ptr);
    furi_assert(message);

    InfraredCommonEncoder* encoder = encoder_ptr;
    infrared_common_encoder_reset(encoder);
    255e:	f7ff fffe 	bl	3344 <infrared_common_encoder_reset>

    uint8_t* data = encoder->data;

    if(message->protocol == InfraredProtocolPioneer) {
    2562:	f995 3000 	ldrsb.w	r3, [r5]
    2566:	2b0d      	cmp	r3, #13
    2568:	d10f      	bne.n	258a <infrared_encoder_pioneer_reset+0x32>
        data[0] = message->address & 0xFF;
    256a:	686b      	ldr	r3, [r5, #4]
    256c:	7523      	strb	r3, [r4, #20]
        data[1] = ~(message->address & 0xFF);
    256e:	686b      	ldr	r3, [r5, #4]
    2570:	43db      	mvns	r3, r3
    2572:	7563      	strb	r3, [r4, #21]
        data[2] = message->command & 0xFF;
    2574:	68ab      	ldr	r3, [r5, #8]
    2576:	75a3      	strb	r3, [r4, #22]
        data[3] = ~(message->command & 0xFF);
    2578:	68ab      	ldr	r3, [r5, #8]
    257a:	43db      	mvns	r3, r3
    257c:	75e3      	strb	r3, [r4, #23]
        data[4] = 0;
    257e:	2300      	movs	r3, #0
    2580:	7623      	strb	r3, [r4, #24]
        encoder->bits_to_encode = encoder->protocol->databit_len[0];
    2582:	6823      	ldr	r3, [r4, #0]
    2584:	7f5b      	ldrb	r3, [r3, #29]
    2586:	71a3      	strb	r3, [r4, #6]
    } else {
        furi_crash();
    }
}
    2588:	bd38      	pop	{r3, r4, r5, pc}
        furi_crash();
    258a:	f04f 0c00 	mov.w	ip, #0

0000258e <sukima77>:
    258e:	f7ff fffe 	bl	0 <__furi_crash_implementation>
	...

00002594 <infrared_encoder_pioneer_alloc>:

void* infrared_encoder_pioneer_alloc(void) {
    return infrared_common_encoder_alloc(&infrared_protocol_pioneer);
    2594:	4801      	ldr	r0, [pc, #4]	@ (259c <infrared_encoder_pioneer_alloc+0x8>)
    2596:	f7ff bffe 	b.w	3314 <infrared_common_encoder_alloc>
    259a:	bf00      	nop
    259c:	00000000 	.word	0x00000000

000025a0 <infrared_encoder_pioneer_free>:
}

void infrared_encoder_pioneer_free(void* encoder_ptr) {
    infrared_common_encoder_free(encoder_ptr);
    25a0:	f7ff bffe 	b.w	3340 <infrared_common_encoder_free>

000025a4 <infrared_encoder_pioneer_encode_repeat>:
}

InfraredStatus infrared_encoder_pioneer_encode_repeat(
    InfraredCommonEncoder* encoder,
    uint32_t* duration,
    bool* level) {
    25a4:	4603      	mov	r3, r0
    furi_assert(encoder);

    *duration = INFRARED_PIONEER_SILENCE;
    25a6:	f246 5090 	movw	r0, #26000	@ 0x6590
    25aa:	6008      	str	r0, [r1, #0]
    *level = false;
    25ac:	2100      	movs	r1, #0

    encoder->timings_sum = 0;
    encoder->timings_encoded = 1;
    25ae:	2001      	movs	r0, #1
    *level = false;
    25b0:	7011      	strb	r1, [r2, #0]
    encoder->timings_sum = 0;
    25b2:	6099      	str	r1, [r3, #8]
    encoder->timings_encoded = 1;
    25b4:	60d8      	str	r0, [r3, #12]
    encoder->bits_encoded = 0;
    25b6:	71d9      	strb	r1, [r3, #7]
    encoder->state = InfraredCommonEncoderStatePreamble;
    25b8:	7118      	strb	r0, [r3, #4]

    return InfraredStatusOk;
}
    25ba:	4770      	bx	lr

000025bc <infrared_encoder_pioneer_encode>:

InfraredStatus
    infrared_encoder_pioneer_encode(void* encoder_ptr, uint32_t* duration, bool* level) {
    25bc:	b510      	push	{r4, lr}
    25be:	4604      	mov	r4, r0
    InfraredCommonEncoder* encoder = encoder_ptr;

    InfraredStatus status = infrared_common_encode(encoder, duration, level);
    25c0:	f7ff fffe 	bl	3266 <infrared_common_encode>
    if((status == InfraredStatusOk) && (encoder->bits_encoded == encoder->bits_to_encode)) {
    25c4:	2801      	cmp	r0, #1
    25c6:	d106      	bne.n	25d6 <infrared_encoder_pioneer_encode+0x1a>
    25c8:	79a3      	ldrb	r3, [r4, #6]
    25ca:	79e2      	ldrb	r2, [r4, #7]
    25cc:	429a      	cmp	r2, r3
        furi_assert(!*level);
        status = InfraredStatusDone;
        encoder->state = InfraredCommonEncoderStateEncodeRepeat;
    25ce:	bf02      	ittt	eq
    25d0:	2303      	moveq	r3, #3
    25d2:	7123      	strbeq	r3, [r4, #4]
        status = InfraredStatusDone;
    25d4:	2002      	moveq	r0, #2
    }
    return status;
}
    25d6:	bd10      	pop	{r4, pc}

000025d8 <infrared_protocol_pioneer_get_variant>:
    .repeat_count = INFRARED_PIONEER_REPEAT_COUNT_MIN,
};

const InfraredProtocolVariant* infrared_protocol_pioneer_get_variant(InfraredProtocol protocol) {
    if(protocol == InfraredProtocolPioneer)
        return &infrared_protocol_variant_pioneer;
    25d8:	280d      	cmp	r0, #13
    else
        return NULL;
}
    25da:	4802      	ldr	r0, [pc, #8]	@ (25e4 <infrared_protocol_pioneer_get_variant+0xc>)
    25dc:	bf18      	it	ne
    25de:	2000      	movne	r0, #0
    25e0:	4770      	bx	lr
    25e2:	bf00      	nop
    25e4:	00000998 	.word	0x00000998

000025e8 <reverse>:
typedef void (*InfraredEncoderReset)(void* encoder, const InfraredMessage* message);
typedef InfraredStatus (*InfraredEncode)(void* encoder, uint32_t* out, bool* polarity);

static inline uint8_t reverse(uint8_t value) {
    uint8_t reverse_value = 0;
    for(int i = 0; i < 8; ++i) {
    25e8:	2200      	movs	r2, #0
static inline uint8_t reverse(uint8_t value) {
    25ea:	b510      	push	{r4, lr}
    25ec:	4601      	mov	r1, r0
        reverse_value |= (value & (0x01 << i)) ? 1 << (7 - i) : 0;
    25ee:	2401      	movs	r4, #1
    uint8_t reverse_value = 0;
    25f0:	4610      	mov	r0, r2
        reverse_value |= (value & (0x01 << i)) ? 1 << (7 - i) : 0;
    25f2:	fa41 f302 	asr.w	r3, r1, r2
    25f6:	f013 0301 	ands.w	r3, r3, #1
    25fa:	bf1e      	ittt	ne
    25fc:	f1c2 0307 	rsbne	r3, r2, #7
    2600:	fa04 f303 	lslne.w	r3, r4, r3
    2604:	b25b      	sxtbne	r3, r3
    for(int i = 0; i < 8; ++i) {
    2606:	3201      	adds	r2, #1
        reverse_value |= (value & (0x01 << i)) ? 1 << (7 - i) : 0;
    2608:	4303      	orrs	r3, r0
    for(int i = 0; i < 8; ++i) {
    260a:	2a08      	cmp	r2, #8
        reverse_value |= (value & (0x01 << i)) ? 1 << (7 - i) : 0;
    260c:	b2d8      	uxtb	r0, r3
    for(int i = 0; i < 8; ++i) {
    260e:	d1f0      	bne.n	25f2 <reverse+0xa>
    }

    return reverse_value;
}
    2610:	bd10      	pop	{r4, pc}

00002612 <infrared_decoder_rc5_check_ready>:
    bool toggle;
} InfraredRc5Decoder;

InfraredMessage* infrared_decoder_rc5_check_ready(void* ctx) {
    InfraredRc5Decoder* decoder = ctx;
    return infrared_common_decoder_check_ready(decoder->common_decoder);
    2612:	6800      	ldr	r0, [r0, #0]
    2614:	f7ff bffe 	b.w	2f5c <infrared_common_decoder_check_ready>

00002618 <infrared_decoder_rc5_interpret>:
}

bool infrared_decoder_rc5_interpret(InfraredCommonDecoder* decoder) {
    2618:	e92d 47f0 	stmdb	sp!, {r4, r5, r6, r7, r8, r9, sl, lr}
    261c:	4604      	mov	r4, r0
    uint32_t* data = (void*)&decoder->data[0];
    /* Manchester (inverse):
     *      0->1 : 1
     *      1->0 : 0
     */
    decoder->data[0] = ~decoder->data[0];
    261e:	f890 0036 	ldrb.w	r0, [r0, #54]	@ 0x36
    decoder->data[1] = ~decoder->data[1];
    2622:	f894 5037 	ldrb.w	r5, [r4, #55]	@ 0x37
    decoder->data[0] = ~decoder->data[0];
    2626:	43c0      	mvns	r0, r0
    decoder->data[1] = ~decoder->data[1];
    2628:	43ed      	mvns	r5, r5
    decoder->data[0] = ~decoder->data[0];
    262a:	b2c0      	uxtb	r0, r0
    decoder->data[1] = ~decoder->data[1];
    262c:	b2ed      	uxtb	r5, r5
    decoder->data[0] = ~decoder->data[0];
    262e:	f884 0036 	strb.w	r0, [r4, #54]	@ 0x36
    decoder->data[1] = ~decoder->data[1];
    2632:	f884 5037 	strb.w	r5, [r4, #55]	@ 0x37

    // MSB first
    uint8_t address = reverse((uint8_t)decoder->data[0]) & 0x1F;
    uint8_t command = (reverse((uint8_t)decoder->data[1]) >> 2) & 0x3F;
    bool start_bit1 = *data & 0x01;
    2636:	f8d4 7036 	ldr.w	r7, [r4, #54]	@ 0x36
    bool start_bit2 = *data & 0x02;
    bool toggle = !!(*data & 0x04);

    if(start_bit1 == 1) {
    263a:	f017 0301 	ands.w	r3, r7, #1
    263e:	d030      	beq.n	26a2 <infrared_decoder_rc5_interpret+0x8a>
        InfraredProtocol protocol = start_bit2 ? InfraredProtocolRC5 : InfraredProtocolRC5X;
    2640:	f017 0f02 	tst.w	r7, #2
    2644:	bf0c      	ite	eq
    2646:	f04f 0807 	moveq.w	r8, #7
    264a:	f04f 0806 	movne.w	r8, #6
    uint8_t address = reverse((uint8_t)decoder->data[0]) & 0x1F;
    264e:	f7ff fffe 	bl	25e8 <reverse>
        InfraredMessage* message = &decoder->message;
        InfraredRc5Decoder* rc5_decoder = decoder->context;
        bool* prev_toggle = &rc5_decoder->toggle;
        if((message->address == address) && (message->command == command) &&
    2652:	f000 061f 	and.w	r6, r0, #31
    uint8_t command = (reverse((uint8_t)decoder->data[1]) >> 2) & 0x3F;
    2656:	4628      	mov	r0, r5
    2658:	f7ff fffe 	bl	25e8 <reverse>
        if((message->address == address) && (message->command == command) &&
    265c:	f8d4 a024 	ldr.w	sl, [r4, #36]	@ 0x24
        InfraredRc5Decoder* rc5_decoder = decoder->context;
    2660:	f8d4 9004 	ldr.w	r9, [r4, #4]
        if((message->address == address) && (message->command == command) &&
    2664:	45b2      	cmp	sl, r6
    bool toggle = !!(*data & 0x04);
    2666:	f3c7 0780 	ubfx	r7, r7, #2, #1
        if((message->address == address) && (message->command == command) &&
    266a:	f3c0 0087 	ubfx	r0, r0, #2, #8
    266e:	d116      	bne.n	269e <infrared_decoder_rc5_interpret+0x86>
    2670:	6aa3      	ldr	r3, [r4, #40]	@ 0x28
    2672:	4283      	cmp	r3, r0
    2674:	d113      	bne.n	269e <infrared_decoder_rc5_interpret+0x86>
    2676:	f994 3020 	ldrsb.w	r3, [r4, #32]
    267a:	4543      	cmp	r3, r8
    267c:	d10f      	bne.n	269e <infrared_decoder_rc5_interpret+0x86>
           (message->protocol == protocol)) {
            message->repeat = (toggle == *prev_toggle);
    267e:	f899 3004 	ldrb.w	r3, [r9, #4]
    2682:	1bda      	subs	r2, r3, r7
    2684:	4253      	negs	r3, r2
    2686:	4153      	adcs	r3, r2
    2688:	f884 302c 	strb.w	r3, [r4, #44]	@ 0x2c
        } else {
            message->repeat = false;
        }
        *prev_toggle = toggle;
    268c:	f889 7004 	strb.w	r7, [r9, #4]
        message->command = command;
        message->address = address;
    2690:	e9c4 6009 	strd	r6, r0, [r4, #36]	@ 0x24
        message->protocol = protocol;
    2694:	f884 8020 	strb.w	r8, [r4, #32]

        result = true;
    2698:	2001      	movs	r0, #1
    }

    return result;
}
    269a:	e8bd 87f0 	ldmia.w	sp!, {r4, r5, r6, r7, r8, r9, sl, pc}
            message->repeat = false;
    269e:	2300      	movs	r3, #0
    26a0:	e7f2      	b.n	2688 <infrared_decoder_rc5_interpret+0x70>
    bool result = false;
    26a2:	4618      	mov	r0, r3
    26a4:	e7f9      	b.n	269a <infrared_decoder_rc5_interpret+0x82>
	...

000026a8 <infrared_decoder_rc5_alloc>:

void* infrared_decoder_rc5_alloc(void) {
    26a8:	b510      	push	{r4, lr}
    InfraredRc5Decoder* decoder = malloc(sizeof(InfraredRc5Decoder));
    26aa:	2008      	movs	r0, #8
    26ac:	f7ff fffe 	bl	0 <malloc>
    decoder->toggle = false;
    26b0:	2300      	movs	r3, #0
    InfraredRc5Decoder* decoder = malloc(sizeof(InfraredRc5Decoder));
    26b2:	4604      	mov	r4, r0
    decoder->toggle = false;
    26b4:	7103      	strb	r3, [r0, #4]
    decoder->common_decoder = infrared_common_decoder_alloc(&infrared_protocol_rc5);
    26b6:	4803      	ldr	r0, [pc, #12]	@ (26c4 <infrared_decoder_rc5_alloc+0x1c>)
    26b8:	f7ff fffe 	bl	2fa2 <infrared_common_decoder_alloc>
    26bc:	6020      	str	r0, [r4, #0]
    decoder->common_decoder->context = decoder;
    26be:	6044      	str	r4, [r0, #4]
    return decoder;
}
    26c0:	4620      	mov	r0, r4
    26c2:	bd10      	pop	{r4, pc}
    26c4:	00000000 	.word	0x00000000

000026c8 <infrared_decoder_rc5_decode>:

InfraredMessage* infrared_decoder_rc5_decode(void* decoder, bool level, uint32_t duration) {
    InfraredRc5Decoder* decoder_rc5 = decoder;
    return infrared_common_decode(decoder_rc5->common_decoder, level, duration);
    26c8:	6800      	ldr	r0, [r0, #0]
    26ca:	f7ff bffe 	b.w	2fda <infrared_common_decode>

000026ce <infrared_decoder_rc5_free>:
}

void infrared_decoder_rc5_free(void* decoder) {
    26ce:	b510      	push	{r4, lr}
    26d0:	4604      	mov	r4, r0
    InfraredRc5Decoder* decoder_rc5 = decoder;
    infrared_common_decoder_free(decoder_rc5->common_decoder);
    26d2:	6800      	ldr	r0, [r0, #0]
    26d4:	f7ff fffe 	bl	2fc6 <infrared_common_decoder_free>
    free(decoder_rc5);
    26d8:	4620      	mov	r0, r4
}
    26da:	e8bd 4010 	ldmia.w	sp!, {r4, lr}
    free(decoder_rc5);
    26de:	f7ff bffe 	b.w	0 <free>

000026e2 <infrared_decoder_rc5_reset>:

void infrared_decoder_rc5_reset(void* decoder) {
    InfraredRc5Decoder* decoder_rc5 = decoder;
    infrared_common_decoder_reset(decoder_rc5->common_decoder);
    26e2:	6800      	ldr	r0, [r0, #0]
    26e4:	f7ff bffe 	b.w	2fca <infrared_common_decoder_reset>

000026e8 <reverse>:
    for(int i = 0; i < 8; ++i) {
    26e8:	2200      	movs	r2, #0
static inline uint8_t reverse(uint8_t value) {
    26ea:	b510      	push	{r4, lr}
    26ec:	4601      	mov	r1, r0
        reverse_value |= (value & (0x01 << i)) ? 1 << (7 - i) : 0;
    26ee:	2401      	movs	r4, #1
    uint8_t reverse_value = 0;
    26f0:	4610      	mov	r0, r2
        reverse_value |= (value & (0x01 << i)) ? 1 << (7 - i) : 0;
    26f2:	fa41 f302 	asr.w	r3, r1, r2
    26f6:	f013 0301 	ands.w	r3, r3, #1
    26fa:	bf1e      	ittt	ne
    26fc:	f1c2 0307 	rsbne	r3, r2, #7
    2700:	fa04 f303 	lslne.w	r3, r4, r3
    2704:	b25b      	sxtbne	r3, r3
    for(int i = 0; i < 8; ++i) {
    2706:	3201      	adds	r2, #1
        reverse_value |= (value & (0x01 << i)) ? 1 << (7 - i) : 0;
    2708:	4303      	orrs	r3, r0
    for(int i = 0; i < 8; ++i) {
    270a:	2a08      	cmp	r2, #8
        reverse_value |= (value & (0x01 << i)) ? 1 << (7 - i) : 0;
    270c:	b2d8      	uxtb	r0, r3
    for(int i = 0; i < 8; ++i) {
    270e:	d1f0      	bne.n	26f2 <reverse+0xa>
}
    2710:	bd10      	pop	{r4, pc}

00002712 <infrared_encoder_rc5_reset>:
typedef struct InfraredEncoderRC5 {
    InfraredCommonEncoder* common_encoder;
    bool toggle_bit;
} InfraredEncoderRC5;

void infrared_encoder_rc5_reset(void* encoder_ptr, const InfraredMessage* message) {
    2712:	e92d 43f8 	stmdb	sp!, {r3, r4, r5, r6, r7, r8, r9, lr}
    furi_assert(encoder_ptr);

    InfraredEncoderRC5* encoder = encoder_ptr;
    InfraredCommonEncoder* common_encoder = encoder->common_encoder;
    2716:	6804      	ldr	r4, [r0, #0]
void infrared_encoder_rc5_reset(void* encoder_ptr, const InfraredMessage* message) {
    2718:	4606      	mov	r6, r0
    infrared_common_encoder_reset(common_encoder);
    271a:	4620      	mov	r0, r4
void infrared_encoder_rc5_reset(void* encoder_ptr, const InfraredMessage* message) {
    271c:	460f      	mov	r7, r1
    infrared_common_encoder_reset(common_encoder);
    271e:	f7ff fffe 	bl	3344 <infrared_common_encoder_reset>

    uint32_t* data = (void*)common_encoder->data;
    /* RC5 */
    *data |= 0x01; // start bit
    2722:	6963      	ldr	r3, [r4, #20]
    if(message->protocol == InfraredProtocolRC5) {
        *data |= 0x02; // start bit
    }
    *data |= encoder->toggle_bit ? 0x04 : 0;
    2724:	f896 8004 	ldrb.w	r8, [r6, #4]
    *data |= 0x01; // start bit
    2728:	f043 0201 	orr.w	r2, r3, #1
    272c:	6162      	str	r2, [r4, #20]
    if(message->protocol == InfraredProtocolRC5) {
    272e:	f997 2000 	ldrsb.w	r2, [r7]
    2732:	2a06      	cmp	r2, #6
        *data |= 0x02; // start bit
    2734:	bf04      	itt	eq
    2736:	f043 0303 	orreq.w	r3, r3, #3
    273a:	6163      	streq	r3, [r4, #20]
    *data |= encoder->toggle_bit ? 0x04 : 0;
    273c:	6963      	ldr	r3, [r4, #20]
    273e:	ea43 0988 	orr.w	r9, r3, r8, lsl #2
    2742:	f8c4 9014 	str.w	r9, [r4, #20]
    *data |= (reverse(message->address) >> 3) << 3; /* address 5 bit */
    2746:	7938      	ldrb	r0, [r7, #4]
    2748:	f7ff fffe 	bl	26e8 <reverse>
    274c:	f400 65ff 	and.w	r5, r0, #2040	@ 0x7f8
    2750:	ea45 0509 	orr.w	r5, r5, r9
    2754:	6165      	str	r5, [r4, #20]
    *data |= (reverse(message->command) >> 2) << 8; /* command 6 bit */
    2756:	7a38      	ldrb	r0, [r7, #8]
    2758:	f7ff fffe 	bl	26e8 <reverse>
    275c:	f3c0 0087 	ubfx	r0, r0, #2, #8
    2760:	ea45 2500 	orr.w	r5, r5, r0, lsl #8
    2764:	6165      	str	r5, [r4, #20]

    common_encoder->data[0] = ~common_encoder->data[0];
    common_encoder->data[1] = ~common_encoder->data[1];

    common_encoder->bits_to_encode = common_encoder->protocol->databit_len[0];
    2766:	6823      	ldr	r3, [r4, #0]
    common_encoder->data[0] = ~common_encoder->data[0];
    2768:	43ed      	mvns	r5, r5
    276a:	82a5      	strh	r5, [r4, #20]
    common_encoder->bits_to_encode = common_encoder->protocol->databit_len[0];
    276c:	7f5b      	ldrb	r3, [r3, #29]
    276e:	71a3      	strb	r3, [r4, #6]
    encoder->toggle_bit ^= 1;
    2770:	f088 0801 	eor.w	r8, r8, #1
    2774:	f886 8004 	strb.w	r8, [r6, #4]
}
    2778:	e8bd 83f8 	ldmia.w	sp!, {r3, r4, r5, r6, r7, r8, r9, pc}

0000277c <infrared_encoder_rc5_encode>:

InfraredStatus infrared_encoder_rc5_encode(void* encoder_ptr, uint32_t* duration, bool* level) {
    InfraredEncoderRC5* encoder = encoder_ptr;
    return infrared_common_encode(encoder->common_encoder, duration, level);
    277c:	6800      	ldr	r0, [r0, #0]
    277e:	f7ff bffe 	b.w	3266 <infrared_common_encode>
	...

00002784 <infrared_encoder_rc5_alloc>:
}

void* infrared_encoder_rc5_alloc(void) {
    2784:	b510      	push	{r4, lr}
    InfraredEncoderRC5* encoder = malloc(sizeof(InfraredEncoderRC5));
    2786:	2008      	movs	r0, #8
    2788:	f7ff fffe 	bl	0 <malloc>
    278c:	4604      	mov	r4, r0
    encoder->common_encoder = infrared_common_encoder_alloc(&infrared_protocol_rc5);
    278e:	4804      	ldr	r0, [pc, #16]	@ (27a0 <infrared_encoder_rc5_alloc+0x1c>)
    2790:	f7ff fffe 	bl	3314 <infrared_common_encoder_alloc>
    encoder->toggle_bit = false;
    2794:	2300      	movs	r3, #0
    encoder->common_encoder = infrared_common_encoder_alloc(&infrared_protocol_rc5);
    2796:	6020      	str	r0, [r4, #0]
    encoder->toggle_bit = false;
    2798:	7123      	strb	r3, [r4, #4]
    return encoder;
}
    279a:	4620      	mov	r0, r4
    279c:	bd10      	pop	{r4, pc}
    279e:	bf00      	nop
    27a0:	00000000 	.word	0x00000000

000027a4 <infrared_encoder_rc5_free>:

void infrared_encoder_rc5_free(void* encoder_ptr) {
    27a4:	b510      	push	{r4, lr}
    27a6:	4604      	mov	r4, r0
    furi_assert(encoder_ptr);

    InfraredEncoderRC5* encoder = encoder_ptr;
    free(encoder->common_encoder);
    27a8:	6800      	ldr	r0, [r0, #0]
    27aa:	f7ff fffe 	bl	0 <free>
    free(encoder);
    27ae:	4620      	mov	r0, r4
}
    27b0:	e8bd 4010 	ldmia.w	sp!, {r4, lr}
    free(encoder);
    27b4:	f7ff bffe 	b.w	0 <free>

000027b8 <infrared_protocol_rc5_get_variant>:
    .duty_cycle = INFRARED_RC5_DUTY_CYCLE,
    .repeat_count = INFRARED_RC5_REPEAT_COUNT_MIN,
};

const InfraredProtocolVariant* infrared_protocol_rc5_get_variant(InfraredProtocol protocol) {
    if(protocol == InfraredProtocolRC5)
    27b8:	2806      	cmp	r0, #6
    27ba:	d004      	beq.n	27c6 <infrared_protocol_rc5_get_variant+0xe>
        return &infrared_protocol_variant_rc5;
    else if(protocol == InfraredProtocolRC5X)
        return &infrared_protocol_variant_rc5x;
    27bc:	2807      	cmp	r0, #7
    27be:	4803      	ldr	r0, [pc, #12]	@ (27cc <infrared_protocol_rc5_get_variant+0x14>)
    27c0:	bf18      	it	ne
    27c2:	2000      	movne	r0, #0
    27c4:	4770      	bx	lr
        return &infrared_protocol_variant_rc5;
    27c6:	4802      	ldr	r0, [pc, #8]	@ (27d0 <infrared_protocol_rc5_get_variant+0x18>)
    else
        return NULL;
}
    27c8:	4770      	bx	lr
    27ca:	bf00      	nop
    27cc:	000009f0 	.word	0x000009f0
    27d0:	00000a04 	.word	0x00000a04

000027d4 <reverse>:
    for(int i = 0; i < 8; ++i) {
    27d4:	2200      	movs	r2, #0
static inline uint8_t reverse(uint8_t value) {
    27d6:	b510      	push	{r4, lr}
    27d8:	4601      	mov	r1, r0
        reverse_value |= (value & (0x01 << i)) ? 1 << (7 - i) : 0;
    27da:	2401      	movs	r4, #1
    uint8_t reverse_value = 0;
    27dc:	4610      	mov	r0, r2
        reverse_value |= (value & (0x01 << i)) ? 1 << (7 - i) : 0;
    27de:	fa41 f302 	asr.w	r3, r1, r2
    27e2:	f013 0301 	ands.w	r3, r3, #1
    27e6:	bf1e      	ittt	ne
    27e8:	f1c2 0307 	rsbne	r3, r2, #7
    27ec:	fa04 f303 	lslne.w	r3, r4, r3
    27f0:	b25b      	sxtbne	r3, r3
    for(int i = 0; i < 8; ++i) {
    27f2:	3201      	adds	r2, #1
        reverse_value |= (value & (0x01 << i)) ? 1 << (7 - i) : 0;
    27f4:	4303      	orrs	r3, r0
    for(int i = 0; i < 8; ++i) {
    27f6:	2a08      	cmp	r2, #8
        reverse_value |= (value & (0x01 << i)) ? 1 << (7 - i) : 0;
    27f8:	b2d8      	uxtb	r0, r3
    for(int i = 0; i < 8; ++i) {
    27fa:	d1f0      	bne.n	27de <reverse+0xa>
}
    27fc:	bd10      	pop	{r4, pc}

000027fe <infrared_decoder_rc6_check_ready>:
    bool toggle;
} InfraredRc6Decoder;

InfraredMessage* infrared_decoder_rc6_check_ready(void* ctx) {
    InfraredRc6Decoder* decoder_rc6 = ctx;
    return infrared_common_decoder_check_ready(decoder_rc6->common_decoder);
    27fe:	6800      	ldr	r0, [r0, #0]
    2800:	f7ff bffe 	b.w	2f5c <infrared_common_decoder_check_ready>

00002804 <infrared_decoder_rc6_interpret>:
}

bool infrared_decoder_rc6_interpret(InfraredCommonDecoder* decoder) {
    2804:	e92d 47f0 	stmdb	sp!, {r4, r5, r6, r7, r8, r9, sl, lr}
    furi_assert(decoder);

    bool result = false;
    uint32_t* data = (void*)&decoder->data[0];
    // MSB first
    uint8_t address = reverse((uint8_t)(*data >> 5));
    2808:	f8d0 6036 	ldr.w	r6, [r0, #54]	@ 0x36
bool infrared_decoder_rc6_interpret(InfraredCommonDecoder* decoder) {
    280c:	4604      	mov	r4, r0
    uint8_t command = reverse((uint8_t)(*data >> 13));
    bool start_bit = *data & 0x01;
    bool toggle = !!(*data & 0x10);
    uint8_t mode = (*data >> 1) & 0x7;

    if((start_bit == 1) && (mode == 0)) {
    280e:	f016 0001 	ands.w	r0, r6, #1
    2812:	d02c      	beq.n	286e <infrared_decoder_rc6_interpret+0x6a>
    2814:	f016 0f0e 	tst.w	r6, #14
    2818:	f3c6 0542 	ubfx	r5, r6, #1, #3
    281c:	d12b      	bne.n	2876 <infrared_decoder_rc6_interpret+0x72>
    uint8_t address = reverse((uint8_t)(*data >> 5));
    281e:	f3c6 1047 	ubfx	r0, r6, #5, #8
    2822:	f7ff fffe 	bl	27d4 <reverse>
        InfraredMessage* message = &decoder->message;
        InfraredRc6Decoder* rc6_decoder = decoder->context;
        bool* prev_toggle = &rc6_decoder->toggle;
        if((message->address == address) && (message->command == command) &&
    2826:	f8d4 a024 	ldr.w	sl, [r4, #36]	@ 0x24
        InfraredRc6Decoder* rc6_decoder = decoder->context;
    282a:	f8d4 8004 	ldr.w	r8, [r4, #4]
    uint8_t address = reverse((uint8_t)(*data >> 5));
    282e:	4607      	mov	r7, r0
    uint8_t command = reverse((uint8_t)(*data >> 13));
    2830:	f3c6 3047 	ubfx	r0, r6, #13, #8
    2834:	f7ff fffe 	bl	27d4 <reverse>
        if((message->address == address) && (message->command == command) &&
    2838:	45ba      	cmp	sl, r7
    bool toggle = !!(*data & 0x10);
    283a:	f3c6 1900 	ubfx	r9, r6, #4, #1
        if((message->address == address) && (message->command == command) &&
    283e:	d118      	bne.n	2872 <infrared_decoder_rc6_interpret+0x6e>
    2840:	6aa3      	ldr	r3, [r4, #40]	@ 0x28
    2842:	4283      	cmp	r3, r0
    2844:	d115      	bne.n	2872 <infrared_decoder_rc6_interpret+0x6e>
    2846:	f994 3020 	ldrsb.w	r3, [r4, #32]
    284a:	2b05      	cmp	r3, #5
    284c:	d111      	bne.n	2872 <infrared_decoder_rc6_interpret+0x6e>
           (message->protocol == InfraredProtocolRC6)) {
            message->repeat = (toggle == *prev_toggle);
    284e:	f898 3004 	ldrb.w	r3, [r8, #4]
    2852:	eba3 0209 	sub.w	r2, r3, r9
    2856:	4253      	negs	r3, r2
    2858:	4153      	adcs	r3, r2
    285a:	f884 302c 	strb.w	r3, [r4, #44]	@ 0x2c
            message->repeat = false;
        }
        *prev_toggle = toggle;
        message->command = command;
        message->address = address;
        message->protocol = InfraredProtocolRC6;
    285e:	2305      	movs	r3, #5
        *prev_toggle = toggle;
    2860:	f888 9004 	strb.w	r9, [r8, #4]
        message->address = address;
    2864:	e9c4 7009 	strd	r7, r0, [r4, #36]	@ 0x24
        message->protocol = InfraredProtocolRC6;
    2868:	f884 3020 	strb.w	r3, [r4, #32]
        result = true;
    286c:	2001      	movs	r0, #1
    }

    return result;
}
    286e:	e8bd 87f0 	ldmia.w	sp!, {r4, r5, r6, r7, r8, r9, sl, pc}
            message->repeat = false;
    2872:	462b      	mov	r3, r5
    2874:	e7f1      	b.n	285a <infrared_decoder_rc6_interpret+0x56>
    bool result = false;
    2876:	2000      	movs	r0, #0
    2878:	e7f9      	b.n	286e <infrared_decoder_rc6_interpret+0x6a>

0000287a <infrared_decoder_rc6_decode_manchester>:
    InfraredCommonDecoder* decoder,
    bool level,
    uint32_t timing) {
    // 4th bit lasts 2x times more
    InfraredStatus status = InfraredStatusError;
    uint32_t bit = decoder->protocol->timings.bit1_mark;
    287a:	6803      	ldr	r3, [r0, #0]
    uint32_t timing) {
    287c:	b4f0      	push	{r4, r5, r6, r7}
    uint32_t tolerance = decoder->protocol->timings.bit_tolerance;
    287e:	f8d3 c018 	ldr.w	ip, [r3, #24]
    uint32_t bit = decoder->protocol->timings.bit1_mark;
    2882:	899c      	ldrh	r4, [r3, #12]

    bool single_timing = MATCH_TIMING(timing, bit, tolerance);
    2884:	eb04 050c 	add.w	r5, r4, ip
    2888:	4295      	cmp	r5, r2
    288a:	d91f      	bls.n	28cc <infrared_decoder_rc6_decode_manchester+0x52>
    288c:	eba4 030c 	sub.w	r3, r4, ip
    2890:	4293      	cmp	r3, r2
    2892:	bf2c      	ite	cs
    2894:	2300      	movcs	r3, #0
    2896:	2301      	movcc	r3, #1
    bool double_timing = MATCH_TIMING(timing, 2 * bit, tolerance);
    2898:	4425      	add	r5, r4
    289a:	4295      	cmp	r5, r2
    289c:	d918      	bls.n	28d0 <infrared_decoder_rc6_decode_manchester+0x56>
    289e:	ebcc 0644 	rsb	r6, ip, r4, lsl #1
    28a2:	4296      	cmp	r6, r2
    28a4:	bf2c      	ite	cs
    28a6:	2600      	movcs	r6, #0
    28a8:	2601      	movcc	r6, #1
    bool triple_timing = MATCH_TIMING(timing, 3 * bit, tolerance);
    28aa:	4425      	add	r5, r4
    28ac:	4295      	cmp	r5, r2

    if(decoder->databit_cnt == 4) {
    28ae:	8e87      	ldrh	r7, [r0, #52]	@ 0x34
    bool triple_timing = MATCH_TIMING(timing, 3 * bit, tolerance);
    28b0:	d910      	bls.n	28d4 <infrared_decoder_rc6_decode_manchester+0x5a>
    28b2:	eb04 0544 	add.w	r5, r4, r4, lsl #1
    28b6:	eba5 050c 	sub.w	r5, r5, ip
    28ba:	4295      	cmp	r5, r2
    28bc:	d20a      	bcs.n	28d4 <infrared_decoder_rc6_decode_manchester+0x5a>
    if(decoder->databit_cnt == 4) {
    28be:	2f04      	cmp	r7, #4
    28c0:	d01e      	beq.n	2900 <infrared_decoder_rc6_decode_manchester+0x86>
        if(single_timing ^ triple_timing) {
            ++decoder->databit_cnt;
            decoder->data[0] |= (single_timing ? !level : level) << 4;
            status = InfraredStatusOk;
        }
    } else if(decoder->databit_cnt == 5) {
    28c2:	2f05      	cmp	r7, #5
    28c4:	d022      	beq.n	290c <infrared_decoder_rc6_decode_manchester+0x92>
    } else {
        status = infrared_common_decode_manchester(decoder, level, timing);
    }

    return status;
}
    28c6:	bcf0      	pop	{r4, r5, r6, r7}
        status = infrared_common_decode_manchester(decoder, level, timing);
    28c8:	f7ff bffe 	b.w	2eb2 <infrared_common_decode_manchester>
    bool single_timing = MATCH_TIMING(timing, bit, tolerance);
    28cc:	2300      	movs	r3, #0
    28ce:	e7e3      	b.n	2898 <infrared_decoder_rc6_decode_manchester+0x1e>
    bool double_timing = MATCH_TIMING(timing, 2 * bit, tolerance);
    28d0:	2600      	movs	r6, #0
    28d2:	e7ea      	b.n	28aa <infrared_decoder_rc6_decode_manchester+0x30>
    if(decoder->databit_cnt == 4) {
    28d4:	2f04      	cmp	r7, #4
    28d6:	d004      	beq.n	28e2 <infrared_decoder_rc6_decode_manchester+0x68>
    } else if(decoder->databit_cnt == 5) {
    28d8:	2f05      	cmp	r7, #5
    28da:	d1f4      	bne.n	28c6 <infrared_decoder_rc6_decode_manchester+0x4c>
        if(single_timing || triple_timing) {
    28dc:	b9bb      	cbnz	r3, 290e <infrared_decoder_rc6_decode_manchester+0x94>
        } else if(double_timing) {
    28de:	b2f0      	uxtb	r0, r6
    28e0:	e00c      	b.n	28fc <infrared_decoder_rc6_decode_manchester+0x82>
        if(single_timing ^ triple_timing) {
    28e2:	b1c3      	cbz	r3, 2916 <infrared_decoder_rc6_decode_manchester+0x9c>
            ++decoder->databit_cnt;
    28e4:	2305      	movs	r3, #5
    28e6:	8683      	strh	r3, [r0, #52]	@ 0x34
            decoder->data[0] |= (single_timing ? !level : level) << 4;
    28e8:	f890 3036 	ldrb.w	r3, [r0, #54]	@ 0x36
    28ec:	f081 0101 	eor.w	r1, r1, #1
    28f0:	0109      	lsls	r1, r1, #4
    28f2:	b249      	sxtb	r1, r1
    28f4:	430b      	orrs	r3, r1
    28f6:	f880 3036 	strb.w	r3, [r0, #54]	@ 0x36
            status = InfraredStatusOk;
    28fa:	2001      	movs	r0, #1
}
    28fc:	bcf0      	pop	{r4, r5, r6, r7}
    28fe:	4770      	bx	lr
        if(single_timing ^ triple_timing) {
    2900:	b94b      	cbnz	r3, 2916 <infrared_decoder_rc6_decode_manchester+0x9c>
            ++decoder->databit_cnt;
    2902:	2305      	movs	r3, #5
    2904:	8683      	strh	r3, [r0, #52]	@ 0x34
            decoder->data[0] |= (single_timing ? !level : level) << 4;
    2906:	f890 3036 	ldrb.w	r3, [r0, #54]	@ 0x36
    290a:	e7f1      	b.n	28f0 <infrared_decoder_rc6_decode_manchester+0x76>
            if(triple_timing) timing = bit;
    290c:	4622      	mov	r2, r4
            decoder->switch_detect = false;
    290e:	2300      	movs	r3, #0
    2910:	f880 3032 	strb.w	r3, [r0, #50]	@ 0x32
            status = infrared_common_decode_manchester(decoder, level, timing);
    2914:	e7d7      	b.n	28c6 <infrared_decoder_rc6_decode_manchester+0x4c>
    InfraredStatus status = InfraredStatusError;
    2916:	2000      	movs	r0, #0
    2918:	e7f0      	b.n	28fc <infrared_decoder_rc6_decode_manchester+0x82>
	...

0000291c <infrared_decoder_rc6_alloc>:

void* infrared_decoder_rc6_alloc(void) {
    291c:	b510      	push	{r4, lr}
    InfraredRc6Decoder* decoder = malloc(sizeof(InfraredRc6Decoder));
    291e:	2008      	movs	r0, #8
    2920:	f7ff fffe 	bl	0 <malloc>
    decoder->toggle = false;
    2924:	2300      	movs	r3, #0
    InfraredRc6Decoder* decoder = malloc(sizeof(InfraredRc6Decoder));
    2926:	4604      	mov	r4, r0
    decoder->toggle = false;
    2928:	7103      	strb	r3, [r0, #4]
    decoder->common_decoder = infrared_common_decoder_alloc(&infrared_protocol_rc6);
    292a:	4803      	ldr	r0, [pc, #12]	@ (2938 <infrared_decoder_rc6_alloc+0x1c>)
    292c:	f7ff fffe 	bl	2fa2 <infrared_common_decoder_alloc>
    2930:	6020      	str	r0, [r4, #0]
    decoder->common_decoder->context = decoder;
    2932:	6044      	str	r4, [r0, #4]
    return decoder;
}
    2934:	4620      	mov	r0, r4
    2936:	bd10      	pop	{r4, pc}
    2938:	00000000 	.word	0x00000000

0000293c <infrared_decoder_rc6_decode>:

InfraredMessage* infrared_decoder_rc6_decode(void* decoder, bool level, uint32_t duration) {
    InfraredRc6Decoder* decoder_rc6 = decoder;
    return infrared_common_decode(decoder_rc6->common_decoder, level, duration);
    293c:	6800      	ldr	r0, [r0, #0]
    293e:	f7ff bffe 	b.w	2fda <infrared_common_decode>

00002942 <infrared_decoder_rc6_free>:
}

void infrared_decoder_rc6_free(void* decoder) {
    2942:	b510      	push	{r4, lr}
    2944:	4604      	mov	r4, r0
    InfraredRc6Decoder* decoder_rc6 = decoder;
    infrared_common_decoder_free(decoder_rc6->common_decoder);
    2946:	6800      	ldr	r0, [r0, #0]
    2948:	f7ff fffe 	bl	2fc6 <infrared_common_decoder_free>
    free(decoder_rc6);
    294c:	4620      	mov	r0, r4
}
    294e:	e8bd 4010 	ldmia.w	sp!, {r4, lr}
    free(decoder_rc6);
    2952:	f7ff bffe 	b.w	0 <free>

00002956 <infrared_decoder_rc6_reset>:

void infrared_decoder_rc6_reset(void* decoder) {
    InfraredRc6Decoder* decoder_rc6 = decoder;
    infrared_common_decoder_reset(decoder_rc6->common_decoder);
    2956:	6800      	ldr	r0, [r0, #0]
    2958:	f7ff bffe 	b.w	2fca <infrared_common_decoder_reset>

0000295c <reverse>:
    for(int i = 0; i < 8; ++i) {
    295c:	2200      	movs	r2, #0
static inline uint8_t reverse(uint8_t value) {
    295e:	b510      	push	{r4, lr}
    2960:	4601      	mov	r1, r0
        reverse_value |= (value & (0x01 << i)) ? 1 << (7 - i) : 0;
    2962:	2401      	movs	r4, #1
    uint8_t reverse_value = 0;
    2964:	4610      	mov	r0, r2
        reverse_value |= (value & (0x01 << i)) ? 1 << (7 - i) : 0;
    2966:	fa41 f302 	asr.w	r3, r1, r2
    296a:	f013 0301 	ands.w	r3, r3, #1
    296e:	bf1e      	ittt	ne
    2970:	f1c2 0307 	rsbne	r3, r2, #7
    2974:	fa04 f303 	lslne.w	r3, r4, r3
    2978:	b25b      	sxtbne	r3, r3
    for(int i = 0; i < 8; ++i) {
    297a:	3201      	adds	r2, #1
        reverse_value |= (value & (0x01 << i)) ? 1 << (7 - i) : 0;
    297c:	4303      	orrs	r3, r0
    for(int i = 0; i < 8; ++i) {
    297e:	2a08      	cmp	r2, #8
        reverse_value |= (value & (0x01 << i)) ? 1 << (7 - i) : 0;
    2980:	b2d8      	uxtb	r0, r3
    for(int i = 0; i < 8; ++i) {
    2982:	d1f0      	bne.n	2966 <reverse+0xa>
}
    2984:	bd10      	pop	{r4, pc}

00002986 <infrared_encoder_rc6_reset>:
typedef struct InfraredEncoderRC6 {
    InfraredCommonEncoder* common_encoder;
    bool toggle_bit;
} InfraredEncoderRC6;

void infrared_encoder_rc6_reset(void* encoder_ptr, const InfraredMessage* message) {
    2986:	e92d 41f0 	stmdb	sp!, {r4, r5, r6, r7, r8, lr}
    furi_assert(encoder_ptr);

    InfraredEncoderRC6* encoder = encoder_ptr;
    InfraredCommonEncoder* common_encoder = encoder->common_encoder;
    298a:	6805      	ldr	r5, [r0, #0]
void infrared_encoder_rc6_reset(void* encoder_ptr, const InfraredMessage* message) {
    298c:	4606      	mov	r6, r0
    infrared_common_encoder_reset(common_encoder);
    298e:	4628      	mov	r0, r5
void infrared_encoder_rc6_reset(void* encoder_ptr, const InfraredMessage* message) {
    2990:	4688      	mov	r8, r1
    infrared_common_encoder_reset(common_encoder);
    2992:	f7ff fffe 	bl	3344 <infrared_common_encoder_reset>

    uint32_t* data = (void*)common_encoder->data;
    *data |= 0x01; // start bit
    (void)*data; // 3 bits for mode == 0
    *data |= encoder->toggle_bit ? 0x10 : 0;
    2996:	7937      	ldrb	r7, [r6, #4]
    2998:	696c      	ldr	r4, [r5, #20]
    299a:	ea44 1407 	orr.w	r4, r4, r7, lsl #4
    299e:	f044 0401 	orr.w	r4, r4, #1
    29a2:	616c      	str	r4, [r5, #20]
    *data |= reverse(message->address) << 5;
    29a4:	f898 0004 	ldrb.w	r0, [r8, #4]
    29a8:	f7ff fffe 	bl	295c <reverse>
    29ac:	ea44 1440 	orr.w	r4, r4, r0, lsl #5
    29b0:	616c      	str	r4, [r5, #20]
    *data |= reverse(message->command) << 13;
    29b2:	f898 0008 	ldrb.w	r0, [r8, #8]
    29b6:	f7ff fffe 	bl	295c <reverse>

    common_encoder->bits_to_encode = common_encoder->protocol->databit_len[0];
    29ba:	682b      	ldr	r3, [r5, #0]
    *data |= reverse(message->command) << 13;
    29bc:	ea44 3440 	orr.w	r4, r4, r0, lsl #13
    29c0:	616c      	str	r4, [r5, #20]
    common_encoder->bits_to_encode = common_encoder->protocol->databit_len[0];
    29c2:	7f5b      	ldrb	r3, [r3, #29]
    29c4:	71ab      	strb	r3, [r5, #6]
    encoder->toggle_bit ^= 1;
    29c6:	f087 0701 	eor.w	r7, r7, #1
    29ca:	7137      	strb	r7, [r6, #4]
}
    29cc:	e8bd 81f0 	ldmia.w	sp!, {r4, r5, r6, r7, r8, pc}

000029d0 <infrared_encoder_rc6_encode>:

InfraredStatus infrared_encoder_rc6_encode(void* encoder_ptr, uint32_t* duration, bool* level) {
    InfraredEncoderRC6* encoder = encoder_ptr;
    return infrared_common_encode(encoder->common_encoder, duration, level);
    29d0:	6800      	ldr	r0, [r0, #0]
    29d2:	f7ff bffe 	b.w	3266 <infrared_common_encode>
	...

000029d8 <infrared_encoder_rc6_alloc>:
}

void* infrared_encoder_rc6_alloc(void) {
    29d8:	b510      	push	{r4, lr}
    InfraredEncoderRC6* encoder = malloc(sizeof(InfraredEncoderRC6));
    29da:	2008      	movs	r0, #8
    29dc:	f7ff fffe 	bl	0 <malloc>
    29e0:	4604      	mov	r4, r0
    encoder->common_encoder = infrared_common_encoder_alloc(&infrared_protocol_rc6);
    29e2:	4804      	ldr	r0, [pc, #16]	@ (29f4 <infrared_encoder_rc6_alloc+0x1c>)
    29e4:	f7ff fffe 	bl	3314 <infrared_common_encoder_alloc>
    encoder->toggle_bit = false;
    29e8:	2300      	movs	r3, #0
    encoder->common_encoder = infrared_common_encoder_alloc(&infrared_protocol_rc6);
    29ea:	6020      	str	r0, [r4, #0]
    encoder->toggle_bit = false;
    29ec:	7123      	strb	r3, [r4, #4]
    return encoder;
}
    29ee:	4620      	mov	r0, r4
    29f0:	bd10      	pop	{r4, pc}
    29f2:	bf00      	nop
    29f4:	00000000 	.word	0x00000000

000029f8 <infrared_encoder_rc6_free>:

void infrared_encoder_rc6_free(void* encoder_ptr) {
    29f8:	b510      	push	{r4, lr}
    29fa:	4604      	mov	r4, r0
    furi_assert(encoder_ptr);

    InfraredEncoderRC6* encoder = encoder_ptr;
    free(encoder->common_encoder);
    29fc:	6800      	ldr	r0, [r0, #0]
    29fe:	f7ff fffe 	bl	0 <free>
    free(encoder);
    2a02:	4620      	mov	r0, r4
}
    2a04:	e8bd 4010 	ldmia.w	sp!, {r4, lr}
    free(encoder);
    2a08:	f7ff bffe 	b.w	0 <free>

00002a0c <infrared_encoder_rc6_encode_manchester>:

InfraredStatus infrared_encoder_rc6_encode_manchester(
    InfraredCommonEncoder* common_encoder,
    uint32_t* duration,
    bool* polarity) {
    2a0c:	b538      	push	{r3, r4, r5, lr}
    InfraredStatus status = InfraredStatusError;

    bool toggle_bit = (common_encoder->bits_encoded == 4);
    2a0e:	79c5      	ldrb	r5, [r0, #7]
    bool* polarity) {
    2a10:	460c      	mov	r4, r1
    status = infrared_common_encode_manchester(common_encoder, duration, polarity);
    2a12:	f7ff fffe 	bl	31ce <infrared_common_encode_manchester>
    if(toggle_bit) *duration *= 2;
    2a16:	2d04      	cmp	r5, #4
    2a18:	bf02      	ittt	eq
    2a1a:	6823      	ldreq	r3, [r4, #0]
    2a1c:	005b      	lsleq	r3, r3, #1
    2a1e:	6023      	streq	r3, [r4, #0]
    return status;
}
    2a20:	bd38      	pop	{r3, r4, r5, pc}
	...

00002a24 <infrared_protocol_rc6_get_variant>:
    .repeat_count = INFRARED_RC6_REPEAT_COUNT_MIN,
};

const InfraredProtocolVariant* infrared_protocol_rc6_get_variant(InfraredProtocol protocol) {
    if(protocol == InfraredProtocolRC6)
        return &infrared_protocol_variant_rc6;
    2a24:	2805      	cmp	r0, #5
    else
        return NULL;
}
    2a26:	4802      	ldr	r0, [pc, #8]	@ (2a30 <infrared_protocol_rc6_get_variant+0xc>)
    2a28:	bf18      	it	ne
    2a2a:	2000      	movne	r0, #0
    2a2c:	4770      	bx	lr
    2a2e:	bf00      	nop
    2a30:	00000a54 	.word	0x00000a54

00002a34 <infrared_decoder_rca_check_ready>:
#include "infrared_protocol_rca_i.h"
#include <core/check.h>

InfraredMessage* infrared_decoder_rca_check_ready(void* ctx) {
    return infrared_common_decoder_check_ready(ctx);
    2a34:	f7ff bffe 	b.w	2f5c <infrared_common_decoder_check_ready>

00002a38 <infrared_decoder_rca_interpret>:
bool infrared_decoder_rca_interpret(InfraredCommonDecoder* decoder) {
    furi_assert(decoder);

    uint32_t* data = (void*)&decoder->data;

    uint8_t address = (*data & 0xF);
    2a38:	f8d0 3036 	ldr.w	r3, [r0, #54]	@ 0x36
    uint8_t command = (*data >> 4) & 0xFF;
    uint8_t address_inverse = (*data >> 12) & 0xF;
    uint8_t command_inverse = (*data >> 16) & 0xFF;
    uint8_t inverse_address_inverse = (uint8_t)~address_inverse & 0xF;
    uint8_t inverse_command_inverse = (uint8_t)~command_inverse;
    2a3c:	ea6f 4213 	mvn.w	r2, r3, lsr #16

    if((command == inverse_command_inverse) && (address == inverse_address_inverse)) {
    2a40:	f3c3 1107 	ubfx	r1, r3, #4, #8
    2a44:	b2d2      	uxtb	r2, r2
    2a46:	4291      	cmp	r1, r2
    2a48:	d111      	bne.n	2a6e <infrared_decoder_rca_interpret+0x36>
    uint8_t address = (*data & 0xF);
    2a4a:	f003 020f 	and.w	r2, r3, #15
    uint8_t inverse_address_inverse = (uint8_t)~address_inverse & 0xF;
    2a4e:	ea6f 3313 	mvn.w	r3, r3, lsr #12
    if((command == inverse_command_inverse) && (address == inverse_address_inverse)) {
    2a52:	f003 030f 	and.w	r3, r3, #15
    2a56:	429a      	cmp	r2, r3
    2a58:	d109      	bne.n	2a6e <infrared_decoder_rca_interpret+0x36>
        decoder->message.protocol = InfraredProtocolRCA;
    2a5a:	230c      	movs	r3, #12
    2a5c:	f880 3020 	strb.w	r3, [r0, #32]
        decoder->message.address = address;
        decoder->message.command = command;
        decoder->message.repeat = false;
    2a60:	2300      	movs	r3, #0
        decoder->message.command = command;
    2a62:	e9c0 2109 	strd	r2, r1, [r0, #36]	@ 0x24
        decoder->message.repeat = false;
    2a66:	f880 302c 	strb.w	r3, [r0, #44]	@ 0x2c
        return true;
    2a6a:	2001      	movs	r0, #1
    2a6c:	4770      	bx	lr
    }

    return false;
    2a6e:	2000      	movs	r0, #0
}
    2a70:	4770      	bx	lr
	...

00002a74 <infrared_decoder_rca_alloc>:

void* infrared_decoder_rca_alloc(void) {
    return infrared_common_decoder_alloc(&infrared_protocol_rca);
    2a74:	4801      	ldr	r0, [pc, #4]	@ (2a7c <infrared_decoder_rca_alloc+0x8>)
    2a76:	f7ff bffe 	b.w	2fa2 <infrared_common_decoder_alloc>
    2a7a:	bf00      	nop
    2a7c:	00000000 	.word	0x00000000

00002a80 <infrared_decoder_rca_decode>:
}

InfraredMessage* infrared_decoder_rca_decode(void* decoder, bool level, uint32_t duration) {
    return infrared_common_decode(decoder, level, duration);
    2a80:	f7ff bffe 	b.w	2fda <infrared_common_decode>

00002a84 <infrared_decoder_rca_free>:
}

void infrared_decoder_rca_free(void* decoder) {
    infrared_common_decoder_free(decoder);
    2a84:	f7ff bffe 	b.w	2fc6 <infrared_common_decoder_free>

00002a88 <infrared_decoder_rca_reset>:
}

void infrared_decoder_rca_reset(void* decoder) {
    infrared_common_decoder_reset(decoder);
    2a88:	f7ff bffe 	b.w	2fca <infrared_common_decoder_reset>

00002a8c <infrared_encoder_rca_reset>:
#include "infrared_protocol_rca_i.h"

#include <core/check.h>

void infrared_encoder_rca_reset(void* encoder_ptr, const InfraredMessage* message) {
    2a8c:	b538      	push	{r3, r4, r5, lr}
    2a8e:	460d      	mov	r5, r1
    2a90:	4604      	mov	r4, r0
    furi_assert(encoder_ptr);
    furi_assert(message);

    InfraredCommonEncoder* encoder = encoder_ptr;
    infrared_common_encoder_reset(encoder);
    2a92:	f7ff fffe 	bl	3344 <infrared_common_encoder_reset>

    uint32_t* data = (void*)encoder->data;

    uint8_t address = message->address;
    uint8_t address_inverse = ~address;
    uint8_t command = message->command;
    2a96:	e9d5 2101 	ldrd	r2, r1, [r5, #4]
    uint8_t command_inverse = ~command;

    *data = address & 0xF;
    *data |= command << 4;
    2a9a:	010b      	lsls	r3, r1, #4
    *data = address & 0xF;
    2a9c:	f002 000f 	and.w	r0, r2, #15
    *data |= command << 4;
    2aa0:	f403 637f 	and.w	r3, r3, #4080	@ 0xff0
    uint8_t command_inverse = ~command;
    2aa4:	43c9      	mvns	r1, r1
    uint8_t address_inverse = ~address;
    2aa6:	43d2      	mvns	r2, r2
    *data |= (address_inverse & 0xF) << 12;
    *data |= command_inverse << 16;
    2aa8:	4303      	orrs	r3, r0
    2aaa:	b2c9      	uxtb	r1, r1
    *data |= (address_inverse & 0xF) << 12;
    2aac:	0312      	lsls	r2, r2, #12
    *data |= command_inverse << 16;
    2aae:	ea43 4301 	orr.w	r3, r3, r1, lsl #16
    *data |= (address_inverse & 0xF) << 12;
    2ab2:	f402 4270 	and.w	r2, r2, #61440	@ 0xf000
    *data |= command_inverse << 16;
    2ab6:	4313      	orrs	r3, r2
    2ab8:	6163      	str	r3, [r4, #20]

    encoder->bits_to_encode = encoder->protocol->databit_len[0];
    2aba:	6823      	ldr	r3, [r4, #0]
    2abc:	7f5b      	ldrb	r3, [r3, #29]
    2abe:	71a3      	strb	r3, [r4, #6]
}
    2ac0:	bd38      	pop	{r3, r4, r5, pc}
	...

00002ac4 <infrared_encoder_rca_alloc>:

void* infrared_encoder_rca_alloc(void) {
    return infrared_common_encoder_alloc(&infrared_protocol_rca);
    2ac4:	4801      	ldr	r0, [pc, #4]	@ (2acc <infrared_encoder_rca_alloc+0x8>)
    2ac6:	f7ff bffe 	b.w	3314 <infrared_common_encoder_alloc>
    2aca:	bf00      	nop
    2acc:	00000000 	.word	0x00000000

00002ad0 <infrared_encoder_rca_free>:
}

void infrared_encoder_rca_free(void* encoder_ptr) {
    infrared_common_encoder_free(encoder_ptr);
    2ad0:	f7ff bffe 	b.w	3340 <infrared_common_encoder_free>

00002ad4 <infrared_encoder_rca_encode>:
}

InfraredStatus infrared_encoder_rca_encode(void* encoder_ptr, uint32_t* duration, bool* level) {
    return infrared_common_encode(encoder_ptr, duration, level);
    2ad4:	f7ff bffe 	b.w	3266 <infrared_common_encode>

00002ad8 <infrared_protocol_rca_get_variant>:
    .repeat_count = INFRARED_RCA_REPEAT_COUNT_MIN,
};

const InfraredProtocolVariant* infrared_protocol_rca_get_variant(InfraredProtocol protocol) {
    if(protocol == InfraredProtocolRCA)
        return &infrared_protocol_variant_rca;
    2ad8:	280c      	cmp	r0, #12
    else
        return NULL;
}
    2ada:	4802      	ldr	r0, [pc, #8]	@ (2ae4 <infrared_protocol_rca_get_variant+0xc>)
    2adc:	bf18      	it	ne
    2ade:	2000      	movne	r0, #0
    2ae0:	4770      	bx	lr
    2ae2:	bf00      	nop
    2ae4:	00000aa4 	.word	0x00000aa4

00002ae8 <infrared_decoder_samsung32_check_ready>:
#include "infrared_protocol_samsung_i.h"
#include <core/check.h>

InfraredMessage* infrared_decoder_samsung32_check_ready(void* ctx) {
    return infrared_common_decoder_check_ready(ctx);
    2ae8:	f7ff bffe 	b.w	2f5c <infrared_common_decoder_check_ready>

00002aec <infrared_decoder_samsung32_interpret>:

bool infrared_decoder_samsung32_interpret(InfraredCommonDecoder* decoder) {
    furi_assert(decoder);

    bool result = false;
    uint8_t address1 = decoder->data[0];
    2aec:	f890 3036 	ldrb.w	r3, [r0, #54]	@ 0x36
    uint8_t address2 = decoder->data[1];
    uint8_t command = decoder->data[2];
    uint8_t command_inverse = decoder->data[3];
    uint8_t inverse_command_inverse = (uint8_t)~command_inverse;

    if((address1 == address2) && (command == inverse_command_inverse)) {
    2af0:	f890 2037 	ldrb.w	r2, [r0, #55]	@ 0x37
    2af4:	429a      	cmp	r2, r3
    2af6:	d111      	bne.n	2b1c <infrared_decoder_samsung32_interpret+0x30>
    uint8_t inverse_command_inverse = (uint8_t)~command_inverse;
    2af8:	f890 3039 	ldrb.w	r3, [r0, #57]	@ 0x39
    uint8_t command = decoder->data[2];
    2afc:	f890 1038 	ldrb.w	r1, [r0, #56]	@ 0x38
    uint8_t inverse_command_inverse = (uint8_t)~command_inverse;
    2b00:	43db      	mvns	r3, r3
    if((address1 == address2) && (command == inverse_command_inverse)) {
    2b02:	b2db      	uxtb	r3, r3
    2b04:	4299      	cmp	r1, r3
    2b06:	d109      	bne.n	2b1c <infrared_decoder_samsung32_interpret+0x30>
        decoder->message.command = command;
        decoder->message.address = address1;
        decoder->message.protocol = InfraredProtocolSamsung32;
    2b08:	2304      	movs	r3, #4
    2b0a:	f880 3020 	strb.w	r3, [r0, #32]
        decoder->message.repeat = false;
    2b0e:	2300      	movs	r3, #0
        decoder->message.address = address1;
    2b10:	e9c0 2109 	strd	r2, r1, [r0, #36]	@ 0x24
        decoder->message.repeat = false;
    2b14:	f880 302c 	strb.w	r3, [r0, #44]	@ 0x2c
        result = true;
    2b18:	2001      	movs	r0, #1
    2b1a:	4770      	bx	lr
    bool result = false;
    2b1c:	2000      	movs	r0, #0
    }

    return result;
}
    2b1e:	4770      	bx	lr

00002b20 <infrared_decoder_samsung32_decode_repeat>:

// timings start from Space (delay between message and repeat)
InfraredStatus infrared_decoder_samsung32_decode_repeat(InfraredCommonDecoder* decoder) {
    2b20:	b570      	push	{r4, r5, r6, lr}

    float preamble_tolerance = decoder->protocol->timings.preamble_tolerance;
    uint32_t bit_tolerance = decoder->protocol->timings.bit_tolerance;
    InfraredStatus status = InfraredStatusError;

    if(decoder->timings_cnt < 6) return InfraredStatusOk;
    2b22:	f890 2031 	ldrb.w	r2, [r0, #49]	@ 0x31
    2b26:	2a05      	cmp	r2, #5
InfraredStatus infrared_decoder_samsung32_decode_repeat(InfraredCommonDecoder* decoder) {
    2b28:	4603      	mov	r3, r0
    if(decoder->timings_cnt < 6) return InfraredStatusOk;
    2b2a:	d949      	bls.n	2bc0 <infrared_decoder_samsung32_decode_repeat+0xa0>

    if((decoder->timings[0] > INFRARED_SAMSUNG_REPEAT_PAUSE_MIN) &&
    2b2c:	6882      	ldr	r2, [r0, #8]
    2b2e:	4926      	ldr	r1, [pc, #152]	@ (2bc8 <infrared_decoder_samsung32_decode_repeat+0xa8>)
    2b30:	f5a2 42ea 	sub.w	r2, r2, #29952	@ 0x7500
    2b34:	3a31      	subs	r2, #49	@ 0x31
    2b36:	428a      	cmp	r2, r1
    2b38:	d844      	bhi.n	2bc4 <infrared_decoder_samsung32_decode_repeat+0xa4>
    float preamble_tolerance = decoder->protocol->timings.preamble_tolerance;
    2b3a:	6801      	ldr	r1, [r0, #0]
    2b3c:	edd1 7a05 	vldr	s15, [r1, #20]
    2b40:	eef8 6a67 	vcvt.f32.u32	s13, s15
       (decoder->timings[0] < INFRARED_SAMSUNG_REPEAT_PAUSE_MAX) &&
       MATCH_TIMING(decoder->timings[1], INFRARED_SAMSUNG_REPEAT_MARK, preamble_tolerance) &&
    2b44:	edd0 7a03 	vldr	s15, [r0, #12]
    2b48:	eeb8 7a67 	vcvt.f32.u32	s14, s15
    2b4c:	eddf 7a1f 	vldr	s15, [pc, #124]	@ 2bcc <infrared_decoder_samsung32_decode_repeat+0xac>
    2b50:	ee36 6aa7 	vadd.f32	s12, s13, s15
       (decoder->timings[0] < INFRARED_SAMSUNG_REPEAT_PAUSE_MAX) &&
    2b54:	eeb4 7ac6 	vcmpe.f32	s14, s12
    2b58:	eef1 fa10 	vmrs	APSR_nzcv, fpscr
    2b5c:	d532      	bpl.n	2bc4 <infrared_decoder_samsung32_decode_repeat+0xa4>
       MATCH_TIMING(decoder->timings[1], INFRARED_SAMSUNG_REPEAT_MARK, preamble_tolerance) &&
    2b5e:	ee77 7ae6 	vsub.f32	s15, s15, s13
    2b62:	eeb4 7ae7 	vcmpe.f32	s14, s15
    2b66:	eef1 fa10 	vmrs	APSR_nzcv, fpscr
    2b6a:	dd2b      	ble.n	2bc4 <infrared_decoder_samsung32_decode_repeat+0xa4>
       MATCH_TIMING(decoder->timings[2], INFRARED_SAMSUNG_REPEAT_SPACE, preamble_tolerance) &&
    2b6c:	ed90 7a04 	vldr	s14, [r0, #16]
    2b70:	eeb8 7a47 	vcvt.f32.u32	s14, s14
       MATCH_TIMING(decoder->timings[1], INFRARED_SAMSUNG_REPEAT_MARK, preamble_tolerance) &&
    2b74:	eeb4 6ac7 	vcmpe.f32	s12, s14
    2b78:	eef1 fa10 	vmrs	APSR_nzcv, fpscr
    2b7c:	dd22      	ble.n	2bc4 <infrared_decoder_samsung32_decode_repeat+0xa4>
       MATCH_TIMING(decoder->timings[2], INFRARED_SAMSUNG_REPEAT_SPACE, preamble_tolerance) &&
    2b7e:	eef4 7ac7 	vcmpe.f32	s15, s14
    2b82:	eef1 fa10 	vmrs	APSR_nzcv, fpscr
    2b86:	d51d      	bpl.n	2bc4 <infrared_decoder_samsung32_decode_repeat+0xa4>
    uint32_t bit_tolerance = decoder->protocol->timings.bit_tolerance;
    2b88:	6988      	ldr	r0, [r1, #24]
       MATCH_TIMING(decoder->timings[3], decoder->protocol->timings.bit1_mark, bit_tolerance) &&
    2b8a:	898a      	ldrh	r2, [r1, #12]
    2b8c:	695d      	ldr	r5, [r3, #20]
    2b8e:	1814      	adds	r4, r2, r0
       MATCH_TIMING(decoder->timings[2], INFRARED_SAMSUNG_REPEAT_SPACE, preamble_tolerance) &&
    2b90:	42a5      	cmp	r5, r4
    2b92:	d217      	bcs.n	2bc4 <infrared_decoder_samsung32_decode_repeat+0xa4>
       MATCH_TIMING(decoder->timings[3], decoder->protocol->timings.bit1_mark, bit_tolerance) &&
    2b94:	1a12      	subs	r2, r2, r0
    2b96:	4295      	cmp	r5, r2
    2b98:	d914      	bls.n	2bc4 <infrared_decoder_samsung32_decode_repeat+0xa4>
       MATCH_TIMING(decoder->timings[4], decoder->protocol->timings.bit1_space, bit_tolerance) &&
    2b9a:	89c9      	ldrh	r1, [r1, #14]
    2b9c:	699d      	ldr	r5, [r3, #24]
    2b9e:	180e      	adds	r6, r1, r0
       MATCH_TIMING(decoder->timings[3], decoder->protocol->timings.bit1_mark, bit_tolerance) &&
    2ba0:	42b5      	cmp	r5, r6
    2ba2:	d20f      	bcs.n	2bc4 <infrared_decoder_samsung32_decode_repeat+0xa4>
       MATCH_TIMING(decoder->timings[4], decoder->protocol->timings.bit1_space, bit_tolerance) &&
    2ba4:	1a09      	subs	r1, r1, r0
    2ba6:	428d      	cmp	r5, r1
    2ba8:	d90c      	bls.n	2bc4 <infrared_decoder_samsung32_decode_repeat+0xa4>
       MATCH_TIMING(decoder->timings[5], decoder->protocol->timings.bit1_mark, bit_tolerance)) {
    2baa:	69d9      	ldr	r1, [r3, #28]
       MATCH_TIMING(decoder->timings[4], decoder->protocol->timings.bit1_space, bit_tolerance) &&
    2bac:	428c      	cmp	r4, r1
    2bae:	f04f 0000 	mov.w	r0, #0
    2bb2:	d904      	bls.n	2bbe <infrared_decoder_samsung32_decode_repeat+0x9e>
       MATCH_TIMING(decoder->timings[5], decoder->protocol->timings.bit1_mark, bit_tolerance)) {
    2bb4:	428a      	cmp	r2, r1
    2bb6:	d202      	bcs.n	2bbe <infrared_decoder_samsung32_decode_repeat+0x9e>
        status = InfraredStatusReady;
        decoder->timings_cnt = 0;
    2bb8:	f883 0031 	strb.w	r0, [r3, #49]	@ 0x31
        status = InfraredStatusReady;
    2bbc:	2003      	movs	r0, #3
    } else {
        status = InfraredStatusError;
    }

    return status;
}
    2bbe:	bd70      	pop	{r4, r5, r6, pc}
    if(decoder->timings_cnt < 6) return InfraredStatusOk;
    2bc0:	2001      	movs	r0, #1
    2bc2:	e7fc      	b.n	2bbe <infrared_decoder_samsung32_decode_repeat+0x9e>
        status = InfraredStatusError;
    2bc4:	2000      	movs	r0, #0
    2bc6:	e7fa      	b.n	2bbe <infrared_decoder_samsung32_decode_repeat+0x9e>
    2bc8:	0001adae 	.word	0x0001adae
    2bcc:	458ca000 	.word	0x458ca000

00002bd0 <infrared_decoder_samsung32_alloc>:

void* infrared_decoder_samsung32_alloc(void) {
    return infrared_common_decoder_alloc(&infrared_protocol_samsung32);
    2bd0:	4801      	ldr	r0, [pc, #4]	@ (2bd8 <infrared_decoder_samsung32_alloc+0x8>)
    2bd2:	f7ff bffe 	b.w	2fa2 <infrared_common_decoder_alloc>
    2bd6:	bf00      	nop
    2bd8:	00000000 	.word	0x00000000

00002bdc <infrared_decoder_samsung32_decode>:
}

InfraredMessage* infrared_decoder_samsung32_decode(void* decoder, bool level, uint32_t duration) {
    return infrared_common_decode(decoder, level, duration);
    2bdc:	f7ff bffe 	b.w	2fda <infrared_common_decode>

00002be0 <infrared_decoder_samsung32_free>:
}

void infrared_decoder_samsung32_free(void* decoder) {
    infrared_common_decoder_free(decoder);
    2be0:	f7ff bffe 	b.w	2fc6 <infrared_common_decoder_free>

00002be4 <infrared_decoder_samsung32_reset>:
}

void infrared_decoder_samsung32_reset(void* decoder) {
    infrared_common_decoder_reset(decoder);
    2be4:	f7ff bffe 	b.w	2fca <infrared_common_decoder_reset>

00002be8 <infrared_encoder_samsung32_reset>:
    INFRARED_SAMSUNG_BIT1_MARK,
    INFRARED_SAMSUNG_BIT1_SPACE,
    INFRARED_SAMSUNG_BIT1_MARK,
};

void infrared_encoder_samsung32_reset(void* encoder_ptr, const InfraredMessage* message) {
    2be8:	b538      	push	{r3, r4, r5, lr}
    2bea:	4604      	mov	r4, r0
    2bec:	460d      	mov	r5, r1
    furi_assert(encoder_ptr);

    InfraredCommonEncoder* encoder = encoder_ptr;
    infrared_common_encoder_reset(encoder);
    2bee:	f7ff fffe 	bl	3344 <infrared_common_encoder_reset>

    uint8_t address = message->address;
    uint8_t command = message->command;
    2bf2:	7929      	ldrb	r1, [r5, #4]
    uint8_t command_inverse = ~command;

    uint32_t* data = (void*)encoder->data;
    *data |= address;
    *data |= address << 8;
    2bf4:	6963      	ldr	r3, [r4, #20]
    uint8_t command = message->command;
    2bf6:	68aa      	ldr	r2, [r5, #8]
    *data |= address << 8;
    2bf8:	ea43 2301 	orr.w	r3, r3, r1, lsl #8
    2bfc:	430b      	orrs	r3, r1
    *data |= command << 16;
    2bfe:	0411      	lsls	r1, r2, #16
    2c00:	f401 017f 	and.w	r1, r1, #16711680	@ 0xff0000
    2c04:	430b      	orrs	r3, r1
    uint8_t command_inverse = ~command;
    2c06:	43d2      	mvns	r2, r2
    *data |= command_inverse << 24;
    2c08:	ea43 6302 	orr.w	r3, r3, r2, lsl #24
    2c0c:	6163      	str	r3, [r4, #20]

    encoder->bits_to_encode = encoder->protocol->databit_len[0];
    2c0e:	6823      	ldr	r3, [r4, #0]
    2c10:	7f5b      	ldrb	r3, [r3, #29]
    2c12:	71a3      	strb	r3, [r4, #6]
}
    2c14:	bd38      	pop	{r3, r4, r5, pc}
	...

00002c18 <infrared_encoder_samsung32_encode_repeat>:

InfraredStatus infrared_encoder_samsung32_encode_repeat(
    InfraredCommonEncoder* encoder,
    uint32_t* duration,
    bool* level) {
    2c18:	b570      	push	{r4, r5, r6, lr}
    2c1a:	4604      	mov	r4, r0
    furi_assert(encoder);

    /* space + 2 timings preambule + payload + stop bit */
    uint32_t timings_encoded_up_to_repeat = 1 + 2 + encoder->bits_encoded * 2 + 1;
    2c1c:	79c0      	ldrb	r0, [r0, #7]
    uint32_t repeat_cnt = encoder->timings_encoded - timings_encoded_up_to_repeat;
    2c1e:	68e3      	ldr	r3, [r4, #12]
    uint32_t timings_encoded_up_to_repeat = 1 + 2 + encoder->bits_encoded * 2 + 1;
    2c20:	3002      	adds	r0, #2

    furi_assert(encoder->timings_encoded >= timings_encoded_up_to_repeat);

    if(repeat_cnt > 0)
    2c22:	ebb3 0340 	subs.w	r3, r3, r0, lsl #1
    2c26:	d019      	beq.n	2c5c <infrared_encoder_samsung32_encode_repeat+0x44>
        *duration = repeat_timings[repeat_cnt % COUNT_OF(repeat_timings)];
    2c28:	2006      	movs	r0, #6
    2c2a:	4e10      	ldr	r6, [pc, #64]	@ (2c6c <infrared_encoder_samsung32_encode_repeat+0x54>)
    2c2c:	fbb3 f5f0 	udiv	r5, r3, r0
    2c30:	fb00 3515 	mls	r5, r0, r5, r3
    2c34:	f856 5025 	ldr.w	r5, [r6, r5, lsl #2]
    2c38:	600d      	str	r5, [r1, #0]
    else
        *duration = INFRARED_SAMSUNG_REPEAT_PAUSE1;

    *level = repeat_cnt % 2;
    2c3a:	f003 0101 	and.w	r1, r3, #1
    ++encoder->timings_encoded;
    bool done = (!((repeat_cnt + 1) % COUNT_OF(repeat_timings)));
    2c3e:	3301      	adds	r3, #1
    *level = repeat_cnt % 2;
    2c40:	7011      	strb	r1, [r2, #0]
    ++encoder->timings_encoded;
    2c42:	fbb3 f1f0 	udiv	r1, r3, r0
    2c46:	68e2      	ldr	r2, [r4, #12]
    2c48:	fb00 3311 	mls	r3, r0, r1, r3

    return done ? InfraredStatusDone : InfraredStatusOk;
    2c4c:	2b00      	cmp	r3, #0
    ++encoder->timings_encoded;
    2c4e:	f102 0201 	add.w	r2, r2, #1
    return done ? InfraredStatusDone : InfraredStatusOk;
    2c52:	bf14      	ite	ne
    2c54:	2001      	movne	r0, #1
    2c56:	2002      	moveq	r0, #2
    ++encoder->timings_encoded;
    2c58:	60e2      	str	r2, [r4, #12]
}
    2c5a:	bd70      	pop	{r4, r5, r6, pc}
        *duration = INFRARED_SAMSUNG_REPEAT_PAUSE1;
    2c5c:	f24b 30b0 	movw	r0, #46000	@ 0xb3b0
    2c60:	6008      	str	r0, [r1, #0]
    *level = repeat_cnt % 2;
    2c62:	7013      	strb	r3, [r2, #0]
    ++encoder->timings_encoded;
    2c64:	68e2      	ldr	r2, [r4, #12]
    return done ? InfraredStatusDone : InfraredStatusOk;
    2c66:	2001      	movs	r0, #1
    ++encoder->timings_encoded;
    2c68:	3201      	adds	r2, #1
    return done ? InfraredStatusDone : InfraredStatusOk;
    2c6a:	e7f5      	b.n	2c58 <infrared_encoder_samsung32_encode_repeat+0x40>
    2c6c:	00000af0 	.word	0x00000af0

00002c70 <infrared_encoder_samsung32_alloc>:

void* infrared_encoder_samsung32_alloc(void) {
    return infrared_common_encoder_alloc(&infrared_protocol_samsung32);
    2c70:	4801      	ldr	r0, [pc, #4]	@ (2c78 <infrared_encoder_samsung32_alloc+0x8>)
    2c72:	f7ff bffe 	b.w	3314 <infrared_common_encoder_alloc>
    2c76:	bf00      	nop
    2c78:	00000000 	.word	0x00000000

00002c7c <infrared_encoder_samsung32_free>:
}

void infrared_encoder_samsung32_free(void* encoder_ptr) {
    infrared_common_encoder_free(encoder_ptr);
    2c7c:	f7ff bffe 	b.w	3340 <infrared_common_encoder_free>

00002c80 <infrared_encoder_samsung32_encode>:
}

InfraredStatus
    infrared_encoder_samsung32_encode(void* encoder_ptr, uint32_t* duration, bool* level) {
    return infrared_common_encode(encoder_ptr, duration, level);
    2c80:	f7ff bffe 	b.w	3266 <infrared_common_encode>

00002c84 <infrared_protocol_samsung32_get_variant>:
    .repeat_count = INFRARED_SAMSUNG_REPEAT_COUNT_MIN,
};

const InfraredProtocolVariant* infrared_protocol_samsung32_get_variant(InfraredProtocol protocol) {
    if(protocol == InfraredProtocolSamsung32)
        return &infrared_protocol_variant_samsung32;
    2c84:	2804      	cmp	r0, #4
    else
        return NULL;
}
    2c86:	4802      	ldr	r0, [pc, #8]	@ (2c90 <infrared_protocol_samsung32_get_variant+0xc>)
    2c88:	bf18      	it	ne
    2c8a:	2000      	movne	r0, #0
    2c8c:	4770      	bx	lr
    2c8e:	bf00      	nop
    2c90:	00000b14 	.word	0x00000b14

00002c94 <infrared_decoder_sirc_check_ready>:
#include "infrared_protocol_sirc_i.h"
#include <core/check.h>

InfraredMessage* infrared_decoder_sirc_check_ready(void* ctx) {
    return infrared_common_decoder_check_ready(ctx);
    2c94:	f7ff bffe 	b.w	2f5c <infrared_common_decoder_check_ready>

00002c98 <infrared_decoder_sirc_interpret>:
    uint32_t* data = (void*)&decoder->data[0];
    uint16_t address = 0;
    uint8_t command = 0;
    InfraredProtocol protocol = InfraredProtocolUnknown;

    if(decoder->databit_cnt == 12) {
    2c98:	8e83      	ldrh	r3, [r0, #52]	@ 0x34
    2c9a:	2b0c      	cmp	r3, #12
    2c9c:	d10f      	bne.n	2cbe <infrared_decoder_sirc_interpret+0x26>
        address = (*data >> 7) & 0x1F;
    2c9e:	f8d0 3036 	ldr.w	r3, [r0, #54]	@ 0x36
        command = *data & 0x7F;
        protocol = InfraredProtocolSIRC;
    2ca2:	2108      	movs	r1, #8
        address = (*data >> 7) & 0x1F;
    2ca4:	f3c3 12c4 	ubfx	r2, r3, #7, #5
        command = *data & 0x7F;
    2ca8:	f003 037f 	and.w	r3, r3, #127	@ 0x7f
        return false;
    }

    decoder->message.protocol = protocol;
    decoder->message.address = address;
    decoder->message.command = command;
    2cac:	e9c0 2309 	strd	r2, r3, [r0, #36]	@ 0x24
    /* SIRC doesn't specify repeat detection */
    decoder->message.repeat = false;
    2cb0:	2300      	movs	r3, #0
    decoder->message.protocol = protocol;
    2cb2:	f880 1020 	strb.w	r1, [r0, #32]
    decoder->message.repeat = false;
    2cb6:	f880 302c 	strb.w	r3, [r0, #44]	@ 0x2c

    return true;
    2cba:	2001      	movs	r0, #1
    2cbc:	4770      	bx	lr
    } else if(decoder->databit_cnt == 15) {
    2cbe:	2b0f      	cmp	r3, #15
    2cc0:	d107      	bne.n	2cd2 <infrared_decoder_sirc_interpret+0x3a>
        address = (*data >> 7) & 0xFF;
    2cc2:	f8d0 3036 	ldr.w	r3, [r0, #54]	@ 0x36
        protocol = InfraredProtocolSIRC15;
    2cc6:	2109      	movs	r1, #9
        address = (*data >> 7) & 0xFF;
    2cc8:	f3c3 12c7 	ubfx	r2, r3, #7, #8
        command = *data & 0x7F;
    2ccc:	f003 037f 	and.w	r3, r3, #127	@ 0x7f
        protocol = InfraredProtocolSIRC15;
    2cd0:	e7ec      	b.n	2cac <infrared_decoder_sirc_interpret+0x14>
    } else if(decoder->databit_cnt == 20) {
    2cd2:	2b14      	cmp	r3, #20
    2cd4:	d107      	bne.n	2ce6 <infrared_decoder_sirc_interpret+0x4e>
        address = (*data >> 7) & 0x1FFF;
    2cd6:	f8d0 3036 	ldr.w	r3, [r0, #54]	@ 0x36
        protocol = InfraredProtocolSIRC20;
    2cda:	210a      	movs	r1, #10
        address = (*data >> 7) & 0x1FFF;
    2cdc:	f3c3 12cc 	ubfx	r2, r3, #7, #13
        command = *data & 0x7F;
    2ce0:	f003 037f 	and.w	r3, r3, #127	@ 0x7f
        protocol = InfraredProtocolSIRC20;
    2ce4:	e7e2      	b.n	2cac <infrared_decoder_sirc_interpret+0x14>
        return false;
    2ce6:	2000      	movs	r0, #0
}
    2ce8:	4770      	bx	lr
	...

00002cec <infrared_decoder_sirc_alloc>:

void* infrared_decoder_sirc_alloc(void) {
    return infrared_common_decoder_alloc(&infrared_protocol_sirc);
    2cec:	4801      	ldr	r0, [pc, #4]	@ (2cf4 <infrared_decoder_sirc_alloc+0x8>)
    2cee:	f7ff bffe 	b.w	2fa2 <infrared_common_decoder_alloc>
    2cf2:	bf00      	nop
    2cf4:	00000000 	.word	0x00000000

00002cf8 <infrared_decoder_sirc_decode>:
}

InfraredMessage* infrared_decoder_sirc_decode(void* decoder, bool level, uint32_t duration) {
    return infrared_common_decode(decoder, level, duration);
    2cf8:	f7ff bffe 	b.w	2fda <infrared_common_decode>

00002cfc <infrared_decoder_sirc_free>:
}

void infrared_decoder_sirc_free(void* decoder) {
    infrared_common_decoder_free(decoder);
    2cfc:	f7ff bffe 	b.w	2fc6 <infrared_common_decoder_free>

00002d00 <infrared_decoder_sirc_reset>:
}

void infrared_decoder_sirc_reset(void* decoder) {
    infrared_common_decoder_reset(decoder);
    2d00:	f7ff bffe 	b.w	2fca <infrared_common_decoder_reset>

00002d04 <infrared_encoder_sirc_reset>:
#include "infrared_protocol_sirc_i.h"
#include <core/check.h>

void infrared_encoder_sirc_reset(void* encoder_ptr, const InfraredMessage* message) {
    2d04:	b538      	push	{r3, r4, r5, lr}
    2d06:	460d      	mov	r5, r1
    2d08:	4604      	mov	r4, r0
    furi_assert(encoder_ptr);
    furi_assert(message);

    InfraredCommonEncoder* encoder = encoder_ptr;
    infrared_common_encoder_reset(encoder);
    2d0a:	f7ff fffe 	bl	3344 <infrared_common_encoder_reset>

    uint32_t* data = (void*)encoder->data;

    if(message->protocol == InfraredProtocolSIRC) {
    2d0e:	f995 3000 	ldrsb.w	r3, [r5]
    2d12:	2b08      	cmp	r3, #8
    2d14:	d10c      	bne.n	2d30 <infrared_encoder_sirc_reset+0x2c>
        *data = (message->command & 0x7F);
    2d16:	68aa      	ldr	r2, [r5, #8]
    2d18:	f002 027f 	and.w	r2, r2, #127	@ 0x7f
    2d1c:	6162      	str	r2, [r4, #20]
        *data |= (message->address & 0x1F) << 7;
    2d1e:	686b      	ldr	r3, [r5, #4]
    2d20:	01db      	lsls	r3, r3, #7
    2d22:	f403 6378 	and.w	r3, r3, #3968	@ 0xf80
    2d26:	4313      	orrs	r3, r2
        encoder->bits_to_encode = 12;
    2d28:	220c      	movs	r2, #12
    2d2a:	71a2      	strb	r2, [r4, #6]
        *data |= (message->address & 0x1F) << 7;
    2d2c:	6163      	str	r3, [r4, #20]
        *data |= (message->address & 0x1FFF) << 7;
        encoder->bits_to_encode = 20;
    } else {
        furi_crash();
    }
}
    2d2e:	bd38      	pop	{r3, r4, r5, pc}
    } else if(message->protocol == InfraredProtocolSIRC15) {
    2d30:	2b09      	cmp	r3, #9
    2d32:	d10a      	bne.n	2d4a <infrared_encoder_sirc_reset+0x46>
        *data = (message->command & 0x7F);
    2d34:	68aa      	ldr	r2, [r5, #8]
    2d36:	f002 027f 	and.w	r2, r2, #127	@ 0x7f
    2d3a:	6162      	str	r2, [r4, #20]
        *data |= (message->address & 0xFF) << 7;
    2d3c:	686b      	ldr	r3, [r5, #4]
    2d3e:	01db      	lsls	r3, r3, #7
    2d40:	f403 43ff 	and.w	r3, r3, #32640	@ 0x7f80
    2d44:	4313      	orrs	r3, r2
        encoder->bits_to_encode = 15;
    2d46:	220f      	movs	r2, #15
    2d48:	e7ef      	b.n	2d2a <infrared_encoder_sirc_reset+0x26>
    } else if(message->protocol == InfraredProtocolSIRC20) {
    2d4a:	2b0a      	cmp	r3, #10
    2d4c:	d10a      	bne.n	2d64 <infrared_encoder_sirc_reset+0x60>
        *data = (message->command & 0x7F);
    2d4e:	68aa      	ldr	r2, [r5, #8]
        *data |= (message->address & 0x1FFF) << 7;
    2d50:	4b06      	ldr	r3, [pc, #24]	@ (2d6c <sukima118+0x4>)
        *data = (message->command & 0x7F);
    2d52:	f002 027f 	and.w	r2, r2, #127	@ 0x7f
    2d56:	6162      	str	r2, [r4, #20]
        *data |= (message->address & 0x1FFF) << 7;
    2d58:	6869      	ldr	r1, [r5, #4]
    2d5a:	ea03 13c1 	and.w	r3, r3, r1, lsl #7
    2d5e:	4313      	orrs	r3, r2
        encoder->bits_to_encode = 20;
    2d60:	2214      	movs	r2, #20
    2d62:	e7e2      	b.n	2d2a <infrared_encoder_sirc_reset+0x26>
        furi_crash();
    2d64:	f04f 0c00 	mov.w	ip, #0

00002d68 <sukima118>:
    2d68:	f7ff fffe 	bl	0 <__furi_crash_implementation>
    2d6c:	000fff80 	.word	0x000fff80

00002d70 <infrared_encoder_sirc_encode_repeat>:

InfraredStatus infrared_encoder_sirc_encode_repeat(
    InfraredCommonEncoder* encoder,
    uint32_t* duration,
    bool* level) {
    2d70:	4603      	mov	r3, r0
    furi_assert(encoder);

    furi_assert(encoder->timings_encoded == (1u + 2 + encoder->bits_to_encode * 2 - 1));

    furi_assert(encoder->timings_sum < INFRARED_SIRC_REPEAT_PERIOD);
    *duration = INFRARED_SIRC_REPEAT_PERIOD - encoder->timings_sum;
    2d72:	6880      	ldr	r0, [r0, #8]
    2d74:	f5c0 402f 	rsb	r0, r0, #44800	@ 0xaf00
    2d78:	30c8      	adds	r0, #200	@ 0xc8
    2d7a:	6008      	str	r0, [r1, #0]
    *level = false;
    2d7c:	2100      	movs	r1, #0

    encoder->timings_sum = 0;
    encoder->timings_encoded = 1;
    2d7e:	2001      	movs	r0, #1
    *level = false;
    2d80:	7011      	strb	r1, [r2, #0]
    encoder->timings_sum = 0;
    2d82:	6099      	str	r1, [r3, #8]
    encoder->timings_encoded = 1;
    2d84:	60d8      	str	r0, [r3, #12]
    encoder->bits_encoded = 0;
    2d86:	71d9      	strb	r1, [r3, #7]
    encoder->state = InfraredCommonEncoderStatePreamble;
    2d88:	7118      	strb	r0, [r3, #4]

    return InfraredStatusOk;
}
    2d8a:	4770      	bx	lr

00002d8c <infrared_encoder_sirc_alloc>:

void* infrared_encoder_sirc_alloc(void) {
    return infrared_common_encoder_alloc(&infrared_protocol_sirc);
    2d8c:	4801      	ldr	r0, [pc, #4]	@ (2d94 <infrared_encoder_sirc_alloc+0x8>)
    2d8e:	f7ff bffe 	b.w	3314 <infrared_common_encoder_alloc>
    2d92:	bf00      	nop
    2d94:	00000000 	.word	0x00000000

00002d98 <infrared_encoder_sirc_free>:
}

void infrared_encoder_sirc_free(void* encoder_ptr) {
    infrared_common_encoder_free(encoder_ptr);
    2d98:	f7ff bffe 	b.w	3340 <infrared_common_encoder_free>

00002d9c <infrared_encoder_sirc_encode>:
}

InfraredStatus infrared_encoder_sirc_encode(void* encoder_ptr, uint32_t* duration, bool* level) {
    2d9c:	b510      	push	{r4, lr}
    2d9e:	4604      	mov	r4, r0
    InfraredCommonEncoder* encoder = encoder_ptr;

    InfraredStatus status = infrared_common_encode(encoder, duration, level);
    2da0:	f7ff fffe 	bl	3266 <infrared_common_encode>
    if((status == InfraredStatusOk) && (encoder->bits_encoded == encoder->bits_to_encode)) {
    2da4:	2801      	cmp	r0, #1
    2da6:	d106      	bne.n	2db6 <infrared_encoder_sirc_encode+0x1a>
    2da8:	79a3      	ldrb	r3, [r4, #6]
    2daa:	79e2      	ldrb	r2, [r4, #7]
    2dac:	429a      	cmp	r2, r3
        furi_assert(!*level);
        status = InfraredStatusDone;
        encoder->state = InfraredCommonEncoderStateEncodeRepeat;
    2dae:	bf02      	ittt	eq
    2db0:	2303      	moveq	r3, #3
    2db2:	7123      	strbeq	r3, [r4, #4]
        status = InfraredStatusDone;
    2db4:	2002      	moveq	r0, #2
    }
    return status;
}
    2db6:	bd10      	pop	{r4, pc}

00002db8 <infrared_protocol_sirc_get_variant>:
    .duty_cycle = INFRARED_SIRC_DUTY_CYCLE,
    .repeat_count = INFRARED_SIRC_REPEAT_COUNT_MIN,
};

const InfraredProtocolVariant* infrared_protocol_sirc_get_variant(InfraredProtocol protocol) {
    if(protocol == InfraredProtocolSIRC)
    2db8:	2808      	cmp	r0, #8
    2dba:	d006      	beq.n	2dca <infrared_protocol_sirc_get_variant+0x12>
        return &infrared_protocol_variant_sirc;
    else if(protocol == InfraredProtocolSIRC15)
    2dbc:	2809      	cmp	r0, #9
    2dbe:	d006      	beq.n	2dce <infrared_protocol_sirc_get_variant+0x16>
        return &infrared_protocol_variant_sirc15;
    else if(protocol == InfraredProtocolSIRC20)
        return &infrared_protocol_variant_sirc20;
    2dc0:	280a      	cmp	r0, #10
    2dc2:	4804      	ldr	r0, [pc, #16]	@ (2dd4 <infrared_protocol_sirc_get_variant+0x1c>)
    2dc4:	bf18      	it	ne
    2dc6:	2000      	movne	r0, #0
    2dc8:	4770      	bx	lr
        return &infrared_protocol_variant_sirc;
    2dca:	4803      	ldr	r0, [pc, #12]	@ (2dd8 <infrared_protocol_sirc_get_variant+0x20>)
    2dcc:	4770      	bx	lr
        return &infrared_protocol_variant_sirc15;
    2dce:	4803      	ldr	r0, [pc, #12]	@ (2ddc <infrared_protocol_sirc_get_variant+0x24>)
    else
        return NULL;
}
    2dd0:	4770      	bx	lr
    2dd2:	bf00      	nop
    2dd4:	00000b74 	.word	0x00000b74
    2dd8:	00000b9c 	.word	0x00000b9c
    2ddc:	00000b88 	.word	0x00000b88

00002de0 <consume_samples>:
#include <core/check.h>
#include <core/common_defines.h>

static void infrared_common_decoder_reset_state(InfraredCommonDecoder* decoder);

static inline size_t consume_samples(uint32_t* array, size_t len, size_t shift) {
    2de0:	b510      	push	{r4, lr}
    2de2:	4603      	mov	r3, r0
    furi_assert(len >= shift);
    len -= shift;
    2de4:	1a88      	subs	r0, r1, r2
    for(size_t i = 0; i < len; ++i) {
    2de6:	eb03 0180 	add.w	r1, r3, r0, lsl #2
    2dea:	eb03 0282 	add.w	r2, r3, r2, lsl #2
    2dee:	428b      	cmp	r3, r1
    2df0:	d100      	bne.n	2df4 <consume_samples+0x14>
        array[i] = array[i + shift];
    }

    return len;
}
    2df2:	bd10      	pop	{r4, pc}
        array[i] = array[i + shift];
    2df4:	f852 4b04 	ldr.w	r4, [r2], #4
    2df8:	f843 4b04 	str.w	r4, [r3], #4
    for(size_t i = 0; i < len; ++i) {
    2dfc:	e7f7      	b.n	2dee <consume_samples+0xe>

00002dfe <accumulate_lsb>:

static inline void accumulate_lsb(InfraredCommonDecoder* decoder, bool bit) {
    uint16_t index = decoder->databit_cnt / 8;
    2dfe:	8e83      	ldrh	r3, [r0, #52]	@ 0x34
static inline void accumulate_lsb(InfraredCommonDecoder* decoder, bool bit) {
    2e00:	b530      	push	{r4, r5, lr}
    uint16_t index = decoder->databit_cnt / 8;
    2e02:	08da      	lsrs	r2, r3, #3
    uint8_t shift = decoder->databit_cnt % 8; // LSB first

    if(!shift) decoder->data[index] = 0;
    2e04:	f013 0507 	ands.w	r5, r3, #7
    2e08:	bf04      	itt	eq
    2e0a:	1884      	addeq	r4, r0, r2
    2e0c:	f884 5036 	strbeq.w	r5, [r4, #54]	@ 0x36

    if(bit) {
    2e10:	b139      	cbz	r1, 2e22 <accumulate_lsb+0x24>
        decoder->data[index] |= (0x1 << shift); // add 1
    2e12:	4402      	add	r2, r0
    2e14:	2401      	movs	r4, #1
    2e16:	f892 1036 	ldrb.w	r1, [r2, #54]	@ 0x36
    2e1a:	40ac      	lsls	r4, r5
    2e1c:	4321      	orrs	r1, r4
    2e1e:	f882 1036 	strb.w	r1, [r2, #54]	@ 0x36
    } else {
        (void)decoder->data[index]; // add 0
    }

    ++decoder->databit_cnt;
    2e22:	3301      	adds	r3, #1
    2e24:	8683      	strh	r3, [r0, #52]	@ 0x34
}
    2e26:	bd30      	pop	{r4, r5, pc}

00002e28 <infrared_common_decoder_reset_state>:
    furi_assert(decoder);
    free(decoder);
}

void infrared_common_decoder_reset_state(InfraredCommonDecoder* decoder) {
    decoder->state = InfraredCommonDecoderStateWaitPreamble;
    2e28:	2300      	movs	r3, #0
void infrared_common_decoder_reset_state(InfraredCommonDecoder* decoder) {
    2e2a:	b510      	push	{r4, lr}
    decoder->state = InfraredCommonDecoderStateWaitPreamble;
    2e2c:	f880 3030 	strb.w	r3, [r0, #48]	@ 0x30
    decoder->databit_cnt = 0;
    2e30:	8683      	strh	r3, [r0, #52]	@ 0x34
    decoder->switch_detect = false;
    2e32:	f880 3032 	strb.w	r3, [r0, #50]	@ 0x32
    decoder->message.protocol = InfraredProtocolUnknown;
    2e36:	23ff      	movs	r3, #255	@ 0xff
    2e38:	f880 3020 	strb.w	r3, [r0, #32]
    if(decoder->protocol->timings.preamble_mark == 0) {
    2e3c:	6803      	ldr	r3, [r0, #0]
    2e3e:	891b      	ldrh	r3, [r3, #8]
void infrared_common_decoder_reset_state(InfraredCommonDecoder* decoder) {
    2e40:	4604      	mov	r4, r0
    if(decoder->protocol->timings.preamble_mark == 0) {
    2e42:	b943      	cbnz	r3, 2e56 <infrared_common_decoder_reset_state+0x2e>
        if(decoder->timings_cnt > 0) {
    2e44:	f890 1031 	ldrb.w	r1, [r0, #49]	@ 0x31
    2e48:	b129      	cbz	r1, 2e56 <infrared_common_decoder_reset_state+0x2e>
            decoder->timings_cnt = consume_samples(decoder->timings, decoder->timings_cnt, 1);
    2e4a:	2201      	movs	r2, #1
    2e4c:	3008      	adds	r0, #8
    2e4e:	f7ff fffe 	bl	2de0 <consume_samples>
    2e52:	f884 0031 	strb.w	r0, [r4, #49]	@ 0x31
        }
    }
}
    2e56:	bd10      	pop	{r4, pc}

00002e58 <infrared_common_decode_pdwm>:
    infrared_common_decode_pdwm(InfraredCommonDecoder* decoder, bool level, uint32_t timing) {
    2e58:	b5f8      	push	{r3, r4, r5, r6, r7, lr}
    uint32_t bit_tolerance = decoder->protocol->timings.bit_tolerance;
    2e5a:	6806      	ldr	r6, [r0, #0]
    2e5c:	69b5      	ldr	r5, [r6, #24]
    uint16_t bit1_mark = decoder->protocol->timings.bit1_mark;
    2e5e:	89b3      	ldrh	r3, [r6, #12]
    uint16_t bit1_space = decoder->protocol->timings.bit1_space;
    2e60:	89f4      	ldrh	r4, [r6, #14]
    uint16_t bit0_mark = decoder->protocol->timings.bit0_mark;
    2e62:	8a37      	ldrh	r7, [r6, #16]
    uint16_t bit0_space = decoder->protocol->timings.bit0_space;
    2e64:	8a76      	ldrh	r6, [r6, #18]
    uint16_t bit1 = level ? bit1_mark : bit1_space;
    2e66:	b1c1      	cbz	r1, 2e9a <infrared_common_decode_pdwm+0x42>
    uint16_t no_info_timing = (bit1_mark == bit0_mark) ? bit1_mark : bit1_space;
    2e68:	42bb      	cmp	r3, r7
    2e6a:	d019      	beq.n	2ea0 <infrared_common_decode_pdwm+0x48>
    uint16_t bit0 = level ? bit0_mark : bit0_space;
    2e6c:	463e      	mov	r6, r7
    uint16_t bit1_mark = decoder->protocol->timings.bit1_mark;
    2e6e:	461c      	mov	r4, r3
        if(MATCH_TIMING(timing, bit1, bit_tolerance)) {
    2e70:	1963      	adds	r3, r4, r5
    2e72:	4293      	cmp	r3, r2
    2e74:	d907      	bls.n	2e86 <infrared_common_decode_pdwm+0x2e>
    2e76:	1b64      	subs	r4, r4, r5
    2e78:	4294      	cmp	r4, r2
    2e7a:	d204      	bcs.n	2e86 <infrared_common_decode_pdwm+0x2e>
            accumulate_lsb(decoder, 1);
    2e7c:	2101      	movs	r1, #1
    2e7e:	f7ff fffe 	bl	2dfe <accumulate_lsb>
    InfraredStatus status = InfraredStatusOk;
    2e82:	2001      	movs	r0, #1
}
    2e84:	bdf8      	pop	{r3, r4, r5, r6, r7, pc}
        } else if(MATCH_TIMING(timing, bit0, bit_tolerance)) {
    2e86:	1973      	adds	r3, r6, r5
    2e88:	4293      	cmp	r3, r2
    2e8a:	d904      	bls.n	2e96 <infrared_common_decode_pdwm+0x3e>
    2e8c:	1b76      	subs	r6, r6, r5
    2e8e:	4296      	cmp	r6, r2
    2e90:	d201      	bcs.n	2e96 <infrared_common_decode_pdwm+0x3e>
            accumulate_lsb(decoder, 0);
    2e92:	2100      	movs	r1, #0
    2e94:	e7f3      	b.n	2e7e <infrared_common_decode_pdwm+0x26>
            status = InfraredStatusError;
    2e96:	2000      	movs	r0, #0
    return status;
    2e98:	e7f4      	b.n	2e84 <infrared_common_decode_pdwm+0x2c>
    uint16_t no_info_timing = (bit1_mark == bit0_mark) ? bit1_mark : bit1_space;
    2e9a:	42bb      	cmp	r3, r7
    2e9c:	d0e8      	beq.n	2e70 <infrared_common_decode_pdwm+0x18>
    2e9e:	4623      	mov	r3, r4
        if(!MATCH_TIMING(timing, no_info_timing, bit_tolerance)) {
    2ea0:	1959      	adds	r1, r3, r5
    2ea2:	4291      	cmp	r1, r2
    2ea4:	d9f7      	bls.n	2e96 <infrared_common_decode_pdwm+0x3e>
    2ea6:	1b58      	subs	r0, r3, r5
    2ea8:	4290      	cmp	r0, r2
    2eaa:	bf2c      	ite	cs
    2eac:	2000      	movcs	r0, #0
    2eae:	2001      	movcc	r0, #1
    2eb0:	e7e8      	b.n	2e84 <infrared_common_decode_pdwm+0x2c>

00002eb2 <infrared_common_decode_manchester>:
    infrared_common_decode_manchester(InfraredCommonDecoder* decoder, bool level, uint32_t timing) {
    2eb2:	b5f8      	push	{r3, r4, r5, r6, r7, lr}
    uint32_t bit = decoder->protocol->timings.bit1_mark;
    2eb4:	6807      	ldr	r7, [r0, #0]
    infrared_common_decode_manchester(InfraredCommonDecoder* decoder, bool level, uint32_t timing) {
    2eb6:	460e      	mov	r6, r1
    uint32_t bit = decoder->protocol->timings.bit1_mark;
    2eb8:	89bd      	ldrh	r5, [r7, #12]
    uint32_t tolerance = decoder->protocol->timings.bit_tolerance;
    2eba:	69b9      	ldr	r1, [r7, #24]
    bool single_timing = MATCH_TIMING(timing, bit, tolerance);
    2ebc:	eb05 0e01 	add.w	lr, r5, r1
    2ec0:	4596      	cmp	lr, r2
    infrared_common_decode_manchester(InfraredCommonDecoder* decoder, bool level, uint32_t timing) {
    2ec2:	4604      	mov	r4, r0
    bool double_timing = MATCH_TIMING(timing, 2 * bit, tolerance);
    2ec4:	ea4f 0345 	mov.w	r3, r5, lsl #1
    2ec8:	eb01 0c45 	add.w	ip, r1, r5, lsl #1
    bool single_timing = MATCH_TIMING(timing, bit, tolerance);
    2ecc:	d90f      	bls.n	2eee <infrared_common_decode_manchester+0x3c>
    2ece:	1a6d      	subs	r5, r5, r1
    2ed0:	4295      	cmp	r5, r2
    2ed2:	d20c      	bcs.n	2eee <infrared_common_decode_manchester+0x3c>
    bool double_timing = MATCH_TIMING(timing, 2 * bit, tolerance);
    2ed4:	4562      	cmp	r2, ip
    if(decoder->protocol->manchester_start_from_space && (decoder->databit_cnt == 0)) {
    2ed6:	7f3d      	ldrb	r5, [r7, #28]
    bool double_timing = MATCH_TIMING(timing, 2 * bit, tolerance);
    2ed8:	d30d      	bcc.n	2ef6 <infrared_common_decode_manchester+0x44>
    if(decoder->protocol->manchester_start_from_space && (decoder->databit_cnt == 0)) {
    2eda:	bb3d      	cbnz	r5, 2f2c <infrared_common_decode_manchester+0x7a>
    if(*switch_detect == 0) {
    2edc:	f894 3032 	ldrb.w	r3, [r4, #50]	@ 0x32
    2ee0:	2b00      	cmp	r3, #0
    2ee2:	d037      	beq.n	2f54 <infrared_common_decode_manchester+0xa2>
        if(single_timing) *switch_detect = 0;
    2ee4:	2300      	movs	r3, #0
    2ee6:	f884 3032 	strb.w	r3, [r4, #50]	@ 0x32
    return InfraredStatusOk;
    2eea:	2001      	movs	r0, #1
}
    2eec:	bdf8      	pop	{r3, r4, r5, r6, r7, pc}
    bool double_timing = MATCH_TIMING(timing, 2 * bit, tolerance);
    2eee:	4562      	cmp	r2, ip
    2ef0:	d30a      	bcc.n	2f08 <infrared_common_decode_manchester+0x56>
        return InfraredStatusError;
    2ef2:	2000      	movs	r0, #0
    2ef4:	e7fa      	b.n	2eec <infrared_common_decode_manchester+0x3a>
    bool double_timing = MATCH_TIMING(timing, 2 * bit, tolerance);
    2ef6:	1a5b      	subs	r3, r3, r1
    2ef8:	429a      	cmp	r2, r3
    2efa:	d9ee      	bls.n	2eda <infrared_common_decode_manchester+0x28>
    if(decoder->protocol->manchester_start_from_space && (decoder->databit_cnt == 0)) {
    2efc:	b9e5      	cbnz	r5, 2f38 <infrared_common_decode_manchester+0x86>
    if(*switch_detect == 0) {
    2efe:	f894 3032 	ldrb.w	r3, [r4, #50]	@ 0x32
    2f02:	2b00      	cmp	r3, #0
    2f04:	d0f5      	beq.n	2ef2 <infrared_common_decode_manchester+0x40>
    2f06:	e7ed      	b.n	2ee4 <infrared_common_decode_manchester+0x32>
    bool double_timing = MATCH_TIMING(timing, 2 * bit, tolerance);
    2f08:	1a5b      	subs	r3, r3, r1
    2f0a:	429a      	cmp	r2, r3
    2f0c:	d9f1      	bls.n	2ef2 <infrared_common_decode_manchester+0x40>
    if(decoder->protocol->manchester_start_from_space && (decoder->databit_cnt == 0)) {
    2f0e:	7f3b      	ldrb	r3, [r7, #28]
    2f10:	b9b3      	cbnz	r3, 2f40 <infrared_common_decode_manchester+0x8e>
    if(*switch_detect == 0) {
    2f12:	f894 3032 	ldrb.w	r3, [r4, #50]	@ 0x32
    2f16:	2b00      	cmp	r3, #0
    2f18:	d0eb      	beq.n	2ef2 <infrared_common_decode_manchester+0x40>
        if(decoder->protocol->databit_len[0] == decoder->databit_cnt) {
    2f1a:	7f7a      	ldrb	r2, [r7, #29]
    2f1c:	8ea3      	ldrh	r3, [r4, #52]	@ 0x34
    2f1e:	429a      	cmp	r2, r3
    2f20:	d0e7      	beq.n	2ef2 <infrared_common_decode_manchester+0x40>
        accumulate_lsb(decoder, level);
    2f22:	4631      	mov	r1, r6
    2f24:	4620      	mov	r0, r4
    2f26:	f7ff fffe 	bl	2dfe <accumulate_lsb>
    2f2a:	e7de      	b.n	2eea <infrared_common_decode_manchester+0x38>
    if(decoder->protocol->manchester_start_from_space && (decoder->databit_cnt == 0)) {
    2f2c:	8ea1      	ldrh	r1, [r4, #52]	@ 0x34
    2f2e:	2900      	cmp	r1, #0
    2f30:	d1d4      	bne.n	2edc <infrared_common_decode_manchester+0x2a>
        accumulate_lsb(decoder, 0);
    2f32:	f7ff fffe 	bl	2dfe <accumulate_lsb>
        if(single_timing) *switch_detect = 0;
    2f36:	e7d5      	b.n	2ee4 <infrared_common_decode_manchester+0x32>
    if(decoder->protocol->manchester_start_from_space && (decoder->databit_cnt == 0)) {
    2f38:	8e81      	ldrh	r1, [r0, #52]	@ 0x34
    2f3a:	2900      	cmp	r1, #0
    2f3c:	d1df      	bne.n	2efe <infrared_common_decode_manchester+0x4c>
    2f3e:	e7f8      	b.n	2f32 <infrared_common_decode_manchester+0x80>
    2f40:	8ea1      	ldrh	r1, [r4, #52]	@ 0x34
    2f42:	2900      	cmp	r1, #0
    2f44:	d1e5      	bne.n	2f12 <infrared_common_decode_manchester+0x60>
        *switch_detect = 1; /* fake as we were previously in the middle of time-quant */
    2f46:	2301      	movs	r3, #1
    2f48:	f884 3032 	strb.w	r3, [r4, #50]	@ 0x32
        accumulate_lsb(decoder, 0);
    2f4c:	4620      	mov	r0, r4
    2f4e:	f7ff fffe 	bl	2dfe <accumulate_lsb>
        if(single_timing) *switch_detect = 0;
    2f52:	e7e2      	b.n	2f1a <infrared_common_decode_manchester+0x68>
        *switch_detect = 1;
    2f54:	2301      	movs	r3, #1
    2f56:	f884 3032 	strb.w	r3, [r4, #50]	@ 0x32
    2f5a:	e7de      	b.n	2f1a <infrared_common_decode_manchester+0x68>

00002f5c <infrared_common_decoder_check_ready>:
InfraredMessage* infrared_common_decoder_check_ready(InfraredCommonDecoder* decoder) {
    2f5c:	b538      	push	{r3, r4, r5, lr}
        i < COUNT_OF(decoder->protocol->databit_len) && decoder->protocol->databit_len[i];
    2f5e:	6803      	ldr	r3, [r0, #0]
InfraredMessage* infrared_common_decoder_check_ready(InfraredCommonDecoder* decoder) {
    2f60:	4604      	mov	r4, r0
    2f62:	f103 021c 	add.w	r2, r3, #28
    2f66:	f103 0020 	add.w	r0, r3, #32
        i < COUNT_OF(decoder->protocol->databit_len) && decoder->protocol->databit_len[i];
    2f6a:	f812 1f01 	ldrb.w	r1, [r2, #1]!
    2f6e:	b121      	cbz	r1, 2f7a <infrared_common_decoder_check_ready+0x1e>
        if(decoder->protocol->databit_len[i] == decoder->databit_cnt) {
    2f70:	8ea5      	ldrh	r5, [r4, #52]	@ 0x34
    2f72:	428d      	cmp	r5, r1
    2f74:	d003      	beq.n	2f7e <infrared_common_decoder_check_ready+0x22>
        i < COUNT_OF(decoder->protocol->databit_len) && decoder->protocol->databit_len[i];
    2f76:	4282      	cmp	r2, r0
    2f78:	d1f7      	bne.n	2f6a <infrared_common_decoder_check_ready+0xe>
    InfraredMessage* message = NULL;
    2f7a:	2000      	movs	r0, #0
}
    2f7c:	bd38      	pop	{r3, r4, r5, pc}
    if(found_length && decoder->protocol->interpret(decoder)) {
    2f7e:	6adb      	ldr	r3, [r3, #44]	@ 0x2c
    2f80:	4620      	mov	r0, r4
    2f82:	4798      	blx	r3
    2f84:	2800      	cmp	r0, #0
    2f86:	d0f8      	beq.n	2f7a <infrared_common_decoder_check_ready+0x1e>
        message = &decoder->message;
    2f88:	4620      	mov	r0, r4
        decoder->databit_cnt = 0;
    2f8a:	2300      	movs	r3, #0
    2f8c:	86a3      	strh	r3, [r4, #52]	@ 0x34
        if(decoder->protocol->decode_repeat) {
    2f8e:	f850 3b20 	ldr.w	r3, [r0], #32
    2f92:	6a9b      	ldr	r3, [r3, #40]	@ 0x28
    2f94:	3b00      	subs	r3, #0
    2f96:	bf18      	it	ne
    2f98:	2301      	movne	r3, #1
    2f9a:	005b      	lsls	r3, r3, #1
            decoder->state = InfraredCommonDecoderStateWaitPreamble;
    2f9c:	f884 3030 	strb.w	r3, [r4, #48]	@ 0x30
    return message;
    2fa0:	e7ec      	b.n	2f7c <infrared_common_decoder_check_ready+0x20>

00002fa2 <infrared_common_decoder_alloc>:
void* infrared_common_decoder_alloc(const InfraredCommonProtocolSpec* protocol) {
    2fa2:	b510      	push	{r4, lr}
    uint32_t alloc_size = sizeof(InfraredCommonDecoder) + protocol->databit_len[0] / 8 +
    2fa4:	7f42      	ldrb	r2, [r0, #29]
                          !!(protocol->databit_len[0] % 8);
    2fa6:	f012 0307 	ands.w	r3, r2, #7
    2faa:	bf18      	it	ne
    2fac:	2301      	movne	r3, #1
    uint32_t alloc_size = sizeof(InfraredCommonDecoder) + protocol->databit_len[0] / 8 +
    2fae:	eb03 03d2 	add.w	r3, r3, r2, lsr #3
void* infrared_common_decoder_alloc(const InfraredCommonProtocolSpec* protocol) {
    2fb2:	4604      	mov	r4, r0
    InfraredCommonDecoder* decoder = malloc(alloc_size);
    2fb4:	f103 0038 	add.w	r0, r3, #56	@ 0x38
    2fb8:	f7ff fffe 	bl	0 <malloc>
    decoder->level = true;
    2fbc:	2201      	movs	r2, #1
    decoder->protocol = protocol;
    2fbe:	6004      	str	r4, [r0, #0]
    decoder->level = true;
    2fc0:	f880 2033 	strb.w	r2, [r0, #51]	@ 0x33
}
    2fc4:	bd10      	pop	{r4, pc}

00002fc6 <infrared_common_decoder_free>:
    free(decoder);
    2fc6:	f7ff bffe 	b.w	0 <free>

00002fca <infrared_common_decoder_reset>:

void infrared_common_decoder_reset(InfraredCommonDecoder* decoder) {
    2fca:	b510      	push	{r4, lr}
    2fcc:	4604      	mov	r4, r0
    furi_assert(decoder);

    infrared_common_decoder_reset_state(decoder);
    2fce:	f7ff fffe 	bl	2e28 <infrared_common_decoder_reset_state>
    decoder->timings_cnt = 0;
    2fd2:	2300      	movs	r3, #0
    2fd4:	f884 3031 	strb.w	r3, [r4, #49]	@ 0x31
}
    2fd8:	bd10      	pop	{r4, pc}

00002fda <infrared_common_decode>:
    infrared_common_decode(InfraredCommonDecoder* decoder, bool level, uint32_t duration) {
    2fda:	e92d 4ff8 	stmdb	sp!, {r3, r4, r5, r6, r7, r8, r9, sl, fp, lr}
    if(decoder->level == level) {
    2fde:	f890 3033 	ldrb.w	r3, [r0, #51]	@ 0x33
    2fe2:	428b      	cmp	r3, r1
    infrared_common_decode(InfraredCommonDecoder* decoder, bool level, uint32_t duration) {
    2fe4:	4604      	mov	r4, r0
    2fe6:	460d      	mov	r5, r1
    2fe8:	4616      	mov	r6, r2
    if(decoder->level == level) {
    2fea:	d101      	bne.n	2ff0 <infrared_common_decode+0x16>
        infrared_common_decoder_reset(decoder);
    2fec:	f7ff fffe 	bl	2fca <infrared_common_decoder_reset>
    decoder->timings[decoder->timings_cnt] = duration;
    2ff0:	f894 3031 	ldrb.w	r3, [r4, #49]	@ 0x31
    decoder->level = level; // start with low level (Space timing)
    2ff4:	f884 5033 	strb.w	r5, [r4, #51]	@ 0x33
    decoder->timings[decoder->timings_cnt] = duration;
    2ff8:	1c9a      	adds	r2, r3, #2
    decoder->timings_cnt++;
    2ffa:	3301      	adds	r3, #1
    2ffc:	b2db      	uxtb	r3, r3
    furi_check(decoder->timings_cnt <= sizeof(decoder->timings));
    2ffe:	2b18      	cmp	r3, #24
    decoder->timings[decoder->timings_cnt] = duration;
    3000:	f844 6022 	str.w	r6, [r4, r2, lsl #2]
    decoder->timings_cnt++;
    3004:	f884 3031 	strb.w	r3, [r4, #49]	@ 0x31
    furi_check(decoder->timings_cnt <= sizeof(decoder->timings));
    3008:	d903      	bls.n	3012 <sukima861+0x4>
        furi_check(decoder->databit_cnt <= decoder->protocol->databit_len[0]);
    300a:	f04f 0c02 	mov.w	ip, #2

0000300e <sukima861>:
    300e:	f7ff fffe 	bl	0 <__furi_crash_implementation>
    InfraredMessage* message = 0;
    3012:	2600      	movs	r6, #0
        switch(decoder->state) {
    3014:	f894 5030 	ldrb.w	r5, [r4, #48]	@ 0x30
    3018:	2d01      	cmp	r5, #1
    301a:	d067      	beq.n	30ec <sukima861+0xde>
    301c:	2d02      	cmp	r5, #2
    301e:	f000 80c7 	beq.w	31b0 <sukima861+0x1a2>
    3022:	b9d5      	cbnz	r5, 305a <sukima861+0x4c>
    bool start_level = (decoder->level + decoder->timings_cnt + 1) % 2;
    3024:	f894 1031 	ldrb.w	r1, [r4, #49]	@ 0x31
    3028:	f894 3033 	ldrb.w	r3, [r4, #51]	@ 0x33
    if(decoder->timings_cnt == 0) return false;
    302c:	b1a9      	cbz	r1, 305a <sukima861+0x4c>
    bool start_level = (decoder->level + decoder->timings_cnt + 1) % 2;
    302e:	440b      	add	r3, r1
    if(!start_level) {
    3030:	07db      	lsls	r3, r3, #31
    3032:	d506      	bpl.n	3042 <sukima861+0x34>
        decoder->timings_cnt = consume_samples(decoder->timings, decoder->timings_cnt, 1);
    3034:	2201      	movs	r2, #1
    3036:	f104 0008 	add.w	r0, r4, #8
    303a:	f7ff fffe 	bl	2de0 <consume_samples>
    303e:	f884 0031 	strb.w	r0, [r4, #49]	@ 0x31
    if(decoder->protocol->timings.preamble_mark == 0) {
    3042:	6827      	ldr	r7, [r4, #0]
    3044:	f8b7 8008 	ldrh.w	r8, [r7, #8]
    3048:	f1b8 0f00 	cmp.w	r8, #0
    304c:	d046      	beq.n	30dc <sukima861+0xce>
    304e:	f104 0508 	add.w	r5, r4, #8
    while((!result) && (decoder->timings_cnt >= 2)) {
    3052:	f894 1031 	ldrb.w	r1, [r4, #49]	@ 0x31
    3056:	2901      	cmp	r1, #1
    3058:	d802      	bhi.n	3060 <sukima861+0x52>
}
    305a:	4630      	mov	r0, r6
    305c:	e8bd 8ff8 	ldmia.w	sp!, {r3, r4, r5, r6, r7, r8, r9, sl, fp, pc}
        if((MATCH_TIMING(decoder->timings[0], preamble_mark, preamble_tolerance)) &&
    3060:	edd4 6a02 	vldr	s13, [r4, #8]
        float preamble_tolerance = decoder->protocol->timings.preamble_tolerance;
    3064:	edd7 7a05 	vldr	s15, [r7, #20]
        uint16_t preamble_space = decoder->protocol->timings.preamble_space;
    3068:	897b      	ldrh	r3, [r7, #10]
        if((MATCH_TIMING(decoder->timings[0], preamble_mark, preamble_tolerance)) &&
    306a:	eeb8 6a66 	vcvt.f32.u32	s12, s13
    306e:	ee06 8a90 	vmov	s13, r8
        float preamble_tolerance = decoder->protocol->timings.preamble_tolerance;
    3072:	eeb8 7a67 	vcvt.f32.u32	s14, s15
        if((MATCH_TIMING(decoder->timings[0], preamble_mark, preamble_tolerance)) &&
    3076:	eef8 6ae6 	vcvt.f32.s32	s13, s13
        uint16_t preamble_space = decoder->protocol->timings.preamble_space;
    307a:	ee07 3a90 	vmov	s15, r3
        if((MATCH_TIMING(decoder->timings[0], preamble_mark, preamble_tolerance)) &&
    307e:	ee77 5a26 	vadd.f32	s11, s14, s13
    3082:	eeb4 6ae5 	vcmpe.f32	s12, s11
    3086:	eef1 fa10 	vmrs	APSR_nzcv, fpscr
    308a:	d406      	bmi.n	309a <sukima861+0x8c>
        decoder->timings_cnt = consume_samples(decoder->timings, decoder->timings_cnt, 2);
    308c:	2202      	movs	r2, #2
    308e:	4628      	mov	r0, r5
    3090:	f7ff fffe 	bl	2de0 <consume_samples>
    3094:	f884 0031 	strb.w	r0, [r4, #49]	@ 0x31
    while((!result) && (decoder->timings_cnt >= 2)) {
    3098:	e7db      	b.n	3052 <sukima861+0x44>
        if((MATCH_TIMING(decoder->timings[0], preamble_mark, preamble_tolerance)) &&
    309a:	ee76 6ac7 	vsub.f32	s13, s13, s14
    309e:	eeb4 6ae6 	vcmpe.f32	s12, s13
    30a2:	eef1 fa10 	vmrs	APSR_nzcv, fpscr
    30a6:	ddf1      	ble.n	308c <sukima861+0x7e>
           (MATCH_TIMING(decoder->timings[1], preamble_space, preamble_tolerance))) {
    30a8:	edd4 6a03 	vldr	s13, [r4, #12]
    30ac:	eef8 7ae7 	vcvt.f32.s32	s15, s15
    30b0:	eef8 6a66 	vcvt.f32.u32	s13, s13
    30b4:	ee37 6a27 	vadd.f32	s12, s14, s15
        if((MATCH_TIMING(decoder->timings[0], preamble_mark, preamble_tolerance)) &&
    30b8:	eef4 6ac6 	vcmpe.f32	s13, s12
    30bc:	eef1 fa10 	vmrs	APSR_nzcv, fpscr
    30c0:	d5e4      	bpl.n	308c <sukima861+0x7e>
           (MATCH_TIMING(decoder->timings[1], preamble_space, preamble_tolerance))) {
    30c2:	ee77 7ac7 	vsub.f32	s15, s15, s14
        decoder->timings_cnt = consume_samples(decoder->timings, decoder->timings_cnt, 2);
    30c6:	2202      	movs	r2, #2
    30c8:	4628      	mov	r0, r5
    30ca:	f7ff fffe 	bl	2de0 <consume_samples>
    while((!result) && (decoder->timings_cnt >= 2)) {
    30ce:	eef4 6ae7 	vcmpe.f32	s13, s15
    30d2:	eef1 fa10 	vmrs	APSR_nzcv, fpscr
        decoder->timings_cnt = consume_samples(decoder->timings, decoder->timings_cnt, 2);
    30d6:	f884 0031 	strb.w	r0, [r4, #49]	@ 0x31
    while((!result) && (decoder->timings_cnt >= 2)) {
    30da:	ddba      	ble.n	3052 <sukima861+0x44>
                decoder->state = InfraredCommonDecoderStateDecode;
    30dc:	2301      	movs	r3, #1
    30de:	f884 3030 	strb.w	r3, [r4, #48]	@ 0x30
                decoder->databit_cnt = 0;
    30e2:	2300      	movs	r3, #0
    30e4:	86a3      	strh	r3, [r4, #52]	@ 0x34
                decoder->switch_detect = false;
    30e6:	f884 3032 	strb.w	r3, [r4, #50]	@ 0x32
                continue;
    30ea:	e793      	b.n	3014 <sukima861+0x6>
    const InfraredTimings* timings = &decoder->protocol->timings;
    30ec:	4627      	mov	r7, r4
    30ee:	f857 8b08 	ldr.w	r8, [r7], #8
    while(decoder->timings_cnt && (status == InfraredStatusOk)) {
    30f2:	f894 3031 	ldrb.w	r3, [r4, #49]	@ 0x31
    30f6:	b10b      	cbz	r3, 30fc <sukima861+0xee>
    30f8:	2d01      	cmp	r5, #1
    30fa:	d002      	beq.n	3102 <sukima861+0xf4>
            if(status == InfraredStatusReady) {
    30fc:	2d03      	cmp	r5, #3
    30fe:	d1ac      	bne.n	305a <sukima861+0x4c>
    3100:	e03f      	b.n	3182 <sukima861+0x174>
        bool level = (decoder->level + decoder->timings_cnt + 1) % 2;
    3102:	f894 1033 	ldrb.w	r1, [r4, #51]	@ 0x33
        if(timings->min_split_time && !level) {
    3106:	f8d8 0000 	ldr.w	r0, [r8]
        uint32_t timing = decoder->timings[0];
    310a:	68a2      	ldr	r2, [r4, #8]
        bool level = (decoder->level + decoder->timings_cnt + 1) % 2;
    310c:	4419      	add	r1, r3
    310e:	3101      	adds	r1, #1
    3110:	f001 0901 	and.w	r9, r1, #1
            } else if(decoder->protocol->databit_len[0] == decoder->databit_cnt) {
    3114:	6823      	ldr	r3, [r4, #0]
        bool level = (decoder->level + decoder->timings_cnt + 1) % 2;
    3116:	4649      	mov	r1, r9
        if(timings->min_split_time && !level) {
    3118:	b190      	cbz	r0, 3140 <sukima861+0x132>
    311a:	f1b9 0f00 	cmp.w	r9, #0
    311e:	d10f      	bne.n	3140 <sukima861+0x132>
            if(timing > timings->min_split_time) {
    3120:	4282      	cmp	r2, r0
            } else if(decoder->protocol->databit_len[0] == decoder->databit_cnt) {
    3122:	7f5d      	ldrb	r5, [r3, #29]
            if(timing > timings->min_split_time) {
    3124:	d93d      	bls.n	31a2 <sukima861+0x194>
    3126:	f103 001c 	add.w	r0, r3, #28
    312a:	f103 0c20 	add.w	ip, r3, #32
                                  decoder->protocol->databit_len[i];
    312e:	f810 5f01 	ldrb.w	r5, [r0, #1]!
                for(size_t i = 0; i < COUNT_OF(decoder->protocol->databit_len) &&
    3132:	b12d      	cbz	r5, 3140 <sukima861+0x132>
                    if(decoder->protocol->databit_len[i] == decoder->databit_cnt) {
    3134:	f8b4 e034 	ldrh.w	lr, [r4, #52]	@ 0x34
    3138:	45ae      	cmp	lr, r5
    313a:	d022      	beq.n	3182 <sukima861+0x174>
                for(size_t i = 0; i < COUNT_OF(decoder->protocol->databit_len) &&
    313c:	4560      	cmp	r0, ip
    313e:	d1f6      	bne.n	312e <sukima861+0x120>
        status = decoder->protocol->decode(decoder, level, timing);
    3140:	6a5b      	ldr	r3, [r3, #36]	@ 0x24
    3142:	4620      	mov	r0, r4
    3144:	4798      	blx	r3
        furi_check(decoder->databit_cnt <= decoder->protocol->databit_len[0]);
    3146:	f8d4 b000 	ldr.w	fp, [r4]
    314a:	f8b4 a034 	ldrh.w	sl, [r4, #52]	@ 0x34
    314e:	f89b 301d 	ldrb.w	r3, [fp, #29]
    3152:	4553      	cmp	r3, sl
        status = decoder->protocol->decode(decoder, level, timing);
    3154:	4605      	mov	r5, r0
        furi_check(decoder->databit_cnt <= decoder->protocol->databit_len[0]);
    3156:	f4ff af58 	bcc.w	300a <infrared_common_decode+0x30>
        if(status == InfraredStatusError) {
    315a:	b328      	cbz	r0, 31a8 <sukima861+0x19a>
        decoder->timings_cnt = consume_samples(decoder->timings, decoder->timings_cnt, 1);
    315c:	f894 1031 	ldrb.w	r1, [r4, #49]	@ 0x31
    3160:	2201      	movs	r2, #1
    3162:	4638      	mov	r0, r7
    3164:	f7ff fffe 	bl	2de0 <consume_samples>
    3168:	f884 0031 	strb.w	r0, [r4, #49]	@ 0x31
        if(level && (decoder->protocol->databit_len[0] == decoder->databit_cnt) && //-V1051
    316c:	f1b9 0f00 	cmp.w	r9, #0
    3170:	d0bf      	beq.n	30f2 <sukima861+0xe4>
    3172:	f89b 301d 	ldrb.w	r3, [fp, #29]
    3176:	4553      	cmp	r3, sl
    3178:	d1bb      	bne.n	30f2 <sukima861+0xe4>
    317a:	f8d8 3000 	ldr.w	r3, [r8]
    317e:	2b00      	cmp	r3, #0
    3180:	d1b7      	bne.n	30f2 <sukima861+0xe4>
                message = infrared_common_decoder_check_ready(decoder);
    3182:	4620      	mov	r0, r4
    3184:	f7ff fffe 	bl	2f5c <infrared_common_decoder_check_ready>
                if(message) {
    3188:	4606      	mov	r6, r0
    318a:	2800      	cmp	r0, #0
    318c:	f47f af42 	bne.w	3014 <sukima861+0x6>
                } else if(decoder->protocol->databit_len[0] == decoder->databit_cnt) {
    3190:	6823      	ldr	r3, [r4, #0]
    3192:	7f5a      	ldrb	r2, [r3, #29]
    3194:	8ea3      	ldrh	r3, [r4, #52]	@ 0x34
    3196:	429a      	cmp	r2, r3
    3198:	f47f af5f 	bne.w	305a <sukima861+0x4c>
                    decoder->state = InfraredCommonDecoderStateWaitPreamble;
    319c:	f884 0030 	strb.w	r0, [r4, #48]	@ 0x30
    31a0:	e75b      	b.n	305a <sukima861+0x4c>
            } else if(decoder->protocol->databit_len[0] == decoder->databit_cnt) {
    31a2:	8ea0      	ldrh	r0, [r4, #52]	@ 0x34
    31a4:	42a8      	cmp	r0, r5
    31a6:	d1cb      	bne.n	3140 <sukima861+0x132>
                infrared_common_decoder_reset_state(decoder);
    31a8:	4620      	mov	r0, r4
    31aa:	f7ff fffe 	bl	2e28 <infrared_common_decoder_reset_state>
                continue;
    31ae:	e731      	b.n	3014 <sukima861+0x6>
            status = decoder->protocol->decode_repeat(decoder);
    31b0:	6823      	ldr	r3, [r4, #0]
    31b2:	4620      	mov	r0, r4
    31b4:	6a9b      	ldr	r3, [r3, #40]	@ 0x28
    31b6:	4798      	blx	r3
            if(status == InfraredStatusError) {
    31b8:	2800      	cmp	r0, #0
    31ba:	d0f5      	beq.n	31a8 <sukima861+0x19a>
            } else if(status == InfraredStatusReady) {
    31bc:	2803      	cmp	r0, #3
    31be:	f47f af4c 	bne.w	305a <sukima861+0x4c>
                decoder->message.repeat = true;
    31c2:	2301      	movs	r3, #1
    31c4:	f884 302c 	strb.w	r3, [r4, #44]	@ 0x2c
                message = &decoder->message;
    31c8:	f104 0620 	add.w	r6, r4, #32
    return message;
    31cc:	e745      	b.n	305a <sukima861+0x4c>

000031ce <infrared_common_encode_manchester>:
 * _____-------_____---___
*/
InfraredStatus infrared_common_encode_manchester(
    InfraredCommonEncoder* encoder,
    uint32_t* duration,
    bool* level) {
    31ce:	b5f0      	push	{r4, r5, r6, r7, lr}
    furi_assert(encoder);
    furi_assert(duration);
    furi_assert(level);

    const InfraredTimings* timings = &encoder->protocol->timings;
    uint8_t index = encoder->bits_encoded / 8;
    31d0:	79c3      	ldrb	r3, [r0, #7]
    const InfraredTimings* timings = &encoder->protocol->timings;
    31d2:	6807      	ldr	r7, [r0, #0]
    uint8_t shift = encoder->bits_encoded % 8; // LSB first
    bool logic_value = !!(encoder->data[index] & (0x01 << shift));
    31d4:	eb00 04d3 	add.w	r4, r0, r3, lsr #3
    31d8:	f003 0507 	and.w	r5, r3, #7
    31dc:	7d24      	ldrb	r4, [r4, #20]
    31de:	412c      	asrs	r4, r5
    bool even_timing = !(encoder->timings_encoded % 2);
    31e0:	68c5      	ldr	r5, [r0, #12]
    31e2:	f005 0501 	and.w	r5, r5, #1
    bool logic_value = !!(encoder->data[index] & (0x01 << shift));
    31e6:	f004 0401 	and.w	r4, r4, #1
    bool even_timing = !(encoder->timings_encoded % 2);
    31ea:	f085 0601 	eor.w	r6, r5, #1

    *level = even_timing ^ logic_value;
    31ee:	ea84 0c06 	eor.w	ip, r4, r6
    31f2:	f882 c000 	strb.w	ip, [r2]
    *duration = timings->bit1_mark;
    31f6:	89ba      	ldrh	r2, [r7, #12]
    31f8:	600a      	str	r2, [r1, #0]
    if(even_timing)
    31fa:	b915      	cbnz	r5, 3202 <infrared_common_encode_manchester+0x34>
        ++encoder->bits_encoded;
    31fc:	3301      	adds	r3, #1
    else if(*level && (encoder->bits_encoded + 1 == encoder->bits_to_encode))
        ++encoder->bits_encoded; /* don't encode last space */
    31fe:	71c3      	strb	r3, [r0, #7]
    3200:	e005      	b.n	320e <infrared_common_encode_manchester+0x40>
    else if(*level && (encoder->bits_encoded + 1 == encoder->bits_to_encode))
    3202:	42b4      	cmp	r4, r6
    3204:	d003      	beq.n	320e <infrared_common_encode_manchester+0x40>
    3206:	7982      	ldrb	r2, [r0, #6]
    3208:	3301      	adds	r3, #1
    320a:	4293      	cmp	r3, r2
    320c:	d0f7      	beq.n	31fe <infrared_common_encode_manchester+0x30>

    return InfraredStatusOk;
}
    320e:	2001      	movs	r0, #1
    3210:	bdf0      	pop	{r4, r5, r6, r7, pc}

00003212 <infrared_common_encode_pdwm>:

InfraredStatus
    infrared_common_encode_pdwm(InfraredCommonEncoder* encoder, uint32_t* duration, bool* level) {
    3212:	b5f0      	push	{r4, r5, r6, r7, lr}
    furi_assert(encoder);
    furi_assert(duration);
    furi_assert(level);

    const InfraredTimings* timings = &encoder->protocol->timings;
    uint8_t index = encoder->bits_encoded / 8;
    3214:	79c3      	ldrb	r3, [r0, #7]
    const InfraredTimings* timings = &encoder->protocol->timings;
    3216:	6806      	ldr	r6, [r0, #0]
    uint8_t shift = encoder->bits_encoded % 8; // LSB first
    bool logic_value = !!(encoder->data[index] & (0x01 << shift));
    3218:	eb00 04d3 	add.w	r4, r0, r3, lsr #3
    321c:	f003 0507 	and.w	r5, r3, #7
    3220:	7d24      	ldrb	r4, [r4, #20]
    bool pwm = timings->bit1_space == timings->bit0_space;
    3222:	f8b6 c00e 	ldrh.w	ip, [r6, #14]
    3226:	8a77      	ldrh	r7, [r6, #18]
    bool logic_value = !!(encoder->data[index] & (0x01 << shift));
    3228:	412c      	asrs	r4, r5

    if(encoder->timings_encoded % 2) { /* start encoding from space */
    322a:	68c5      	ldr	r5, [r0, #12]
    322c:	f015 0501 	ands.w	r5, r5, #1
    bool logic_value = !!(encoder->data[index] & (0x01 << shift));
    3230:	f004 0401 	and.w	r4, r4, #1
    if(encoder->timings_encoded % 2) { /* start encoding from space */
    3234:	d00d      	beq.n	3252 <infrared_common_encode_pdwm+0x40>
        *duration = logic_value ? timings->bit1_mark : timings->bit0_mark;
    3236:	b154      	cbz	r4, 324e <infrared_common_encode_pdwm+0x3c>
    3238:	89b4      	ldrh	r4, [r6, #12]
    323a:	600c      	str	r4, [r1, #0]
        *level = true;
        if(pwm) ++encoder->bits_encoded;
    323c:	45bc      	cmp	ip, r7
        *level = true;
    323e:	f04f 0101 	mov.w	r1, #1
    3242:	7011      	strb	r1, [r2, #0]
        if(pwm) ++encoder->bits_encoded;
    3244:	d101      	bne.n	324a <infrared_common_encode_pdwm+0x38>
    3246:	440b      	add	r3, r1
    } else {
        *duration = logic_value ? timings->bit1_space : timings->bit0_space;
        *level = false;
        if(!pwm) ++encoder->bits_encoded;
    3248:	71c3      	strb	r3, [r0, #7]
    }

    return InfraredStatusOk;
}
    324a:	2001      	movs	r0, #1
    324c:	bdf0      	pop	{r4, r5, r6, r7, pc}
        *duration = logic_value ? timings->bit1_mark : timings->bit0_mark;
    324e:	8a34      	ldrh	r4, [r6, #16]
    3250:	e7f3      	b.n	323a <infrared_common_encode_pdwm+0x28>
        *duration = logic_value ? timings->bit1_space : timings->bit0_space;
    3252:	2c00      	cmp	r4, #0
    3254:	bf0c      	ite	eq
    3256:	463e      	moveq	r6, r7
    3258:	4666      	movne	r6, ip
        if(!pwm) ++encoder->bits_encoded;
    325a:	45bc      	cmp	ip, r7
        *duration = logic_value ? timings->bit1_space : timings->bit0_space;
    325c:	600e      	str	r6, [r1, #0]
        *level = false;
    325e:	7015      	strb	r5, [r2, #0]
        if(!pwm) ++encoder->bits_encoded;
    3260:	d0f3      	beq.n	324a <infrared_common_encode_pdwm+0x38>
    3262:	3301      	adds	r3, #1
    3264:	e7f0      	b.n	3248 <infrared_common_encode_pdwm+0x36>

00003266 <infrared_common_encode>:

InfraredStatus
    infrared_common_encode(InfraredCommonEncoder* encoder, uint32_t* duration, bool* level) {
    3266:	b570      	push	{r4, r5, r6, lr}
    3268:	4616      	mov	r6, r2
    furi_assert(duration);
    furi_assert(level);
    InfraredStatus status = InfraredStatusOk;
    const InfraredTimings* timings = &encoder->protocol->timings;

    switch(encoder->state) {
    326a:	7902      	ldrb	r2, [r0, #4]
    const InfraredTimings* timings = &encoder->protocol->timings;
    326c:	6803      	ldr	r3, [r0, #0]
    infrared_common_encode(InfraredCommonEncoder* encoder, uint32_t* duration, bool* level) {
    326e:	4604      	mov	r4, r0
    3270:	460d      	mov	r5, r1
    switch(encoder->state) {
    3272:	2a03      	cmp	r2, #3
    3274:	d80d      	bhi.n	3292 <infrared_common_encode+0x2c>
    3276:	e8df f002 	tbb	[pc, r2]
    327a:	0e02      	.short	0x0e02
    327c:	4727      	.short	0x4727
    case InfraredCommonEncoderStateSilence:
        *duration = encoder->protocol->timings.silence_time;
    327e:	685b      	ldr	r3, [r3, #4]
    3280:	602b      	str	r3, [r5, #0]
        *level = false;
    3282:	2200      	movs	r2, #0
        encoder->state = InfraredCommonEncoderStatePreamble;
    3284:	2301      	movs	r3, #1
        *level = false;
    3286:	7032      	strb	r2, [r6, #0]
        encoder->state = InfraredCommonEncoderStatePreamble;
    3288:	7103      	strb	r3, [r0, #4]
        ++encoder->timings_encoded;
    328a:	68c3      	ldr	r3, [r0, #12]
    328c:	3301      	adds	r3, #1
        encoder->timings_sum = 0;
    328e:	e9c0 2302 	strd	r2, r3, [r0, #8]
    InfraredStatus status = InfraredStatusOk;
    3292:	2001      	movs	r0, #1
    case InfraredCommonEncoderStateEncodeRepeat:
        status = encoder->protocol->encode_repeat(encoder, duration, level);
        break;
    }
    return status;
}
    3294:	bd70      	pop	{r4, r5, r6, pc}
        if(timings->preamble_mark) {
    3296:	8919      	ldrh	r1, [r3, #8]
    3298:	b1a1      	cbz	r1, 32c4 <infrared_common_encode+0x5e>
            if(encoder->timings_encoded == 1) {
    329a:	68c2      	ldr	r2, [r0, #12]
    329c:	2a01      	cmp	r2, #1
                *duration = timings->preamble_space;
    329e:	bf1d      	ittte	ne
    32a0:	895b      	ldrhne	r3, [r3, #10]
    32a2:	602b      	strne	r3, [r5, #0]
                *level = false;
    32a4:	2300      	movne	r3, #0
                *duration = timings->preamble_mark;
    32a6:	6029      	streq	r1, [r5, #0]
                *level = false;
    32a8:	bf1e      	ittt	ne
    32aa:	7033      	strbne	r3, [r6, #0]
                encoder->state = InfraredCommonEncoderStateEncode;
    32ac:	2302      	movne	r3, #2
    32ae:	7103      	strbne	r3, [r0, #4]
            ++encoder->timings_encoded;
    32b0:	68c3      	ldr	r3, [r0, #12]
                *level = true;
    32b2:	bf08      	it	eq
    32b4:	7032      	strbeq	r2, [r6, #0]
            ++encoder->timings_encoded;
    32b6:	3301      	adds	r3, #1
    32b8:	60c3      	str	r3, [r0, #12]
            encoder->timings_sum += *duration;
    32ba:	682a      	ldr	r2, [r5, #0]
    32bc:	6883      	ldr	r3, [r0, #8]
    32be:	4413      	add	r3, r2
    32c0:	6083      	str	r3, [r0, #8]
            break;
    32c2:	e7e6      	b.n	3292 <infrared_common_encode+0x2c>
            encoder->state = InfraredCommonEncoderStateEncode;
    32c4:	2202      	movs	r2, #2
    32c6:	7102      	strb	r2, [r0, #4]
    InfraredStatus status = encoder->protocol->encode(encoder, duration, level);
    32c8:	6b1b      	ldr	r3, [r3, #48]	@ 0x30
    32ca:	4632      	mov	r2, r6
    32cc:	4629      	mov	r1, r5
    32ce:	4620      	mov	r0, r4
    32d0:	4798      	blx	r3
    ++encoder->timings_encoded;
    32d2:	68e3      	ldr	r3, [r4, #12]
    32d4:	3301      	adds	r3, #1
    32d6:	60e3      	str	r3, [r4, #12]
    encoder->timings_sum += *duration;
    32d8:	682a      	ldr	r2, [r5, #0]
    32da:	68a3      	ldr	r3, [r4, #8]
    32dc:	4413      	add	r3, r2
    32de:	60a3      	str	r3, [r4, #8]
    if((encoder->bits_encoded == encoder->bits_to_encode) && *level) {
    32e0:	79e2      	ldrb	r2, [r4, #7]
    32e2:	79a3      	ldrb	r3, [r4, #6]
    32e4:	429a      	cmp	r2, r3
    32e6:	d101      	bne.n	32ec <infrared_common_encode+0x86>
    32e8:	7833      	ldrb	r3, [r6, #0]
    32ea:	b90b      	cbnz	r3, 32f0 <infrared_common_encode+0x8a>
        if(status == InfraredStatusDone) {
    32ec:	2802      	cmp	r0, #2
    32ee:	d1d1      	bne.n	3294 <infrared_common_encode+0x2e>
            if(encoder->protocol->encode_repeat) {
    32f0:	6823      	ldr	r3, [r4, #0]
    32f2:	6b5b      	ldr	r3, [r3, #52]	@ 0x34
    32f4:	b933      	cbnz	r3, 3304 <infrared_common_encode+0x9e>
                encoder->timings_sum = 0;
    32f6:	e9c4 3302 	strd	r3, r3, [r4, #8]
                encoder->bits_encoded = 0;
    32fa:	71e3      	strb	r3, [r4, #7]
                encoder->switch_detect = 0;
    32fc:	7163      	strb	r3, [r4, #5]
                encoder->state = InfraredCommonEncoderStateSilence;
    32fe:	7123      	strb	r3, [r4, #4]
        status = infrared_common_encode_bits(encoder, duration, level);
    3300:	2002      	movs	r0, #2
    3302:	e7c7      	b.n	3294 <infrared_common_encode+0x2e>
    3304:	2303      	movs	r3, #3
    3306:	e7fa      	b.n	32fe <infrared_common_encode+0x98>
        status = encoder->protocol->encode_repeat(encoder, duration, level);
    3308:	4632      	mov	r2, r6
    330a:	4629      	mov	r1, r5
    330c:	6b5b      	ldr	r3, [r3, #52]	@ 0x34
}
    330e:	e8bd 4070 	ldmia.w	sp!, {r4, r5, r6, lr}
        status = encoder->protocol->encode_repeat(encoder, duration, level);
    3312:	4718      	bx	r3

00003314 <infrared_common_encoder_alloc>:

void* infrared_common_encoder_alloc(const InfraredCommonProtocolSpec* protocol) {
    3314:	b570      	push	{r4, r5, r6, lr}
    /* protocol->databit_len[0] has to contain biggest value of bits that can be decoded */
    for(size_t i = 1; i < COUNT_OF(protocol->databit_len); ++i) {
        furi_assert(protocol->databit_len[i] <= protocol->databit_len[0]);
    }

    uint32_t alloc_size = sizeof(InfraredCommonDecoder) + protocol->databit_len[0] / 8 +
    3316:	7f43      	ldrb	r3, [r0, #29]
                          !!(protocol->databit_len[0] % 8);
    3318:	f013 0207 	ands.w	r2, r3, #7
    331c:	bf18      	it	ne
    331e:	2201      	movne	r2, #1
    uint32_t alloc_size = sizeof(InfraredCommonDecoder) + protocol->databit_len[0] / 8 +
    3320:	eb02 02d3 	add.w	r2, r2, r3, lsr #3
    3324:	f102 0438 	add.w	r4, r2, #56	@ 0x38
void* infrared_common_encoder_alloc(const InfraredCommonProtocolSpec* protocol) {
    3328:	4606      	mov	r6, r0
    InfraredCommonEncoder* encoder = malloc(alloc_size);
    332a:	4620      	mov	r0, r4
    332c:	f7ff fffe 	bl	0 <malloc>
    3330:	4605      	mov	r5, r0
    memset(encoder, 0, alloc_size);
    3332:	4622      	mov	r2, r4
    3334:	2100      	movs	r1, #0
    3336:	f7ff fffe 	bl	0 <memset>
    encoder->protocol = protocol;
    333a:	602e      	str	r6, [r5, #0]

    return encoder;
}
    333c:	4628      	mov	r0, r5
    333e:	bd70      	pop	{r4, r5, r6, pc}

00003340 <infrared_common_encoder_free>:

void infrared_common_encoder_free(InfraredCommonEncoder* encoder) {
    furi_assert(encoder);
    free(encoder);
    3340:	f7ff bffe 	b.w	0 <free>

00003344 <infrared_common_encoder_reset>:
}

void infrared_common_encoder_reset(InfraredCommonEncoder* encoder) {
    3344:	b410      	push	{r4}
    furi_assert(encoder);
    encoder->timings_encoded = 0;
    3346:	2100      	movs	r1, #0
    encoder->timings_sum = 0;
    encoder->bits_encoded = 0;
    3348:	71c1      	strb	r1, [r0, #7]
    encoder->state = InfraredCommonEncoderStateSilence;
    334a:	8081      	strh	r1, [r0, #4]
    encoder->timings_sum = 0;
    334c:	e9c0 1102 	strd	r1, r1, [r0, #8]
    encoder->switch_detect = 0;

    uint8_t max_databit_len = 0;

    for(size_t i = 0; i < COUNT_OF(encoder->protocol->databit_len); ++i) {
        max_databit_len = MAX(max_databit_len, encoder->protocol->databit_len[i]);
    3350:	f850 3b14 	ldr.w	r3, [r0], #20
    3354:	7f9a      	ldrb	r2, [r3, #30]
    3356:	7fdc      	ldrb	r4, [r3, #31]
    3358:	42a2      	cmp	r2, r4
    335a:	bf38      	it	cc
    335c:	4622      	movcc	r2, r4
    335e:	f893 4020 	ldrb.w	r4, [r3, #32]
    3362:	7f5b      	ldrb	r3, [r3, #29]
    3364:	42a2      	cmp	r2, r4
    3366:	bf38      	it	cc
    3368:	4622      	movcc	r2, r4
    336a:	429a      	cmp	r2, r3
    336c:	bf38      	it	cc
    336e:	461a      	movcc	r2, r3
    }

    uint8_t bytes_to_clear = max_databit_len / 8 + !!(max_databit_len % 8);
    3370:	f012 0307 	ands.w	r3, r2, #7
    3374:	bf18      	it	ne
    3376:	2301      	movne	r3, #1
    memset(encoder->data, 0, bytes_to_clear);
}
    3378:	f85d 4b04 	ldr.w	r4, [sp], #4
    memset(encoder->data, 0, bytes_to_clear);
    337c:	eb03 02d2 	add.w	r2, r3, r2, lsr #3
    3380:	f7ff bffe 	b.w	0 <memset>
