
build/f7-firmware-D/.extapps/cli_nfc_d.elf:     file format elf32-littlearm


Disassembly of section .text:

00000000 <nfc_cli_apdu_iso15693_3_process_error>:
#define TAG "ISO15"

#define BIT_BUFFER_EMPTY(buffer) ((bit_buffer_get_size_bytes(buffer) == 0))

static NfcCliApduError nfc_cli_apdu_iso15693_3_process_error(Iso15693_3Error error) {
    switch(error) {
       0:	2801      	cmp	r0, #1
       2:	d005      	beq.n	10 <nfc_cli_apdu_iso15693_3_process_error+0x10>
       4:	2806      	cmp	r0, #6
       6:	d005      	beq.n	14 <nfc_cli_apdu_iso15693_3_process_error+0x14>
       8:	b108      	cbz	r0, e <nfc_cli_apdu_iso15693_3_process_error+0xe>
    case Iso15693_3ErrorTimeout:
        return NfcCliApduErrorTimeout;
    case Iso15693_3ErrorNotPresent:
        return NfcCliApduErrorNotPresent;
    default:
        return NfcCliApduErrorProtocol;
       a:	2004      	movs	r0, #4
    }
}
       c:	4770      	bx	lr
       e:	4770      	bx	lr
        return NfcCliApduErrorNotPresent;
      10:	2002      	movs	r0, #2
      12:	4770      	bx	lr
        return NfcCliApduErrorTimeout;
      14:	2001      	movs	r0, #1
      16:	4770      	bx	lr

00000018 <nfc_cli_apdu_iso15693_3_handler>:

NfcCommand
    nfc_cli_apdu_iso15693_3_handler(NfcGenericEvent event, NfcCliApduRequestResponse* instance) {
      18:	b530      	push	{r4, r5, lr}
      1a:	b085      	sub	sp, #20
      1c:	ac04      	add	r4, sp, #16
      1e:	e904 0007 	stmdb	r4, {r0, r1, r2}
      22:	461c      	mov	r4, r3
    Iso15693_3PollerEvent* iso15693_3_event = event.event_data;
    NfcCommand command = NfcCommandContinue;

    if(iso15693_3_event->type == Iso15693_3PollerEventTypeReady) {
      24:	7813      	ldrb	r3, [r2, #0]
      26:	2b01      	cmp	r3, #1
      28:	d003      	beq.n	32 <nfc_cli_apdu_iso15693_3_handler+0x1a>
    NfcCommand command = NfcCommandContinue;
      2a:	2500      	movs	r5, #0
        instance->result = nfc_cli_apdu_iso15693_3_process_error(err);
        if(err != Iso15693_3ErrorNone) command = NfcCommandStop;
    }

    return command;
}
      2c:	4628      	mov	r0, r5
      2e:	b005      	add	sp, #20
      30:	bd30      	pop	{r4, r5, pc}
        Iso15693_3Error err = iso15693_3_poller_send_frame(
      32:	f241 036a 	movw	r3, #4202	@ 0x106a
      36:	68a2      	ldr	r2, [r4, #8]
      38:	6861      	ldr	r1, [r4, #4]
      3a:	9802      	ldr	r0, [sp, #8]
      3c:	4d04      	ldr	r5, [pc, #16]	@ (50 <nfc_cli_apdu_iso15693_3_handler+0x38>)
      3e:	47a8      	blx	r5
      40:	4605      	mov	r5, r0
        instance->result = nfc_cli_apdu_iso15693_3_process_error(err);
      42:	4b04      	ldr	r3, [pc, #16]	@ (54 <nfc_cli_apdu_iso15693_3_handler+0x3c>)
      44:	4798      	blx	r3
      46:	7320      	strb	r0, [r4, #12]
        if(err != Iso15693_3ErrorNone) command = NfcCommandStop;
      48:	2d00      	cmp	r5, #0
      4a:	d0ef      	beq.n	2c <nfc_cli_apdu_iso15693_3_handler+0x14>
      4c:	2502      	movs	r5, #2
      4e:	e7ed      	b.n	2c <nfc_cli_apdu_iso15693_3_handler+0x14>
	...

00000058 <nfc_cli_field>:
#include "nfc_cli_command_field.h"

#include <furi_hal_nfc.h>

static void nfc_cli_field(PipeSide* pipe, FuriString* args, void* context) {
      58:	b538      	push	{r3, r4, r5, lr}
      5a:	4604      	mov	r4, r0
    UNUSED(args);
    UNUSED(context);

    furi_hal_nfc_low_power_mode_stop();
      5c:	4b0a      	ldr	r3, [pc, #40]	@ (88 <nfc_cli_field+0x30>)
      5e:	4798      	blx	r3
    furi_hal_nfc_poller_field_on();
      60:	4b0a      	ldr	r3, [pc, #40]	@ (8c <nfc_cli_field+0x34>)
      62:	4798      	blx	r3

    printf("Field is on. Don't leave device in this mode for too long.\r\n");
      64:	480a      	ldr	r0, [pc, #40]	@ (90 <nfc_cli_field+0x38>)
      66:	4d0b      	ldr	r5, [pc, #44]	@ (94 <nfc_cli_field+0x3c>)
      68:	47a8      	blx	r5
    printf("Press Ctrl+C to abort\r\n");
      6a:	480b      	ldr	r0, [pc, #44]	@ (98 <nfc_cli_field+0x40>)
      6c:	47a8      	blx	r5

    while(!cli_is_pipe_broken_or_is_etx_next_char(pipe)) {
      6e:	e002      	b.n	76 <nfc_cli_field+0x1e>
        furi_delay_ms(50);
      70:	2032      	movs	r0, #50	@ 0x32
      72:	4b0a      	ldr	r3, [pc, #40]	@ (9c <nfc_cli_field+0x44>)
      74:	4798      	blx	r3
    while(!cli_is_pipe_broken_or_is_etx_next_char(pipe)) {
      76:	4620      	mov	r0, r4
      78:	4b09      	ldr	r3, [pc, #36]	@ (a0 <nfc_cli_field+0x48>)
      7a:	4798      	blx	r3
      7c:	2800      	cmp	r0, #0
      7e:	d0f7      	beq.n	70 <nfc_cli_field+0x18>
    }

    furi_hal_nfc_low_power_mode_start();
      80:	4b08      	ldr	r3, [pc, #32]	@ (a4 <nfc_cli_field+0x4c>)
      82:	4798      	blx	r3
}
      84:	bd38      	pop	{r3, r4, r5, pc}
      86:	bf00      	nop
	...
      90:	00000014 	.word	0x00000014
      94:	00000000 	.word	0x00000000
      98:	00000050 	.word	0x00000050
	...

000000a8 <nfc_cli_action_get_key_by_name>:
}

static inline const NfcCliKeyDescriptor* nfc_cli_action_get_key_by_name(
    const NfcCliActionDescriptor* action,
    const FuriString* name,
    bool long_name) {
      a8:	e92d 41f0 	stmdb	sp!, {r4, r5, r6, r7, r8, lr}
      ac:	4606      	mov	r6, r0
      ae:	4688      	mov	r8, r1
      b0:	4617      	mov	r7, r2
    for(size_t i = 0; i < action->key_count; i++) {
      b2:	2400      	movs	r4, #0
      b4:	e006      	b.n	c4 <nfc_cli_action_get_key_by_name+0x1c>
        const NfcCliKeyDescriptor* key = &action->keys[i];
        const char* buf = long_name ? key->long_name : key->short_name;
      b6:	68a9      	ldr	r1, [r5, #8]
        if((buf != NULL) && furi_string_equal_str(name, buf)) return key;
      b8:	b119      	cbz	r1, c2 <nfc_cli_action_get_key_by_name+0x1a>
      ba:	4640      	mov	r0, r8
      bc:	4b09      	ldr	r3, [pc, #36]	@ (e4 <nfc_cli_action_get_key_by_name+0x3c>)
      be:	4798      	blx	r3
      c0:	b968      	cbnz	r0, de <nfc_cli_action_get_key_by_name+0x36>
    for(size_t i = 0; i < action->key_count; i++) {
      c2:	3401      	adds	r4, #1
      c4:	68b3      	ldr	r3, [r6, #8]
      c6:	42a3      	cmp	r3, r4
      c8:	d908      	bls.n	dc <nfc_cli_action_get_key_by_name+0x34>
        const NfcCliKeyDescriptor* key = &action->keys[i];
      ca:	68f5      	ldr	r5, [r6, #12]
      cc:	eb04 0384 	add.w	r3, r4, r4, lsl #2
      d0:	eb05 0583 	add.w	r5, r5, r3, lsl #2
        const char* buf = long_name ? key->long_name : key->short_name;
      d4:	2f00      	cmp	r7, #0
      d6:	d0ee      	beq.n	b6 <nfc_cli_action_get_key_by_name+0xe>
      d8:	6869      	ldr	r1, [r5, #4]
      da:	e7ed      	b.n	b8 <nfc_cli_action_get_key_by_name+0x10>
    }
    return NULL;
      dc:	2500      	movs	r5, #0
}
      de:	4628      	mov	r0, r5
      e0:	e8bd 81f0 	ldmia.w	sp!, {r4, r5, r6, r7, r8, pc}
      e4:	00000000 	.word	0x00000000

000000e8 <nfc_cli_action_format_key_name>:
        required_key_count++;
    }
    return required_key_count;
}

static int nfc_cli_action_format_key_name(const NfcCliKeyDescriptor* key, FuriString* output) {
      e8:	b5f0      	push	{r4, r5, r6, r7, lr}
      ea:	b083      	sub	sp, #12
      ec:	4604      	mov	r4, r0
      ee:	460e      	mov	r6, r1
    int len = 0;
    FuriString* name = furi_string_alloc();
      f0:	4b1c      	ldr	r3, [pc, #112]	@ (164 <nfc_cli_action_format_key_name+0x7c>)
      f2:	4798      	blx	r3
      f4:	4605      	mov	r5, r0
    if(key->short_name && key->long_name) {
      f6:	68a2      	ldr	r2, [r4, #8]
      f8:	b132      	cbz	r2, 108 <nfc_cli_action_format_key_name+0x20>
      fa:	6863      	ldr	r3, [r4, #4]
      fc:	b123      	cbz	r3, 108 <nfc_cli_action_format_key_name+0x20>
        len = furi_string_printf(name, "-%s, --%s", key->short_name, key->long_name);
      fe:	491a      	ldr	r1, [pc, #104]	@ (168 <nfc_cli_action_format_key_name+0x80>)
     100:	4f1a      	ldr	r7, [pc, #104]	@ (16c <nfc_cli_action_format_key_name+0x84>)
     102:	47b8      	blx	r7
     104:	4607      	mov	r7, r0
     106:	e004      	b.n	112 <nfc_cli_action_format_key_name+0x2a>
    } else if(key->short_name && (key->long_name == NULL)) {
     108:	b10a      	cbz	r2, 10e <nfc_cli_action_format_key_name+0x26>
     10a:	6863      	ldr	r3, [r4, #4]
     10c:	b1bb      	cbz	r3, 13e <nfc_cli_action_format_key_name+0x56>
        len = furi_string_printf(name, "-%s", key->short_name);
    } else if((key->short_name == NULL) && key->long_name) {
     10e:	b1e2      	cbz	r2, 14a <nfc_cli_action_format_key_name+0x62>
    int len = 0;
     110:	2700      	movs	r7, #0
        len = furi_string_printf(name, "--%s", key->long_name);
    }

    const char* color = key->features.required ? ANSI_FLIPPER_BRAND_ORANGE : ANSI_RESET;
     112:	7823      	ldrb	r3, [r4, #0]
     114:	f013 0f01 	tst.w	r3, #1
     118:	d021      	beq.n	15e <nfc_cli_action_format_key_name+0x76>
     11a:	4c15      	ldr	r4, [pc, #84]	@ (170 <nfc_cli_action_format_key_name+0x88>)
    furi_string_printf(output, "%s%s%s", color, furi_string_get_cstr(name), ANSI_RESET);
     11c:	4628      	mov	r0, r5
     11e:	4b15      	ldr	r3, [pc, #84]	@ (174 <nfc_cli_action_format_key_name+0x8c>)
     120:	4798      	blx	r3
     122:	4603      	mov	r3, r0
     124:	4a14      	ldr	r2, [pc, #80]	@ (178 <nfc_cli_action_format_key_name+0x90>)
     126:	9200      	str	r2, [sp, #0]
     128:	4622      	mov	r2, r4
     12a:	4914      	ldr	r1, [pc, #80]	@ (17c <nfc_cli_action_format_key_name+0x94>)
     12c:	4630      	mov	r0, r6
     12e:	4c0f      	ldr	r4, [pc, #60]	@ (16c <nfc_cli_action_format_key_name+0x84>)
     130:	47a0      	blx	r4
    furi_string_free(name);
     132:	4628      	mov	r0, r5
     134:	4b12      	ldr	r3, [pc, #72]	@ (180 <nfc_cli_action_format_key_name+0x98>)
     136:	4798      	blx	r3
    return len;
}
     138:	4638      	mov	r0, r7
     13a:	b003      	add	sp, #12
     13c:	bdf0      	pop	{r4, r5, r6, r7, pc}
        len = furi_string_printf(name, "-%s", key->short_name);
     13e:	4911      	ldr	r1, [pc, #68]	@ (184 <nfc_cli_action_format_key_name+0x9c>)
     140:	4628      	mov	r0, r5
     142:	4b0a      	ldr	r3, [pc, #40]	@ (16c <nfc_cli_action_format_key_name+0x84>)
     144:	4798      	blx	r3
     146:	4607      	mov	r7, r0
     148:	e7e3      	b.n	112 <nfc_cli_action_format_key_name+0x2a>
    } else if((key->short_name == NULL) && key->long_name) {
     14a:	6862      	ldr	r2, [r4, #4]
     14c:	b12a      	cbz	r2, 15a <nfc_cli_action_format_key_name+0x72>
        len = furi_string_printf(name, "--%s", key->long_name);
     14e:	490e      	ldr	r1, [pc, #56]	@ (188 <nfc_cli_action_format_key_name+0xa0>)
     150:	4628      	mov	r0, r5
     152:	4b06      	ldr	r3, [pc, #24]	@ (16c <nfc_cli_action_format_key_name+0x84>)
     154:	4798      	blx	r3
     156:	4607      	mov	r7, r0
     158:	e7db      	b.n	112 <nfc_cli_action_format_key_name+0x2a>
    int len = 0;
     15a:	2700      	movs	r7, #0
     15c:	e7d9      	b.n	112 <nfc_cli_action_format_key_name+0x2a>
    const char* color = key->features.required ? ANSI_FLIPPER_BRAND_ORANGE : ANSI_RESET;
     15e:	4c06      	ldr	r4, [pc, #24]	@ (178 <nfc_cli_action_format_key_name+0x90>)
     160:	e7dc      	b.n	11c <nfc_cli_action_format_key_name+0x34>
     162:	bf00      	nop
     164:	00000000 	.word	0x00000000
     168:	000000b4 	.word	0x000000b4
     16c:	00000000 	.word	0x00000000
     170:	00000098 	.word	0x00000098
     174:	00000000 	.word	0x00000000
     178:	000000ac 	.word	0x000000ac
     17c:	000000cc 	.word	0x000000cc
     180:	00000000 	.word	0x00000000
     184:	000000c0 	.word	0x000000c0
     188:	000000c4 	.word	0x000000c4

0000018c <nfc_cli_command_get_count>:
}
     18c:	2007      	movs	r0, #7
     18e:	4770      	bx	lr

00000190 <nfc_cli_command_get_action_by_name>:
    nfc_cli_command_get_action_by_name(const NfcCliCommandDescriptor* cmd, const FuriString* name) {
     190:	b5f8      	push	{r3, r4, r5, r6, r7, lr}
    furi_assert(cmd);
     192:	b180      	cbz	r0, 1b6 <nfc_cli_command_get_action_by_name+0x26>
     194:	460f      	mov	r7, r1
     196:	4606      	mov	r6, r0
    furi_assert(name);
     198:	b189      	cbz	r1, 1be <sukima380+0x4>
    for(size_t i = 0; i < cmd->action_count; i++) {
     19a:	2400      	movs	r4, #0
     19c:	68b3      	ldr	r3, [r6, #8]
     19e:	42a3      	cmp	r3, r4
     1a0:	d911      	bls.n	1c6 <sukima397+0x4>
        const NfcCliActionDescriptor* action = cmd->actions[i];
     1a2:	68f3      	ldr	r3, [r6, #12]
     1a4:	f853 5024 	ldr.w	r5, [r3, r4, lsl #2]
        if(furi_string_equal_str(name, action->name)) return action;
     1a8:	6829      	ldr	r1, [r5, #0]
     1aa:	4638      	mov	r0, r7
     1ac:	4b07      	ldr	r3, [pc, #28]	@ (1cc <sukima397+0xa>)
     1ae:	4798      	blx	r3
     1b0:	b950      	cbnz	r0, 1c8 <sukima397+0x6>
    for(size_t i = 0; i < cmd->action_count; i++) {
     1b2:	3401      	adds	r4, #1
     1b4:	e7f2      	b.n	19c <nfc_cli_command_get_action_by_name+0xc>
    furi_assert(cmd);
     1b6:	f04f 0c01 	mov.w	ip, #1

000001ba <sukima380>:
     1ba:	4b05      	ldr	r3, [pc, #20]	@ (1d0 <sukima397+0xe>)
     1bc:	4798      	blx	r3
    furi_assert(name);
     1be:	f04f 0c01 	mov.w	ip, #1

000001c2 <sukima397>:
     1c2:	4b03      	ldr	r3, [pc, #12]	@ (1d0 <sukima397+0xe>)
     1c4:	4798      	blx	r3
    return NULL;
     1c6:	2500      	movs	r5, #0
}
     1c8:	4628      	mov	r0, r5
     1ca:	bdf8      	pop	{r3, r4, r5, r6, r7, pc}
	...

000001d4 <nfc_cli_command_get_by_index>:
const NfcCliCommandDescriptor* nfc_cli_command_get_by_index(size_t index) {
     1d4:	b508      	push	{r3, lr}
    furi_assert(index < COUNT_OF(nfc_cli_commands));
     1d6:	2806      	cmp	r0, #6
     1d8:	d803      	bhi.n	1e2 <nfc_cli_command_get_by_index+0xe>
}
     1da:	4b04      	ldr	r3, [pc, #16]	@ (1ec <sukima461+0x6>)
     1dc:	f853 0020 	ldr.w	r0, [r3, r0, lsl #2]
     1e0:	bd08      	pop	{r3, pc}
    furi_assert(index < COUNT_OF(nfc_cli_commands));
     1e2:	f04f 0c01 	mov.w	ip, #1

000001e6 <sukima461>:
     1e6:	4b02      	ldr	r3, [pc, #8]	@ (1f0 <sukima461+0xa>)
     1e8:	4798      	blx	r3
     1ea:	bf00      	nop
     1ec:	00000168 	.word	0x00000168
     1f0:	00000000 	.word	0x00000000

000001f4 <nfc_cli_command_has_multiple_actions>:
bool nfc_cli_command_has_multiple_actions(const NfcCliCommandDescriptor* cmd) {
     1f4:	b508      	push	{r3, lr}
    furi_assert(cmd);
     1f6:	b130      	cbz	r0, 206 <nfc_cli_command_has_multiple_actions+0x12>
    furi_check(cmd->action_count > 0);
     1f8:	6880      	ldr	r0, [r0, #8]
     1fa:	b140      	cbz	r0, 20e <sukima520+0x4>
}
     1fc:	2801      	cmp	r0, #1
     1fe:	bf94      	ite	ls
     200:	2000      	movls	r0, #0
     202:	2001      	movhi	r0, #1
     204:	bd08      	pop	{r3, pc}
    furi_assert(cmd);
     206:	f04f 0c01 	mov.w	ip, #1

0000020a <sukima520>:
     20a:	4b03      	ldr	r3, [pc, #12]	@ (218 <sukima534+0x6>)
     20c:	4798      	blx	r3
    furi_check(cmd->action_count > 0);
     20e:	f04f 0c02 	mov.w	ip, #2

00000212 <sukima534>:
     212:	4b01      	ldr	r3, [pc, #4]	@ (218 <sukima534+0x6>)
     214:	4798      	blx	r3
     216:	bf00      	nop
     218:	00000000 	.word	0x00000000

0000021c <nfc_cli_command_get_name>:
const char* nfc_cli_command_get_name(const NfcCliCommandDescriptor* cmd) {
     21c:	b508      	push	{r3, lr}
    furi_assert(cmd);
     21e:	b108      	cbz	r0, 224 <nfc_cli_command_get_name+0x8>
}
     220:	6800      	ldr	r0, [r0, #0]
     222:	bd08      	pop	{r3, pc}
    furi_assert(cmd);
     224:	f04f 0c01 	mov.w	ip, #1

00000228 <sukima579>:
     228:	4b00      	ldr	r3, [pc, #0]	@ (22c <sukima579+0x4>)
     22a:	4798      	blx	r3
     22c:	00000000 	.word	0x00000000

00000230 <nfc_cli_command_get_execute>:
CliCommandExecuteCallback nfc_cli_command_get_execute(const NfcCliCommandDescriptor* cmd) {
     230:	b508      	push	{r3, lr}
    furi_assert(cmd);
     232:	b108      	cbz	r0, 238 <nfc_cli_command_get_execute+0x8>
}
     234:	6900      	ldr	r0, [r0, #16]
     236:	bd08      	pop	{r3, pc}
    furi_assert(cmd);
     238:	f04f 0c01 	mov.w	ip, #1

0000023c <sukima625>:
     23c:	4b00      	ldr	r3, [pc, #0]	@ (240 <sukima625+0x4>)
     23e:	4798      	blx	r3
     240:	00000000 	.word	0x00000000

00000244 <nfc_cli_action_get_key_descriptor>:
    nfc_cli_action_get_key_descriptor(const NfcCliActionDescriptor* action, FuriString* argument) {
     244:	b538      	push	{r3, r4, r5, lr}
    furi_assert(action);
     246:	b170      	cbz	r0, 266 <nfc_cli_action_get_key_descriptor+0x22>
     248:	460c      	mov	r4, r1
     24a:	4605      	mov	r5, r0
    furi_assert(argument);
     24c:	b179      	cbz	r1, 26e <sukima699+0x4>
    return nfc_cli_action_get_key_by_name(action, argument, furi_string_size(argument) > 1);
     24e:	4608      	mov	r0, r1
     250:	4b09      	ldr	r3, [pc, #36]	@ (278 <sukima716+0x6>)
     252:	4798      	blx	r3
     254:	2801      	cmp	r0, #1
     256:	bf94      	ite	ls
     258:	2200      	movls	r2, #0
     25a:	2201      	movhi	r2, #1
     25c:	4621      	mov	r1, r4
     25e:	4628      	mov	r0, r5
     260:	4b06      	ldr	r3, [pc, #24]	@ (27c <sukima716+0xa>)
     262:	4798      	blx	r3
}
     264:	bd38      	pop	{r3, r4, r5, pc}
    furi_assert(action);
     266:	f04f 0c01 	mov.w	ip, #1

0000026a <sukima699>:
     26a:	4b05      	ldr	r3, [pc, #20]	@ (280 <sukima716+0xe>)
     26c:	4798      	blx	r3
    furi_assert(argument);
     26e:	f04f 0c01 	mov.w	ip, #1

00000272 <sukima716>:
     272:	4b03      	ldr	r3, [pc, #12]	@ (280 <sukima716+0xe>)
     274:	4798      	blx	r3
     276:	bf00      	nop
	...

00000284 <nfc_cli_action_get_required_keys_count>:
size_t nfc_cli_action_get_required_keys_count(const NfcCliActionDescriptor* action) {
     284:	b508      	push	{r3, lr}
    furi_assert(action);
     286:	b118      	cbz	r0, 290 <nfc_cli_action_get_required_keys_count+0xc>
     288:	4602      	mov	r2, r0
    for(size_t i = 0; i < action->key_count; i++) {
     28a:	2300      	movs	r3, #0
    size_t required_key_count = 0;
     28c:	4618      	mov	r0, r3
     28e:	e004      	b.n	29a <sukima763+0x6>
    furi_assert(action);
     290:	f04f 0c01 	mov.w	ip, #1

00000294 <sukima763>:
     294:	4b08      	ldr	r3, [pc, #32]	@ (2b8 <sukima763+0x24>)
     296:	4798      	blx	r3
    for(size_t i = 0; i < action->key_count; i++) {
     298:	3301      	adds	r3, #1
     29a:	6891      	ldr	r1, [r2, #8]
     29c:	4299      	cmp	r1, r3
     29e:	d909      	bls.n	2b4 <sukima763+0x20>
        const NfcCliKeyDescriptor* key = &action->keys[i];
     2a0:	68d1      	ldr	r1, [r2, #12]
     2a2:	eb03 0c83 	add.w	ip, r3, r3, lsl #2
        if(!key->features.required) continue;
     2a6:	f811 102c 	ldrb.w	r1, [r1, ip, lsl #2]
     2aa:	f011 0f01 	tst.w	r1, #1
     2ae:	d0f3      	beq.n	298 <sukima763+0x4>
        required_key_count++;
     2b0:	3001      	adds	r0, #1
     2b2:	e7f1      	b.n	298 <sukima763+0x4>
}
     2b4:	bd08      	pop	{r3, pc}
     2b6:	bf00      	nop
     2b8:	00000000 	.word	0x00000000

000002bc <nfc_cli_action_format_info>:

void nfc_cli_action_format_info(const NfcCliActionDescriptor* action, FuriString* output) {
     2bc:	e92d 43f8 	stmdb	sp!, {r3, r4, r5, r6, r7, r8, r9, lr}
    furi_assert(action);
     2c0:	b178      	cbz	r0, 2e2 <nfc_cli_action_format_info+0x26>
     2c2:	460e      	mov	r6, r1
     2c4:	4680      	mov	r8, r0
    furi_assert(output);
     2c6:	b181      	cbz	r1, 2ea <sukima902+0x4>
    furi_string_printf(
        output,
        action->description ? "%s - %s\r\n\n" : "%s\r\n\n",
     2c8:	6843      	ldr	r3, [r0, #4]
    furi_string_printf(
     2ca:	b193      	cbz	r3, 2f2 <sukima919+0x4>
     2cc:	4923      	ldr	r1, [pc, #140]	@ (35c <sukima919+0x6e>)
     2ce:	f8d8 2000 	ldr.w	r2, [r8]
     2d2:	4630      	mov	r0, r6
     2d4:	4c22      	ldr	r4, [pc, #136]	@ (360 <sukima919+0x72>)
     2d6:	47a0      	blx	r4
        action->name,
        action->description);

    if(action->key_count == 0) return;
     2d8:	f8d8 3008 	ldr.w	r3, [r8, #8]
     2dc:	b95b      	cbnz	r3, 2f6 <sukima919+0x8>
                output, ANSI_CURSOR_RIGHT_BY("%d") "%s", offset - len, key->description);
        }
        furi_string_cat_printf(output, "\r\n");
    }
    furi_string_free(buf);
}
     2de:	e8bd 83f8 	ldmia.w	sp!, {r3, r4, r5, r6, r7, r8, r9, pc}
    furi_assert(action);
     2e2:	f04f 0c01 	mov.w	ip, #1

000002e6 <sukima902>:
     2e6:	4b1f      	ldr	r3, [pc, #124]	@ (364 <sukima919+0x76>)
     2e8:	4798      	blx	r3
    furi_assert(output);
     2ea:	f04f 0c01 	mov.w	ip, #1

000002ee <sukima919>:
     2ee:	4b1d      	ldr	r3, [pc, #116]	@ (364 <sukima919+0x76>)
     2f0:	4798      	blx	r3
    furi_string_printf(
     2f2:	491d      	ldr	r1, [pc, #116]	@ (368 <sukima919+0x7a>)
     2f4:	e7eb      	b.n	2ce <nfc_cli_action_format_info+0x12>
    FuriString* buf = furi_string_alloc();
     2f6:	4b1d      	ldr	r3, [pc, #116]	@ (36c <sukima919+0x7e>)
     2f8:	4798      	blx	r3
     2fa:	4681      	mov	r9, r0
    furi_string_cat_printf(
     2fc:	491c      	ldr	r1, [pc, #112]	@ (370 <sukima919+0x82>)
     2fe:	4630      	mov	r0, r6
     300:	4b1c      	ldr	r3, [pc, #112]	@ (374 <sukima919+0x86>)
     302:	4798      	blx	r3
    for(size_t i = 0; i < action->key_count; i++) {
     304:	2400      	movs	r4, #0
     306:	e004      	b.n	312 <sukima919+0x24>
        furi_string_cat_printf(output, "\r\n");
     308:	491b      	ldr	r1, [pc, #108]	@ (378 <sukima919+0x8a>)
     30a:	4630      	mov	r0, r6
     30c:	4b19      	ldr	r3, [pc, #100]	@ (374 <sukima919+0x86>)
     30e:	4798      	blx	r3
    for(size_t i = 0; i < action->key_count; i++) {
     310:	3401      	adds	r4, #1
     312:	f8d8 3008 	ldr.w	r3, [r8, #8]
     316:	42a3      	cmp	r3, r4
     318:	d91c      	bls.n	354 <sukima919+0x66>
        const NfcCliKeyDescriptor* key = &action->keys[i];
     31a:	f8d8 500c 	ldr.w	r5, [r8, #12]
     31e:	eb04 0384 	add.w	r3, r4, r4, lsl #2
     322:	eb05 0583 	add.w	r5, r5, r3, lsl #2
        int len = nfc_cli_action_format_key_name(key, buf);
     326:	4649      	mov	r1, r9
     328:	4628      	mov	r0, r5
     32a:	4b14      	ldr	r3, [pc, #80]	@ (37c <sukima919+0x8e>)
     32c:	4798      	blx	r3
     32e:	4607      	mov	r7, r0
        furi_string_cat_printf(output, "%s", furi_string_get_cstr(buf));
     330:	4648      	mov	r0, r9
     332:	4b13      	ldr	r3, [pc, #76]	@ (380 <sukima919+0x92>)
     334:	4798      	blx	r3
     336:	4602      	mov	r2, r0
     338:	4912      	ldr	r1, [pc, #72]	@ (384 <sukima919+0x96>)
     33a:	4630      	mov	r0, r6
     33c:	4b0d      	ldr	r3, [pc, #52]	@ (374 <sukima919+0x86>)
     33e:	4798      	blx	r3
        if(key->description) {
     340:	68eb      	ldr	r3, [r5, #12]
     342:	2b00      	cmp	r3, #0
     344:	d0e0      	beq.n	308 <sukima919+0x1a>
            furi_string_cat_printf(
     346:	f1c7 0214 	rsb	r2, r7, #20
     34a:	490f      	ldr	r1, [pc, #60]	@ (388 <sukima919+0x9a>)
     34c:	4630      	mov	r0, r6
     34e:	4d09      	ldr	r5, [pc, #36]	@ (374 <sukima919+0x86>)
     350:	47a8      	blx	r5
     352:	e7d9      	b.n	308 <sukima919+0x1a>
    furi_string_free(buf);
     354:	4648      	mov	r0, r9
     356:	4b0d      	ldr	r3, [pc, #52]	@ (38c <sukima919+0x9e>)
     358:	4798      	blx	r3
     35a:	e7c0      	b.n	2de <nfc_cli_action_format_info+0x22>
     35c:	000000d4 	.word	0x000000d4
	...
     368:	000000e0 	.word	0x000000e0
     36c:	00000000 	.word	0x00000000
     370:	000000e8 	.word	0x000000e8
     374:	00000000 	.word	0x00000000
     378:	0000012c 	.word	0x0000012c
	...
     384:	00000120 	.word	0x00000120
     388:	00000124 	.word	0x00000124
     38c:	00000000 	.word	0x00000000

00000390 <nfc_cli_command_format_info>:

void nfc_cli_command_format_info(const NfcCliCommandDescriptor* cmd, FuriString* output) {
     390:	b5f8      	push	{r3, r4, r5, r6, r7, lr}
    furi_assert(cmd);
     392:	b160      	cbz	r0, 3ae <nfc_cli_command_format_info+0x1e>
     394:	460e      	mov	r6, r1
     396:	4605      	mov	r5, r0
    furi_assert(output);
     398:	b169      	cbz	r1, 3b6 <sukima1136+0x4>
    furi_string_printf(output, "%s - %s\r\n", cmd->name, cmd->description);
     39a:	6843      	ldr	r3, [r0, #4]
     39c:	6802      	ldr	r2, [r0, #0]
     39e:	4913      	ldr	r1, [pc, #76]	@ (3ec <sukima1153+0x32>)
     3a0:	4630      	mov	r0, r6
     3a2:	4c13      	ldr	r4, [pc, #76]	@ (3f0 <sukima1153+0x36>)
     3a4:	47a0      	blx	r4
    if(cmd->action_count > 1) {
     3a6:	68ab      	ldr	r3, [r5, #8]
     3a8:	2b01      	cmp	r3, #1
     3aa:	d808      	bhi.n	3be <sukima1153+0x4>
                action->description ? "\t%s\t-\t%s\r\n" : "%s\r\n",
                action->name,
                action->description);
        }
    }
}
     3ac:	bdf8      	pop	{r3, r4, r5, r6, r7, pc}
    furi_assert(cmd);
     3ae:	f04f 0c01 	mov.w	ip, #1

000003b2 <sukima1136>:
     3b2:	4b10      	ldr	r3, [pc, #64]	@ (3f4 <sukima1153+0x3a>)
     3b4:	4798      	blx	r3
    furi_assert(output);
     3b6:	f04f 0c01 	mov.w	ip, #1

000003ba <sukima1153>:
     3ba:	4b0e      	ldr	r3, [pc, #56]	@ (3f4 <sukima1153+0x3a>)
     3bc:	4798      	blx	r3
        furi_string_cat_printf(output, "Possible actions: \r\n");
     3be:	490e      	ldr	r1, [pc, #56]	@ (3f8 <sukima1153+0x3e>)
     3c0:	4630      	mov	r0, r6
     3c2:	4b0e      	ldr	r3, [pc, #56]	@ (3fc <sukima1153+0x42>)
     3c4:	4798      	blx	r3
        for(size_t i = 0; i < cmd->action_count; i++) {
     3c6:	2400      	movs	r4, #0
     3c8:	e005      	b.n	3d6 <sukima1153+0x1c>
            furi_string_cat_printf(
     3ca:	490d      	ldr	r1, [pc, #52]	@ (400 <sukima1153+0x46>)
     3cc:	6812      	ldr	r2, [r2, #0]
     3ce:	4630      	mov	r0, r6
     3d0:	4f0a      	ldr	r7, [pc, #40]	@ (3fc <sukima1153+0x42>)
     3d2:	47b8      	blx	r7
        for(size_t i = 0; i < cmd->action_count; i++) {
     3d4:	3401      	adds	r4, #1
     3d6:	68ab      	ldr	r3, [r5, #8]
     3d8:	42a3      	cmp	r3, r4
     3da:	d9e7      	bls.n	3ac <nfc_cli_command_format_info+0x1c>
            const NfcCliActionDescriptor* action = cmd->actions[i];
     3dc:	68eb      	ldr	r3, [r5, #12]
     3de:	f853 2024 	ldr.w	r2, [r3, r4, lsl #2]
                action->description ? "\t%s\t-\t%s\r\n" : "%s\r\n",
     3e2:	6853      	ldr	r3, [r2, #4]
            furi_string_cat_printf(
     3e4:	2b00      	cmp	r3, #0
     3e6:	d0f0      	beq.n	3ca <sukima1153+0x10>
     3e8:	4906      	ldr	r1, [pc, #24]	@ (404 <sukima1153+0x4a>)
     3ea:	e7ef      	b.n	3cc <sukima1153+0x12>
     3ec:	00000144 	.word	0x00000144
	...
     3f8:	00000150 	.word	0x00000150
     3fc:	00000000 	.word	0x00000000
     400:	0000013c 	.word	0x0000013c
     404:	00000130 	.word	0x00000130

00000408 <nfc_cli_scanner_detect_callback>:
void nfc_cli_scanner_free(NfcCliScanner* instance) {
    furi_assert(instance);
    free(instance);
}

static void nfc_cli_scanner_detect_callback(NfcScannerEvent event, void* context) {
     408:	b510      	push	{r4, lr}
     40a:	b084      	sub	sp, #16
     40c:	ac04      	add	r4, sp, #16
     40e:	e904 0007 	stmdb	r4, {r0, r1, r2}
    furi_assert(context);
     412:	b12b      	cbz	r3, 420 <nfc_cli_scanner_detect_callback+0x18>
     414:	461c      	mov	r4, r3
    NfcCliScanner* instance = context;

    if(event.type == NfcScannerEventTypeDetected) {
     416:	f89d 3004 	ldrb.w	r3, [sp, #4]
     41a:	b12b      	cbz	r3, 428 <sukima53+0x4>
            instance->protocols_detected,
            event.data.protocols,
            event.data.protocol_num * sizeof(NfcProtocol));
        furi_thread_flags_set(instance->thread_id, NFC_CLI_SCANNER_FLAG_DETECTED);
    }
}
     41c:	b004      	add	sp, #16
     41e:	bd10      	pop	{r4, pc}
    furi_assert(context);
     420:	f04f 0c01 	mov.w	ip, #1

00000424 <sukima53>:
     424:	4b06      	ldr	r3, [pc, #24]	@ (440 <sukima53+0x1c>)
     426:	4798      	blx	r3
        instance->protocols_detected_num = event.data.protocol_num;
     428:	9a02      	ldr	r2, [sp, #8]
     42a:	6062      	str	r2, [r4, #4]
        memcpy(
     42c:	9903      	ldr	r1, [sp, #12]
     42e:	f104 0008 	add.w	r0, r4, #8
     432:	4b04      	ldr	r3, [pc, #16]	@ (444 <sukima53+0x20>)
     434:	4798      	blx	r3
        furi_thread_flags_set(instance->thread_id, NFC_CLI_SCANNER_FLAG_DETECTED);
     436:	2101      	movs	r1, #1
     438:	6960      	ldr	r0, [r4, #20]
     43a:	4b03      	ldr	r3, [pc, #12]	@ (448 <sukima53+0x24>)
     43c:	4798      	blx	r3
}
     43e:	e7ed      	b.n	41c <nfc_cli_scanner_detect_callback+0x14>
	...

0000044c <nfc_cli_scanner_alloc>:
NfcCliScanner* nfc_cli_scanner_alloc(Nfc* nfc) {
     44c:	b538      	push	{r3, r4, r5, lr}
     44e:	4605      	mov	r5, r0
    NfcCliScanner* instance = malloc(sizeof(NfcCliScanner));
     450:	201c      	movs	r0, #28
     452:	4b04      	ldr	r3, [pc, #16]	@ (464 <nfc_cli_scanner_alloc+0x18>)
     454:	4798      	blx	r3
     456:	4604      	mov	r4, r0
    instance->nfc = nfc;
     458:	6005      	str	r5, [r0, #0]
    instance->thread_id = furi_thread_get_current_id();
     45a:	4b03      	ldr	r3, [pc, #12]	@ (468 <nfc_cli_scanner_alloc+0x1c>)
     45c:	4798      	blx	r3
     45e:	6160      	str	r0, [r4, #20]
}
     460:	4620      	mov	r0, r4
     462:	bd38      	pop	{r3, r4, r5, pc}
	...

0000046c <nfc_cli_scanner_free>:
void nfc_cli_scanner_free(NfcCliScanner* instance) {
     46c:	b508      	push	{r3, lr}
    furi_assert(instance);
     46e:	b110      	cbz	r0, 476 <nfc_cli_scanner_free+0xa>
    free(instance);
     470:	4b03      	ldr	r3, [pc, #12]	@ (480 <sukima165+0x6>)
     472:	4798      	blx	r3
}
     474:	bd08      	pop	{r3, pc}
    furi_assert(instance);
     476:	f04f 0c01 	mov.w	ip, #1

0000047a <sukima165>:
     47a:	4b02      	ldr	r3, [pc, #8]	@ (484 <sukima165+0xa>)
     47c:	4798      	blx	r3
     47e:	bf00      	nop
	...

00000488 <nfc_cli_scanner_detect_protocol>:

bool nfc_cli_scanner_detect_protocol(NfcCliScanner* instance, uint32_t timeout) {
     488:	b538      	push	{r3, r4, r5, lr}
     48a:	4604      	mov	r4, r0
     48c:	460d      	mov	r5, r1
    instance->scanner = nfc_scanner_alloc(instance->nfc);
     48e:	6800      	ldr	r0, [r0, #0]
     490:	4b0b      	ldr	r3, [pc, #44]	@ (4c0 <nfc_cli_scanner_detect_protocol+0x38>)
     492:	4798      	blx	r3
     494:	61a0      	str	r0, [r4, #24]
    nfc_scanner_start(instance->scanner, nfc_cli_scanner_detect_callback, instance);
     496:	4622      	mov	r2, r4
     498:	490a      	ldr	r1, [pc, #40]	@ (4c4 <nfc_cli_scanner_detect_protocol+0x3c>)
     49a:	4b0b      	ldr	r3, [pc, #44]	@ (4c8 <nfc_cli_scanner_detect_protocol+0x40>)
     49c:	4798      	blx	r3
    uint32_t event =
        furi_thread_flags_wait(NFC_CLI_SCANNER_FLAG_DETECTED, FuriFlagWaitAny, timeout);
     49e:	462a      	mov	r2, r5
     4a0:	2100      	movs	r1, #0
     4a2:	2001      	movs	r0, #1
     4a4:	4b09      	ldr	r3, [pc, #36]	@ (4cc <nfc_cli_scanner_detect_protocol+0x44>)
     4a6:	4798      	blx	r3
     4a8:	4605      	mov	r5, r0
    nfc_scanner_stop(instance->scanner);
     4aa:	69a0      	ldr	r0, [r4, #24]
     4ac:	4b08      	ldr	r3, [pc, #32]	@ (4d0 <nfc_cli_scanner_detect_protocol+0x48>)
     4ae:	4798      	blx	r3
    nfc_scanner_free(instance->scanner);
     4b0:	69a0      	ldr	r0, [r4, #24]
     4b2:	4b08      	ldr	r3, [pc, #32]	@ (4d4 <nfc_cli_scanner_detect_protocol+0x4c>)
     4b4:	4798      	blx	r3
    return (event == NFC_CLI_SCANNER_FLAG_DETECTED);
}
     4b6:	2d01      	cmp	r5, #1
     4b8:	bf14      	ite	ne
     4ba:	2000      	movne	r0, #0
     4bc:	2001      	moveq	r0, #1
     4be:	bd38      	pop	{r3, r4, r5, pc}
	...

000004d8 <nfc_cli_scanner_begin_scan>:

void nfc_cli_scanner_begin_scan(NfcCliScanner* instance) {
     4d8:	b510      	push	{r4, lr}
     4da:	4604      	mov	r4, r0
    instance->scanner = nfc_scanner_alloc(instance->nfc);
     4dc:	6800      	ldr	r0, [r0, #0]
     4de:	4b04      	ldr	r3, [pc, #16]	@ (4f0 <nfc_cli_scanner_begin_scan+0x18>)
     4e0:	4798      	blx	r3
     4e2:	61a0      	str	r0, [r4, #24]
    nfc_scanner_start(instance->scanner, nfc_cli_scanner_detect_callback, instance);
     4e4:	4622      	mov	r2, r4
     4e6:	4903      	ldr	r1, [pc, #12]	@ (4f4 <nfc_cli_scanner_begin_scan+0x1c>)
     4e8:	4b03      	ldr	r3, [pc, #12]	@ (4f8 <nfc_cli_scanner_begin_scan+0x20>)
     4ea:	4798      	blx	r3
}
     4ec:	bd10      	pop	{r4, pc}
     4ee:	bf00      	nop
	...

000004fc <nfc_cli_scanner_wait_scan>:

bool nfc_cli_scanner_wait_scan(NfcCliScanner* instance, uint32_t timeout) {
     4fc:	b508      	push	{r3, lr}
     4fe:	460a      	mov	r2, r1
    UNUSED(instance);
    uint32_t event =
        furi_thread_flags_wait(NFC_CLI_SCANNER_FLAG_DETECTED, FuriFlagWaitAny, timeout);
     500:	2100      	movs	r1, #0
     502:	2001      	movs	r0, #1
     504:	4b03      	ldr	r3, [pc, #12]	@ (514 <nfc_cli_scanner_wait_scan+0x18>)
     506:	4798      	blx	r3
    return (event == NFC_CLI_SCANNER_FLAG_DETECTED);
}
     508:	2801      	cmp	r0, #1
     50a:	bf14      	ite	ne
     50c:	2000      	movne	r0, #0
     50e:	2001      	moveq	r0, #1
     510:	bd08      	pop	{r3, pc}
     512:	bf00      	nop
     514:	00000000 	.word	0x00000000

00000518 <nfc_cli_scanner_end_scan>:

void nfc_cli_scanner_end_scan(NfcCliScanner* instance) {
     518:	b510      	push	{r4, lr}
     51a:	4604      	mov	r4, r0
    nfc_scanner_stop(instance->scanner);
     51c:	6980      	ldr	r0, [r0, #24]
     51e:	4b03      	ldr	r3, [pc, #12]	@ (52c <nfc_cli_scanner_end_scan+0x14>)
     520:	4798      	blx	r3
    nfc_scanner_free(instance->scanner);
     522:	69a0      	ldr	r0, [r4, #24]
     524:	4b02      	ldr	r3, [pc, #8]	@ (530 <nfc_cli_scanner_end_scan+0x18>)
     526:	4798      	blx	r3
}
     528:	bd10      	pop	{r4, pc}
     52a:	bf00      	nop
	...

00000534 <nfc_cli_scanner_list_detected_protocols>:

void nfc_cli_scanner_list_detected_protocols(NfcCliScanner* instance) {
     534:	b570      	push	{r4, r5, r6, lr}
     536:	4606      	mov	r6, r0
    printf("Protocols detected: ");
     538:	480b      	ldr	r0, [pc, #44]	@ (568 <nfc_cli_scanner_list_detected_protocols+0x34>)
     53a:	4b0c      	ldr	r3, [pc, #48]	@ (56c <nfc_cli_scanner_list_detected_protocols+0x38>)
     53c:	4798      	blx	r3
    size_t n = instance->protocols_detected_num;
     53e:	6875      	ldr	r5, [r6, #4]
    for(size_t i = 0; i < n; i++) {
     540:	2400      	movs	r4, #0
     542:	e003      	b.n	54c <nfc_cli_scanner_list_detected_protocols+0x18>
        const char* name = nfc_cli_get_protocol_name(instance->protocols_detected[i]);
        printf((i == (n - 1)) ? "%s\r\n" : "%s, ", name);
     544:	480a      	ldr	r0, [pc, #40]	@ (570 <nfc_cli_scanner_list_detected_protocols+0x3c>)
     546:	4b09      	ldr	r3, [pc, #36]	@ (56c <nfc_cli_scanner_list_detected_protocols+0x38>)
     548:	4798      	blx	r3
    for(size_t i = 0; i < n; i++) {
     54a:	3401      	adds	r4, #1
     54c:	42ac      	cmp	r4, r5
     54e:	d209      	bcs.n	564 <nfc_cli_scanner_list_detected_protocols+0x30>
        const char* name = nfc_cli_get_protocol_name(instance->protocols_detected[i]);
     550:	1933      	adds	r3, r6, r4
     552:	7a18      	ldrb	r0, [r3, #8]
     554:	4b07      	ldr	r3, [pc, #28]	@ (574 <nfc_cli_scanner_list_detected_protocols+0x40>)
     556:	4798      	blx	r3
     558:	4601      	mov	r1, r0
        printf((i == (n - 1)) ? "%s\r\n" : "%s, ", name);
     55a:	1e6b      	subs	r3, r5, #1
     55c:	42a3      	cmp	r3, r4
     55e:	d0f1      	beq.n	544 <nfc_cli_scanner_list_detected_protocols+0x10>
     560:	4805      	ldr	r0, [pc, #20]	@ (578 <nfc_cli_scanner_list_detected_protocols+0x44>)
     562:	e7f0      	b.n	546 <nfc_cli_scanner_list_detected_protocols+0x12>
    }
}
     564:	bd70      	pop	{r4, r5, r6, pc}
     566:	bf00      	nop
     568:	00000194 	.word	0x00000194
     56c:	00000000 	.word	0x00000000
     570:	00000184 	.word	0x00000184
     574:	00000000 	.word	0x00000000
     578:	0000018c 	.word	0x0000018c

0000057c <nfc_cli_scanner_get_protocol>:
        if(instance->protocols_detected[i] == protocol) return true;
    }
    return false;
}

NfcProtocol nfc_cli_scanner_get_protocol(NfcCliScanner* instance, size_t idx) {
     57c:	b508      	push	{r3, lr}
    furi_assert(instance);
     57e:	b130      	cbz	r0, 58e <nfc_cli_scanner_get_protocol+0x12>
     580:	4603      	mov	r3, r0
    furi_assert(idx < instance->protocols_detected_num);
     582:	6842      	ldr	r2, [r0, #4]
     584:	428a      	cmp	r2, r1
     586:	d906      	bls.n	596 <sukima618+0x4>
    return instance->protocols_detected[idx];
     588:	440b      	add	r3, r1
}
     58a:	7a18      	ldrb	r0, [r3, #8]
     58c:	bd08      	pop	{r3, pc}
    furi_assert(instance);
     58e:	f04f 0c01 	mov.w	ip, #1

00000592 <sukima618>:
     592:	4b03      	ldr	r3, [pc, #12]	@ (5a0 <sukima635+0x6>)
     594:	4798      	blx	r3
    furi_assert(idx < instance->protocols_detected_num);
     596:	f04f 0c01 	mov.w	ip, #1

0000059a <sukima635>:
     59a:	4b01      	ldr	r3, [pc, #4]	@ (5a0 <sukima635+0x6>)
     59c:	4798      	blx	r3
     59e:	bf00      	nop
     5a0:	00000000 	.word	0x00000000

000005a4 <nfc_cli_scanner_detected_protocol_num>:

size_t nfc_cli_scanner_detected_protocol_num(NfcCliScanner* instance) {
     5a4:	b508      	push	{r3, lr}
    furi_assert(instance);
     5a6:	b108      	cbz	r0, 5ac <nfc_cli_scanner_detected_protocol_num+0x8>
    return instance->protocols_detected_num;
}
     5a8:	6840      	ldr	r0, [r0, #4]
     5aa:	bd08      	pop	{r3, pc}
    furi_assert(instance);
     5ac:	f04f 0c01 	mov.w	ip, #1

000005b0 <sukima682>:
     5b0:	4b00      	ldr	r3, [pc, #0]	@ (5b4 <sukima682+0x4>)
     5b2:	4798      	blx	r3
     5b4:	00000000 	.word	0x00000000

000005b8 <nfc_cli_get_protocol_name>:
    [NfcProtocolMfPlus] = "Mifare Plus",
    [NfcProtocolSlix] = "Slix",
    [NfcProtocolSt25tb] = "St25tb",
};

const char* nfc_cli_get_protocol_name(NfcProtocol protocol) {
     5b8:	b508      	push	{r3, lr}
    furi_assert(protocol < NfcProtocolNum);
     5ba:	280b      	cmp	r0, #11
     5bc:	d803      	bhi.n	5c6 <nfc_cli_get_protocol_name+0xe>
    return protocol_names[protocol];
}
     5be:	4b04      	ldr	r3, [pc, #16]	@ (5d0 <sukima34+0x6>)
     5c0:	f853 0020 	ldr.w	r0, [r3, r0, lsl #2]
     5c4:	bd08      	pop	{r3, pc}
    furi_assert(protocol < NfcProtocolNum);
     5c6:	f04f 0c01 	mov.w	ip, #1

000005ca <sukima34>:
     5ca:	4b02      	ldr	r3, [pc, #8]	@ (5d4 <sukima34+0xa>)
     5cc:	4798      	blx	r3
     5ce:	bf00      	nop
     5d0:	000002a0 	.word	0x000002a0
     5d4:	00000000 	.word	0x00000000

000005d8 <nfc_cli_mf_ultralight_get_error>:
    [MfUltralightErrorProtocol] = "Protocol failure",
    [MfUltralightErrorAuth] = "Auth failed",
    [MfUltralightErrorTimeout] = "Timeout",
};

const char* nfc_cli_mf_ultralight_get_error(MfUltralightError error) {
     5d8:	b508      	push	{r3, lr}
    furi_assert(error < COUNT_OF(mf_ultralight_error_names));
     5da:	2804      	cmp	r0, #4
     5dc:	d803      	bhi.n	5e6 <nfc_cli_mf_ultralight_get_error+0xe>
    return mf_ultralight_error_names[error];
}
     5de:	4b04      	ldr	r3, [pc, #16]	@ (5f0 <sukima82+0x6>)
     5e0:	f853 0020 	ldr.w	r0, [r3, r0, lsl #2]
     5e4:	bd08      	pop	{r3, pc}
    furi_assert(error < COUNT_OF(mf_ultralight_error_names));
     5e6:	f04f 0c01 	mov.w	ip, #1

000005ea <sukima82>:
     5ea:	4b02      	ldr	r3, [pc, #8]	@ (5f4 <sukima82+0xa>)
     5ec:	4798      	blx	r3
     5ee:	bf00      	nop
     5f0:	0000028c 	.word	0x0000028c
     5f4:	00000000 	.word	0x00000000

000005f8 <nfc_cli_format_array>:

void nfc_cli_format_array(
    const uint8_t* data,
    const size_t data_size,
    const char* header,
    FuriString* output) {
     5f8:	e92d 41f0 	stmdb	sp!, {r4, r5, r6, r7, r8, lr}
    furi_assert(data);
     5fc:	b158      	cbz	r0, 616 <nfc_cli_format_array+0x1e>
     5fe:	460f      	mov	r7, r1
     600:	461e      	mov	r6, r3
     602:	4680      	mov	r8, r0
    furi_assert(data_size > 0);
     604:	b159      	cbz	r1, 61e <sukima175+0x4>
    furi_assert(header);
     606:	b172      	cbz	r2, 626 <sukima196+0x4>
    furi_assert(output);
     608:	b18b      	cbz	r3, 62e <sukima217+0x4>

    furi_string_cat_printf(output, "%s", header);
     60a:	4910      	ldr	r1, [pc, #64]	@ (64c <sukima238+0x1a>)
     60c:	4618      	mov	r0, r3
     60e:	4b10      	ldr	r3, [pc, #64]	@ (650 <sukima238+0x1e>)
     610:	4798      	blx	r3
    for(size_t i = 0; i < data_size; i++) {
     612:	2400      	movs	r4, #0
     614:	e016      	b.n	644 <sukima238+0x12>
    furi_assert(data);
     616:	f04f 0c01 	mov.w	ip, #1

0000061a <sukima175>:
     61a:	4b0e      	ldr	r3, [pc, #56]	@ (654 <sukima238+0x22>)
     61c:	4798      	blx	r3
    furi_assert(data_size > 0);
     61e:	f04f 0c01 	mov.w	ip, #1

00000622 <sukima196>:
     622:	4b0c      	ldr	r3, [pc, #48]	@ (654 <sukima238+0x22>)
     624:	4798      	blx	r3
    furi_assert(header);
     626:	f04f 0c01 	mov.w	ip, #1

0000062a <sukima217>:
     62a:	4b0a      	ldr	r3, [pc, #40]	@ (654 <sukima238+0x22>)
     62c:	4798      	blx	r3
    furi_assert(output);
     62e:	f04f 0c01 	mov.w	ip, #1

00000632 <sukima238>:
     632:	4b08      	ldr	r3, [pc, #32]	@ (654 <sukima238+0x22>)
     634:	4798      	blx	r3
        furi_string_cat_printf(output, "%02X ", data[i]);
     636:	f818 2004 	ldrb.w	r2, [r8, r4]
     63a:	4907      	ldr	r1, [pc, #28]	@ (658 <sukima238+0x26>)
     63c:	4630      	mov	r0, r6
     63e:	4d04      	ldr	r5, [pc, #16]	@ (650 <sukima238+0x1e>)
     640:	47a8      	blx	r5
    for(size_t i = 0; i < data_size; i++) {
     642:	3401      	adds	r4, #1
     644:	42bc      	cmp	r4, r7
     646:	d3f6      	bcc.n	636 <sukima238+0x4>
    }
}
     648:	e8bd 81f0 	ldmia.w	sp!, {r4, r5, r6, r7, r8, pc}
     64c:	000001ac 	.word	0x000001ac
	...
     658:	000001b0 	.word	0x000001b0

0000065c <nfc_cli_printf_array>:

void nfc_cli_printf_array(const uint8_t* data, const size_t data_size, const char* header) {
     65c:	b570      	push	{r4, r5, r6, lr}
    furi_assert(data);
     65e:	b148      	cbz	r0, 674 <nfc_cli_printf_array+0x18>
     660:	460d      	mov	r5, r1
     662:	4611      	mov	r1, r2
     664:	4606      	mov	r6, r0
    furi_assert(data_size > 0);
     666:	b14d      	cbz	r5, 67c <sukima358+0x4>
    furi_assert(header);
     668:	b162      	cbz	r2, 684 <sukima377+0x4>

    printf("%s", header);
     66a:	480c      	ldr	r0, [pc, #48]	@ (69c <sukima394+0x14>)
     66c:	4b0c      	ldr	r3, [pc, #48]	@ (6a0 <sukima394+0x18>)
     66e:	4798      	blx	r3
    for(size_t i = 0; i < data_size; i++) {
     670:	2400      	movs	r4, #0
     672:	e010      	b.n	696 <sukima394+0xe>
    furi_assert(data);
     674:	f04f 0c01 	mov.w	ip, #1

00000678 <sukima358>:
     678:	4b0a      	ldr	r3, [pc, #40]	@ (6a4 <sukima394+0x1c>)
     67a:	4798      	blx	r3
    furi_assert(data_size > 0);
     67c:	f04f 0c01 	mov.w	ip, #1

00000680 <sukima377>:
     680:	4b08      	ldr	r3, [pc, #32]	@ (6a4 <sukima394+0x1c>)
     682:	4798      	blx	r3
    furi_assert(header);
     684:	f04f 0c01 	mov.w	ip, #1

00000688 <sukima394>:
     688:	4b06      	ldr	r3, [pc, #24]	@ (6a4 <sukima394+0x1c>)
     68a:	4798      	blx	r3
        printf("%02X ", data[i]);
     68c:	5d31      	ldrb	r1, [r6, r4]
     68e:	4806      	ldr	r0, [pc, #24]	@ (6a8 <sukima394+0x20>)
     690:	4b03      	ldr	r3, [pc, #12]	@ (6a0 <sukima394+0x18>)
     692:	4798      	blx	r3
    for(size_t i = 0; i < data_size; i++) {
     694:	3401      	adds	r4, #1
     696:	42ac      	cmp	r4, r5
     698:	d3f8      	bcc.n	68c <sukima394+0x4>
    }
}
     69a:	bd70      	pop	{r4, r5, r6, pc}
     69c:	000001ac 	.word	0x000001ac
	...
     6a8:	000001b0 	.word	0x000001b0

000006ac <nfc_cli_dump_poller_callback_iso14443_3a>:
#include "nfc_cli_dump_iso14443_3a.h"
#include <nfc/protocols/iso14443_3a/iso14443_3a_poller.h>

NfcCommand nfc_cli_dump_poller_callback_iso14443_3a(NfcGenericEvent event, void* context) {
     6ac:	b530      	push	{r4, r5, lr}
     6ae:	b085      	sub	sp, #20
     6b0:	ac04      	add	r4, sp, #16
     6b2:	e904 0007 	stmdb	r4, {r0, r1, r2}
    furi_assert(event.protocol == NfcProtocolIso14443_3a);
     6b6:	f89d 0004 	ldrb.w	r0, [sp, #4]
     6ba:	b938      	cbnz	r0, 6cc <nfc_cli_dump_poller_callback_iso14443_3a+0x20>
     6bc:	461c      	mov	r4, r3

    NfcCliDumpContext* instance = context;
    const Iso14443_3aPollerEvent* iso14443_3a_event = event.event_data;
     6be:	9b03      	ldr	r3, [sp, #12]

    NfcCommand command = NfcCommandContinue;
    if(iso14443_3a_event->type == Iso14443_3aPollerEventTypeReady) {
     6c0:	781a      	ldrb	r2, [r3, #0]
     6c2:	2a01      	cmp	r2, #1
     6c4:	d006      	beq.n	6d4 <sukima70+0x4>
        nfc_device_set_data(
            instance->nfc_device, NfcProtocolIso14443_3a, nfc_poller_get_data(instance->poller));
        command = NfcCommandStop;
    } else if(iso14443_3a_event->type == Iso14443_3aPollerEventTypeError) {
     6c6:	b17a      	cbz	r2, 6e8 <sukima70+0x18>
    if(command == NfcCommandStop) {
        furi_semaphore_release(instance->sem_done);
    }

    return command;
}
     6c8:	b005      	add	sp, #20
     6ca:	bd30      	pop	{r4, r5, pc}
    furi_assert(event.protocol == NfcProtocolIso14443_3a);
     6cc:	f04f 0c01 	mov.w	ip, #1

000006d0 <sukima70>:
     6d0:	4b09      	ldr	r3, [pc, #36]	@ (6f8 <sukima70+0x28>)
     6d2:	4798      	blx	r3
        nfc_device_set_data(
     6d4:	6ba5      	ldr	r5, [r4, #56]	@ 0x38
     6d6:	6b60      	ldr	r0, [r4, #52]	@ 0x34
     6d8:	4b08      	ldr	r3, [pc, #32]	@ (6fc <sukima70+0x2c>)
     6da:	4798      	blx	r3
     6dc:	4602      	mov	r2, r0
     6de:	2100      	movs	r1, #0
     6e0:	4628      	mov	r0, r5
     6e2:	4b07      	ldr	r3, [pc, #28]	@ (700 <sukima70+0x30>)
     6e4:	4798      	blx	r3
    if(command == NfcCommandStop) {
     6e6:	e001      	b.n	6ec <sukima70+0x1c>
        instance->result = NfcCliDumpErrorFailedToRead;
     6e8:	2303      	movs	r3, #3
     6ea:	7723      	strb	r3, [r4, #28]
        furi_semaphore_release(instance->sem_done);
     6ec:	69a0      	ldr	r0, [r4, #24]
     6ee:	4b05      	ldr	r3, [pc, #20]	@ (704 <sukima70+0x34>)
     6f0:	4798      	blx	r3
     6f2:	2002      	movs	r0, #2
     6f4:	e7e8      	b.n	6c8 <nfc_cli_dump_poller_callback_iso14443_3a+0x1c>
     6f6:	bf00      	nop
	...

00000708 <nfc_cli_dump_poller_callback_iso14443_4a>:
#include "nfc_cli_dump_iso14443_4a.h"
#include <nfc/protocols/iso14443_4a/iso14443_4a_poller.h>

NfcCommand nfc_cli_dump_poller_callback_iso14443_4a(NfcGenericEvent event, void* context) {
     708:	b570      	push	{r4, r5, r6, lr}
     70a:	b084      	sub	sp, #16
     70c:	ac04      	add	r4, sp, #16
     70e:	e904 0007 	stmdb	r4, {r0, r1, r2}
    furi_assert(event.protocol == NfcProtocolIso14443_4a);
     712:	f89d 5004 	ldrb.w	r5, [sp, #4]
     716:	2d02      	cmp	r5, #2
     718:	d109      	bne.n	72e <nfc_cli_dump_poller_callback_iso14443_4a+0x26>
     71a:	461c      	mov	r4, r3

    NfcCliDumpContext* instance = context;
    const Iso14443_4aPollerEvent* iso14443_4a_event = event.event_data;
     71c:	9b03      	ldr	r3, [sp, #12]

    NfcCommand command = NfcCommandContinue;
    if(iso14443_4a_event->type == Iso14443_4aPollerEventTypeReady) {
     71e:	781b      	ldrb	r3, [r3, #0]
     720:	2b01      	cmp	r3, #1
     722:	d008      	beq.n	736 <sukima74+0x4>
        nfc_device_set_data(
            instance->nfc_device, NfcProtocolIso14443_4a, nfc_poller_get_data(instance->poller));
        instance->result = NfcCliDumpErrorNone;
        command = NfcCommandStop;
    } else if(iso14443_4a_event->type == Iso14443_4aPollerEventTypeError) {
     724:	b19b      	cbz	r3, 74e <sukima74+0x1c>
    NfcCommand command = NfcCommandContinue;
     726:	2500      	movs	r5, #0
    if(command == NfcCommandStop) {
        furi_semaphore_release(instance->sem_done);
    }

    return command;
}
     728:	4628      	mov	r0, r5
     72a:	b004      	add	sp, #16
     72c:	bd70      	pop	{r4, r5, r6, pc}
    furi_assert(event.protocol == NfcProtocolIso14443_4a);
     72e:	f04f 0c01 	mov.w	ip, #1

00000732 <sukima74>:
     732:	4b0a      	ldr	r3, [pc, #40]	@ (75c <sukima74+0x2a>)
     734:	4798      	blx	r3
        nfc_device_set_data(
     736:	6ba6      	ldr	r6, [r4, #56]	@ 0x38
     738:	6b60      	ldr	r0, [r4, #52]	@ 0x34
     73a:	4b09      	ldr	r3, [pc, #36]	@ (760 <sukima74+0x2e>)
     73c:	4798      	blx	r3
     73e:	4602      	mov	r2, r0
     740:	2102      	movs	r1, #2
     742:	4630      	mov	r0, r6
     744:	4b07      	ldr	r3, [pc, #28]	@ (764 <sukima74+0x32>)
     746:	4798      	blx	r3
        instance->result = NfcCliDumpErrorNone;
     748:	2300      	movs	r3, #0
     74a:	7723      	strb	r3, [r4, #28]
    if(command == NfcCommandStop) {
     74c:	e001      	b.n	752 <sukima74+0x20>
        instance->result = NfcCliDumpErrorFailedToRead;
     74e:	2303      	movs	r3, #3
     750:	7723      	strb	r3, [r4, #28]
        furi_semaphore_release(instance->sem_done);
     752:	69a0      	ldr	r0, [r4, #24]
     754:	4b04      	ldr	r3, [pc, #16]	@ (768 <sukima74+0x36>)
     756:	4798      	blx	r3
     758:	e7e6      	b.n	728 <nfc_cli_dump_poller_callback_iso14443_4a+0x20>
     75a:	bf00      	nop
	...

0000076c <nfc_cli_dump_poller_callback_iso15693_3>:
#include "nfc_cli_dump_iso15693_3.h"
#include <nfc/protocols/iso15693_3/iso15693_3_poller.h>

NfcCommand nfc_cli_dump_poller_callback_iso15693_3(NfcGenericEvent event, void* context) {
     76c:	b530      	push	{r4, r5, lr}
     76e:	b085      	sub	sp, #20
     770:	ac04      	add	r4, sp, #16
     772:	e904 0007 	stmdb	r4, {r0, r1, r2}
     776:	461c      	mov	r4, r3
    furi_assert(event.protocol == NfcProtocolIso15693_3);
     778:	f89d 3004 	ldrb.w	r3, [sp, #4]
     77c:	2b04      	cmp	r3, #4
     77e:	d107      	bne.n	790 <nfc_cli_dump_poller_callback_iso15693_3+0x24>

    NfcCliDumpContext* instance = context;
    const Iso15693_3PollerEvent* iso15693_3_event = event.event_data;
     780:	9b03      	ldr	r3, [sp, #12]

    NfcCommand command = NfcCommandContinue;
    if(iso15693_3_event->type == Iso15693_3PollerEventTypeReady) {
     782:	781b      	ldrb	r3, [r3, #0]
     784:	2b01      	cmp	r3, #1
     786:	d007      	beq.n	798 <sukima71+0x4>
        nfc_device_set_data(
            instance->nfc_device, NfcProtocolIso15693_3, nfc_poller_get_data(instance->poller));
        instance->result = NfcCliDumpErrorFailedToRead;
        command = NfcCommandStop;
    } else if(iso15693_3_event->type == Iso15693_3PollerEventTypeError) {
     788:	b193      	cbz	r3, 7b0 <sukima71+0x1c>
    NfcCommand command = NfcCommandContinue;
     78a:	2000      	movs	r0, #0
    if(command == NfcCommandStop) {
        furi_semaphore_release(instance->sem_done);
    }

    return command;
}
     78c:	b005      	add	sp, #20
     78e:	bd30      	pop	{r4, r5, pc}
    furi_assert(event.protocol == NfcProtocolIso15693_3);
     790:	f04f 0c01 	mov.w	ip, #1

00000794 <sukima71>:
     794:	4b0a      	ldr	r3, [pc, #40]	@ (7c0 <sukima71+0x2c>)
     796:	4798      	blx	r3
        nfc_device_set_data(
     798:	6ba5      	ldr	r5, [r4, #56]	@ 0x38
     79a:	6b60      	ldr	r0, [r4, #52]	@ 0x34
     79c:	4b09      	ldr	r3, [pc, #36]	@ (7c4 <sukima71+0x30>)
     79e:	4798      	blx	r3
     7a0:	4602      	mov	r2, r0
     7a2:	2104      	movs	r1, #4
     7a4:	4628      	mov	r0, r5
     7a6:	4b08      	ldr	r3, [pc, #32]	@ (7c8 <sukima71+0x34>)
     7a8:	4798      	blx	r3
        instance->result = NfcCliDumpErrorFailedToRead;
     7aa:	2303      	movs	r3, #3
     7ac:	7723      	strb	r3, [r4, #28]
    if(command == NfcCommandStop) {
     7ae:	e001      	b.n	7b4 <sukima71+0x20>
        instance->result = NfcCliDumpErrorFailedToRead;
     7b0:	2303      	movs	r3, #3
     7b2:	7723      	strb	r3, [r4, #28]
        furi_semaphore_release(instance->sem_done);
     7b4:	69a0      	ldr	r0, [r4, #24]
     7b6:	4b05      	ldr	r3, [pc, #20]	@ (7cc <sukima71+0x38>)
     7b8:	4798      	blx	r3
     7ba:	2002      	movs	r0, #2
     7bc:	e7e6      	b.n	78c <nfc_cli_dump_poller_callback_iso15693_3+0x20>
     7be:	bf00      	nop
	...

000007d0 <nfc_render_iso14443_3a_format_bytes>:
#include "iso14443_3a_render.h"

void nfc_render_iso14443_3a_format_bytes(FuriString* str, const uint8_t* data, size_t size) {
     7d0:	b5f8      	push	{r3, r4, r5, r6, r7, lr}
     7d2:	4607      	mov	r7, r0
     7d4:	460e      	mov	r6, r1
     7d6:	4615      	mov	r5, r2
    for(size_t i = 0; i < size; i++) {
     7d8:	2400      	movs	r4, #0
     7da:	e005      	b.n	7e8 <nfc_render_iso14443_3a_format_bytes+0x18>
        furi_string_cat_printf(str, " %02X", data[i]);
     7dc:	5d32      	ldrb	r2, [r6, r4]
     7de:	4904      	ldr	r1, [pc, #16]	@ (7f0 <nfc_render_iso14443_3a_format_bytes+0x20>)
     7e0:	4638      	mov	r0, r7
     7e2:	4b04      	ldr	r3, [pc, #16]	@ (7f4 <nfc_render_iso14443_3a_format_bytes+0x24>)
     7e4:	4798      	blx	r3
    for(size_t i = 0; i < size; i++) {
     7e6:	3401      	adds	r4, #1
     7e8:	42ac      	cmp	r4, r5
     7ea:	d3f7      	bcc.n	7dc <nfc_render_iso14443_3a_format_bytes+0xc>
    }
}
     7ec:	bdf8      	pop	{r3, r4, r5, r6, r7, pc}
     7ee:	bf00      	nop
     7f0:	000002d0 	.word	0x000002d0
     7f4:	00000000 	.word	0x00000000

000007f8 <nfc_render_iso14443_tech_type>:

void nfc_render_iso14443_tech_type(const Iso14443_3aData* data, FuriString* str) {
     7f8:	b510      	push	{r4, lr}
     7fa:	460c      	mov	r4, r1
    const char iso_type = iso14443_3a_supports_iso14443_4(data) ? '4' : '3';
     7fc:	4b05      	ldr	r3, [pc, #20]	@ (814 <nfc_render_iso14443_tech_type+0x1c>)
     7fe:	4798      	blx	r3
     800:	b128      	cbz	r0, 80e <nfc_render_iso14443_tech_type+0x16>
     802:	2234      	movs	r2, #52	@ 0x34
    furi_string_cat_printf(str, "Tech: ISO 14443-%c (NFC-A)\n", iso_type);
     804:	4904      	ldr	r1, [pc, #16]	@ (818 <nfc_render_iso14443_tech_type+0x20>)
     806:	4620      	mov	r0, r4
     808:	4b04      	ldr	r3, [pc, #16]	@ (81c <nfc_render_iso14443_tech_type+0x24>)
     80a:	4798      	blx	r3
}
     80c:	bd10      	pop	{r4, pc}
    const char iso_type = iso14443_3a_supports_iso14443_4(data) ? '4' : '3';
     80e:	2233      	movs	r2, #51	@ 0x33
     810:	e7f8      	b.n	804 <nfc_render_iso14443_tech_type+0xc>
     812:	bf00      	nop
     814:	00000000 	.word	0x00000000
     818:	000002d8 	.word	0x000002d8
     81c:	00000000 	.word	0x00000000

00000820 <nfc_render_iso14443_3a_brief>:
    if(format_type == NfcProtocolFormatTypeFull) {
        nfc_render_iso14443_3a_extra(data, str);
    }
}

void nfc_render_iso14443_3a_brief(const Iso14443_3aData* data, FuriString* str) {
     820:	b538      	push	{r3, r4, r5, lr}
     822:	4605      	mov	r5, r0
     824:	460c      	mov	r4, r1
    furi_string_cat_printf(str, "UID:");
     826:	4905      	ldr	r1, [pc, #20]	@ (83c <nfc_render_iso14443_3a_brief+0x1c>)
     828:	4620      	mov	r0, r4
     82a:	4b05      	ldr	r3, [pc, #20]	@ (840 <nfc_render_iso14443_3a_brief+0x20>)
     82c:	4798      	blx	r3

    nfc_render_iso14443_3a_format_bytes(str, data->uid, data->uid_len);
     82e:	7aaa      	ldrb	r2, [r5, #10]
     830:	4629      	mov	r1, r5
     832:	4620      	mov	r0, r4
     834:	4b03      	ldr	r3, [pc, #12]	@ (844 <nfc_render_iso14443_3a_brief+0x24>)
     836:	4798      	blx	r3
}
     838:	bd38      	pop	{r3, r4, r5, pc}
     83a:	bf00      	nop
     83c:	000002f4 	.word	0x000002f4
	...

00000848 <nfc_render_iso14443_3a_extra>:

void nfc_render_iso14443_3a_extra(const Iso14443_3aData* data, FuriString* str) {
     848:	b570      	push	{r4, r5, r6, lr}
     84a:	4604      	mov	r4, r0
     84c:	460d      	mov	r5, r1
    furi_string_cat_printf(str, "\nATQA: %02X %02X  ", data->atqa[1], data->atqa[0]);
     84e:	7ac3      	ldrb	r3, [r0, #11]
     850:	7b02      	ldrb	r2, [r0, #12]
     852:	4904      	ldr	r1, [pc, #16]	@ (864 <nfc_render_iso14443_3a_extra+0x1c>)
     854:	4628      	mov	r0, r5
     856:	4e04      	ldr	r6, [pc, #16]	@ (868 <nfc_render_iso14443_3a_extra+0x20>)
     858:	47b0      	blx	r6
    furi_string_cat_printf(str, "\nSAK: %02X", data->sak);
     85a:	7b62      	ldrb	r2, [r4, #13]
     85c:	4903      	ldr	r1, [pc, #12]	@ (86c <nfc_render_iso14443_3a_extra+0x24>)
     85e:	4628      	mov	r0, r5
     860:	47b0      	blx	r6
}
     862:	bd70      	pop	{r4, r5, r6, pc}
     864:	000002fc 	.word	0x000002fc
     868:	00000000 	.word	0x00000000
     86c:	00000310 	.word	0x00000310

00000870 <nfc_render_iso14443_3a_info>:
    FuriString* str) {
     870:	b570      	push	{r4, r5, r6, lr}
     872:	4605      	mov	r5, r0
     874:	460c      	mov	r4, r1
     876:	4616      	mov	r6, r2
    if(format_type == NfcProtocolFormatTypeFull) {
     878:	2901      	cmp	r1, #1
     87a:	d006      	beq.n	88a <nfc_render_iso14443_3a_info+0x1a>
    nfc_render_iso14443_3a_brief(data, str);
     87c:	4631      	mov	r1, r6
     87e:	4628      	mov	r0, r5
     880:	4b06      	ldr	r3, [pc, #24]	@ (89c <nfc_render_iso14443_3a_info+0x2c>)
     882:	4798      	blx	r3
    if(format_type == NfcProtocolFormatTypeFull) {
     884:	2c01      	cmp	r4, #1
     886:	d004      	beq.n	892 <nfc_render_iso14443_3a_info+0x22>
}
     888:	bd70      	pop	{r4, r5, r6, pc}
        nfc_render_iso14443_tech_type(data, str);
     88a:	4611      	mov	r1, r2
     88c:	4b04      	ldr	r3, [pc, #16]	@ (8a0 <nfc_render_iso14443_3a_info+0x30>)
     88e:	4798      	blx	r3
     890:	e7f4      	b.n	87c <nfc_render_iso14443_3a_info+0xc>
        nfc_render_iso14443_3a_extra(data, str);
     892:	4631      	mov	r1, r6
     894:	4628      	mov	r0, r5
     896:	4b03      	ldr	r3, [pc, #12]	@ (8a4 <nfc_render_iso14443_3a_info+0x34>)
     898:	4798      	blx	r3
}
     89a:	e7f5      	b.n	888 <nfc_render_iso14443_3a_info+0x18>
	...

000008a8 <nfc_cli_shell_motd>:
    CliRegistry* registry;
    CliShell* shell;
    NfcCliProcessorContext* processor_context;
} NfcCliContext;

static void nfc_cli_shell_motd(void* context) {
     8a8:	b508      	push	{r3, lr}
    UNUSED(context);
    printf(ANSI_FG_BR_BLUE "\r\n"
     8aa:	4802      	ldr	r0, [pc, #8]	@ (8b4 <nfc_cli_shell_motd+0xc>)
     8ac:	4b02      	ldr	r3, [pc, #8]	@ (8b8 <nfc_cli_shell_motd+0x10>)
     8ae:	4798      	blx	r3
                           "                             000      0000     \r\n"
                           "                                     0000      \r\n"
                           "                                     0005      \r\n"
                           "\r\n" ANSI_FG_BR_WHITE "Welcome to NFC Command Line Interface!\r\n"
                           "Run `help` or `?` to list available commands\r\n" ANSI_RESET);
}
     8b0:	bd08      	pop	{r3, pc}
     8b2:	bf00      	nop
     8b4:	0000031c 	.word	0x0000031c
     8b8:	00000000 	.word	0x00000000

000008bc <nfc_cli_desktop_app_is_running>:
            callback,
            instance->processor_context);
    }
}

static bool nfc_cli_desktop_app_is_running() {
     8bc:	b538      	push	{r3, r4, r5, lr}
    FuriString* app_name = furi_string_alloc();
     8be:	4b0c      	ldr	r3, [pc, #48]	@ (8f0 <nfc_cli_desktop_app_is_running+0x34>)
     8c0:	4798      	blx	r3
     8c2:	4604      	mov	r4, r0
    Loader* ldr = furi_record_open(RECORD_LOADER);
     8c4:	480b      	ldr	r0, [pc, #44]	@ (8f4 <nfc_cli_desktop_app_is_running+0x38>)
     8c6:	4b0c      	ldr	r3, [pc, #48]	@ (8f8 <nfc_cli_desktop_app_is_running+0x3c>)
     8c8:	4798      	blx	r3
    bool result = false;

    if(loader_get_application_name(ldr, app_name)) {
     8ca:	4621      	mov	r1, r4
     8cc:	4b0b      	ldr	r3, [pc, #44]	@ (8fc <nfc_cli_desktop_app_is_running+0x40>)
     8ce:	4798      	blx	r3
     8d0:	4605      	mov	r5, r0
     8d2:	b938      	cbnz	r0, 8e4 <nfc_cli_desktop_app_is_running+0x28>
        result = furi_string_equal_str(app_name, NFC_DESKTOP_APP_NAME);
    }

    furi_record_close(RECORD_LOADER);
     8d4:	4807      	ldr	r0, [pc, #28]	@ (8f4 <nfc_cli_desktop_app_is_running+0x38>)
     8d6:	4b0a      	ldr	r3, [pc, #40]	@ (900 <nfc_cli_desktop_app_is_running+0x44>)
     8d8:	4798      	blx	r3
    furi_string_free(app_name);
     8da:	4620      	mov	r0, r4
     8dc:	4b09      	ldr	r3, [pc, #36]	@ (904 <nfc_cli_desktop_app_is_running+0x48>)
     8de:	4798      	blx	r3
    return result;
}
     8e0:	4628      	mov	r0, r5
     8e2:	bd38      	pop	{r3, r4, r5, pc}
        result = furi_string_equal_str(app_name, NFC_DESKTOP_APP_NAME);
     8e4:	4908      	ldr	r1, [pc, #32]	@ (908 <nfc_cli_desktop_app_is_running+0x4c>)
     8e6:	4620      	mov	r0, r4
     8e8:	4b08      	ldr	r3, [pc, #32]	@ (90c <nfc_cli_desktop_app_is_running+0x50>)
     8ea:	4798      	blx	r3
     8ec:	4605      	mov	r5, r0
     8ee:	e7f1      	b.n	8d4 <nfc_cli_desktop_app_is_running+0x18>
     8f0:	00000000 	.word	0x00000000
     8f4:	00000728 	.word	0x00000728
	...
     908:	00000730 	.word	0x00000730
     90c:	00000000 	.word	0x00000000

00000910 <nfc_cli_subscribe_commands>:
static void nfc_cli_subscribe_commands(NfcCliContext* instance) {
     910:	e92d 41f0 	stmdb	sp!, {r4, r5, r6, r7, r8, lr}
     914:	b082      	sub	sp, #8
     916:	4606      	mov	r6, r0
    size_t cnt = nfc_cli_command_get_count();
     918:	4b0f      	ldr	r3, [pc, #60]	@ (958 <nfc_cli_subscribe_commands+0x48>)
     91a:	4798      	blx	r3
     91c:	4607      	mov	r7, r0
    for(size_t i = 0; i < cnt; i++) {
     91e:	2400      	movs	r4, #0
     920:	e00b      	b.n	93a <nfc_cli_subscribe_commands+0x2a>
        const char* name = nfc_cli_command_get_name(cmd);
     922:	4628      	mov	r0, r5
     924:	4b0d      	ldr	r3, [pc, #52]	@ (95c <nfc_cli_subscribe_commands+0x4c>)
     926:	4798      	blx	r3
     928:	4601      	mov	r1, r0
            instance->processor_context);
     92a:	68f3      	ldr	r3, [r6, #12]
        cli_registry_add_command(
     92c:	9300      	str	r3, [sp, #0]
     92e:	4643      	mov	r3, r8
     930:	2201      	movs	r2, #1
     932:	6870      	ldr	r0, [r6, #4]
     934:	4d0a      	ldr	r5, [pc, #40]	@ (960 <nfc_cli_subscribe_commands+0x50>)
     936:	47a8      	blx	r5
    for(size_t i = 0; i < cnt; i++) {
     938:	3401      	adds	r4, #1
     93a:	42bc      	cmp	r4, r7
     93c:	d209      	bcs.n	952 <nfc_cli_subscribe_commands+0x42>
        const NfcCliCommandDescriptor* cmd = nfc_cli_command_get_by_index(i);
     93e:	4620      	mov	r0, r4
     940:	4b08      	ldr	r3, [pc, #32]	@ (964 <nfc_cli_subscribe_commands+0x54>)
     942:	4798      	blx	r3
     944:	4605      	mov	r5, r0
        CliCommandExecuteCallback callback = nfc_cli_command_get_execute(cmd);
     946:	4b08      	ldr	r3, [pc, #32]	@ (968 <nfc_cli_subscribe_commands+0x58>)
     948:	4798      	blx	r3
        if(callback == NULL) continue;
     94a:	4680      	mov	r8, r0
     94c:	2800      	cmp	r0, #0
     94e:	d1e8      	bne.n	922 <nfc_cli_subscribe_commands+0x12>
     950:	e7f2      	b.n	938 <nfc_cli_subscribe_commands+0x28>
}
     952:	b002      	add	sp, #8
     954:	e8bd 81f0 	ldmia.w	sp!, {r4, r5, r6, r7, r8, pc}
	...

0000096c <nfc_cli_alloc>:

static NfcCliContext* nfc_cli_alloc(PipeSide* pipe) {
     96c:	b530      	push	{r4, r5, lr}
     96e:	b083      	sub	sp, #12
     970:	4605      	mov	r5, r0
    NfcCliContext* instance = malloc(sizeof(NfcCliContext));
     972:	2010      	movs	r0, #16
     974:	4b0e      	ldr	r3, [pc, #56]	@ (9b0 <nfc_cli_alloc+0x44>)
     976:	4798      	blx	r3
     978:	4604      	mov	r4, r0
    instance->nfc = nfc_alloc();
     97a:	4b0e      	ldr	r3, [pc, #56]	@ (9b4 <nfc_cli_alloc+0x48>)
     97c:	4798      	blx	r3
     97e:	6020      	str	r0, [r4, #0]
    instance->processor_context = nfc_cli_command_processor_alloc(instance->nfc);
     980:	4b0d      	ldr	r3, [pc, #52]	@ (9b8 <nfc_cli_alloc+0x4c>)
     982:	4798      	blx	r3
     984:	60e0      	str	r0, [r4, #12]

    instance->registry = cli_registry_alloc();
     986:	4b0d      	ldr	r3, [pc, #52]	@ (9bc <nfc_cli_alloc+0x50>)
     988:	4798      	blx	r3
     98a:	6060      	str	r0, [r4, #4]

    nfc_cli_subscribe_commands(instance);
     98c:	4620      	mov	r0, r4
     98e:	4b0c      	ldr	r3, [pc, #48]	@ (9c0 <nfc_cli_alloc+0x54>)
     990:	4798      	blx	r3

    instance->shell =
        cli_shell_alloc(nfc_cli_shell_motd, instance, pipe, instance->registry, NULL);
     992:	2300      	movs	r3, #0
     994:	9300      	str	r3, [sp, #0]
     996:	6863      	ldr	r3, [r4, #4]
     998:	462a      	mov	r2, r5
     99a:	4621      	mov	r1, r4
     99c:	4809      	ldr	r0, [pc, #36]	@ (9c4 <nfc_cli_alloc+0x58>)
     99e:	4d0a      	ldr	r5, [pc, #40]	@ (9c8 <nfc_cli_alloc+0x5c>)
     9a0:	47a8      	blx	r5
    instance->shell =
     9a2:	60a0      	str	r0, [r4, #8]

    cli_shell_set_prompt(instance->shell, NFC_PROMPT);
     9a4:	4909      	ldr	r1, [pc, #36]	@ (9cc <nfc_cli_alloc+0x60>)
     9a6:	4b0a      	ldr	r3, [pc, #40]	@ (9d0 <nfc_cli_alloc+0x64>)
     9a8:	4798      	blx	r3
    return instance;
}
     9aa:	4620      	mov	r0, r4
     9ac:	b003      	add	sp, #12
     9ae:	bd30      	pop	{r4, r5, pc}
	...
     9cc:	00000734 	.word	0x00000734
     9d0:	00000000 	.word	0x00000000

000009d4 <nfc_cli_free>:

void nfc_cli_free(NfcCliContext* instance) {
     9d4:	b510      	push	{r4, lr}
    furi_assert(instance);
     9d6:	b180      	cbz	r0, 9fa <nfc_cli_free+0x26>
     9d8:	4604      	mov	r4, r0
    nfc_cli_command_processor_free(instance->processor_context);
     9da:	68c0      	ldr	r0, [r0, #12]
     9dc:	4b09      	ldr	r3, [pc, #36]	@ (a04 <sukima373+0x6>)
     9de:	4798      	blx	r3

    cli_shell_free(instance->shell);
     9e0:	68a0      	ldr	r0, [r4, #8]
     9e2:	4b09      	ldr	r3, [pc, #36]	@ (a08 <sukima373+0xa>)
     9e4:	4798      	blx	r3
    cli_registry_free(instance->registry);
     9e6:	6860      	ldr	r0, [r4, #4]
     9e8:	4b08      	ldr	r3, [pc, #32]	@ (a0c <sukima373+0xe>)
     9ea:	4798      	blx	r3

    nfc_free(instance->nfc);
     9ec:	6820      	ldr	r0, [r4, #0]
     9ee:	4b08      	ldr	r3, [pc, #32]	@ (a10 <sukima373+0x12>)
     9f0:	4798      	blx	r3
    free(instance);
     9f2:	4620      	mov	r0, r4
     9f4:	4b07      	ldr	r3, [pc, #28]	@ (a14 <sukima373+0x16>)
     9f6:	4798      	blx	r3
}
     9f8:	bd10      	pop	{r4, pc}
    furi_assert(instance);
     9fa:	f04f 0c01 	mov.w	ip, #1

000009fe <sukima373>:
     9fe:	4b06      	ldr	r3, [pc, #24]	@ (a18 <sukima373+0x1a>)
     a00:	4798      	blx	r3
     a02:	bf00      	nop
	...

00000a1c <nfc_cli_execute>:

void nfc_cli_execute(PipeSide* pipe, FuriString* args, void* context) {
     a1c:	b510      	push	{r4, lr}
    furi_assert(pipe);
     a1e:	b188      	cbz	r0, a44 <nfc_cli_execute+0x28>
     a20:	4604      	mov	r4, r0
    UNUSED(args);
    UNUSED(context);

    if(nfc_cli_desktop_app_is_running()) {
     a22:	4b0c      	ldr	r3, [pc, #48]	@ (a54 <sukima461+0xc>)
     a24:	4798      	blx	r3
     a26:	b988      	cbnz	r0, a4c <sukima461+0x4>
        printf(ANSI_FG_YELLOW
               "NFC app is running, unable to run NFC CLI at the same time!\r\n" ANSI_RESET);
        return;
    }

    NfcCliContext* instance = nfc_cli_alloc(pipe);
     a28:	4620      	mov	r0, r4
     a2a:	4b0b      	ldr	r3, [pc, #44]	@ (a58 <sukima461+0x10>)
     a2c:	4798      	blx	r3
     a2e:	4604      	mov	r4, r0

    cli_shell_start(instance->shell);
     a30:	6880      	ldr	r0, [r0, #8]
     a32:	4b0a      	ldr	r3, [pc, #40]	@ (a5c <sukima461+0x14>)
     a34:	4798      	blx	r3
    cli_shell_join(instance->shell);
     a36:	68a0      	ldr	r0, [r4, #8]
     a38:	4b09      	ldr	r3, [pc, #36]	@ (a60 <sukima461+0x18>)
     a3a:	4798      	blx	r3

    nfc_cli_free(instance);
     a3c:	4620      	mov	r0, r4
     a3e:	4b09      	ldr	r3, [pc, #36]	@ (a64 <sukima461+0x1c>)
     a40:	4798      	blx	r3
}
     a42:	bd10      	pop	{r4, pc}
    furi_assert(pipe);
     a44:	f04f 0c01 	mov.w	ip, #1

00000a48 <sukima461>:
     a48:	4b07      	ldr	r3, [pc, #28]	@ (a68 <sukima461+0x20>)
     a4a:	4798      	blx	r3
        printf(ANSI_FG_YELLOW
     a4c:	4807      	ldr	r0, [pc, #28]	@ (a6c <sukima461+0x24>)
     a4e:	4b08      	ldr	r3, [pc, #32]	@ (a70 <sukima461+0x28>)
     a50:	4798      	blx	r3
        return;
     a52:	e7f6      	b.n	a42 <nfc_cli_execute+0x26>
	...
     a6c:	00000744 	.word	0x00000744
     a70:	00000000 	.word	0x00000000

00000a74 <cli_nfc_ep>:

CLI_COMMAND_INTERFACE(nfc, nfc_cli_execute, CliCommandFlagParallelSafe, 1024, CLI_APPID);
     a74:	4800      	ldr	r0, [pc, #0]	@ (a78 <cli_nfc_ep+0x4>)
     a76:	4770      	bx	lr
     a78:	00000794 	.word	0x00000794

00000a7c <nfc_cli_dump_poller_callback_mf_classic>:
#include "nfc_cli_dump_mf_classic.h"
#include <nfc/protocols/mf_classic/mf_classic_poller.h>

#define TAG "MFC"

NfcCommand nfc_cli_dump_poller_callback_mf_classic(NfcGenericEvent event, void* context) {
     a7c:	b5f0      	push	{r4, r5, r6, r7, lr}
     a7e:	b089      	sub	sp, #36	@ 0x24
     a80:	ac01      	add	r4, sp, #4
     a82:	e884 0007 	stmia.w	r4, {r0, r1, r2}
     a86:	461d      	mov	r5, r3
    furi_assert(event.protocol == NfcProtocolMfClassic);
     a88:	f89d 3004 	ldrb.w	r3, [sp, #4]
     a8c:	2b07      	cmp	r3, #7
     a8e:	d10c      	bne.n	aaa <nfc_cli_dump_poller_callback_mf_classic+0x2e>

    NfcCliDumpContext* instance = context;
    const MfClassicPollerEvent* mfc_event = event.event_data;
     a90:	9e03      	ldr	r6, [sp, #12]
    NfcCommand command = NfcCommandContinue;

    if(mfc_event->type == MfClassicPollerEventTypeRequestMode) {
     a92:	7834      	ldrb	r4, [r6, #0]
     a94:	b16c      	cbz	r4, ab2 <sukima81+0x4>
        } else {
            FURI_LOG_D(TAG, "Key cache not found");
            instance->result = NfcCliDumpErrorFailedToRead;
            command = NfcCommandStop;
        }
    } else if(mfc_event->type == MfClassicPollerEventTypeRequestReadSector) {
     a96:	2c01      	cmp	r4, #1
     a98:	d035      	beq.n	b06 <sukima81+0x58>
            mfc_event->data->read_sector_request_data.key_type = key_type;
            mfc_event->data->read_sector_request_data.key_provided = true;
        } else {
            mfc_event->data->read_sector_request_data.key_provided = false;
        }
    } else if(mfc_event->type == MfClassicPollerEventTypeSuccess) {
     a9a:	2c0e      	cmp	r4, #14
     a9c:	d05d      	beq.n	b5a <sukima81+0xac>
        nfc_device_set_data(
            instance->nfc_device, NfcProtocolMfClassic, nfc_poller_get_data(instance->poller));
        instance->result = NfcCliDumpErrorNone;
        command = NfcCommandStop;
    } else if(mfc_event->type == MfClassicPollerEventTypeFail) {
     a9e:	2c0f      	cmp	r4, #15
     aa0:	d067      	beq.n	b72 <sukima81+0xc4>
    NfcCommand command = NfcCommandContinue;
     aa2:	2400      	movs	r4, #0
    if(command == NfcCommandStop) {
        furi_semaphore_release(instance->sem_done);
    }

    return command;
}
     aa4:	4620      	mov	r0, r4
     aa6:	b009      	add	sp, #36	@ 0x24
     aa8:	bdf0      	pop	{r4, r5, r6, r7, pc}
    furi_assert(event.protocol == NfcProtocolMfClassic);
     aaa:	f04f 0c01 	mov.w	ip, #1

00000aae <sukima81>:
     aae:	4b32      	ldr	r3, [pc, #200]	@ (b78 <sukima81+0xca>)
     ab0:	4798      	blx	r3
        nfc_device_set_data(
     ab2:	6baf      	ldr	r7, [r5, #56]	@ 0x38
     ab4:	6b68      	ldr	r0, [r5, #52]	@ 0x34
     ab6:	4b31      	ldr	r3, [pc, #196]	@ (b7c <sukima81+0xce>)
     ab8:	4798      	blx	r3
     aba:	4602      	mov	r2, r0
     abc:	2107      	movs	r1, #7
     abe:	4638      	mov	r0, r7
     ac0:	4b2f      	ldr	r3, [pc, #188]	@ (b80 <sukima81+0xd2>)
     ac2:	4798      	blx	r3
        size_t uid_len = 0;
     ac4:	2300      	movs	r3, #0
     ac6:	9306      	str	r3, [sp, #24]
        const uint8_t* uid = nfc_device_get_uid(instance->nfc_device, &uid_len);
     ac8:	a906      	add	r1, sp, #24
     aca:	6ba8      	ldr	r0, [r5, #56]	@ 0x38
     acc:	4b2d      	ldr	r3, [pc, #180]	@ (b84 <sukima81+0xd6>)
     ace:	4798      	blx	r3
     ad0:	4601      	mov	r1, r0
        if(mf_classic_key_cache_load(instance->mfc_key_cache, uid, uid_len)) {
     ad2:	9a06      	ldr	r2, [sp, #24]
     ad4:	6b28      	ldr	r0, [r5, #48]	@ 0x30
     ad6:	4b2c      	ldr	r3, [pc, #176]	@ (b88 <sukima81+0xda>)
     ad8:	4798      	blx	r3
     ada:	b140      	cbz	r0, aee <sukima81+0x40>
            FURI_LOG_D(TAG, "Key cache found");
     adc:	4a2b      	ldr	r2, [pc, #172]	@ (b8c <sukima81+0xde>)
     ade:	492c      	ldr	r1, [pc, #176]	@ (b90 <sukima81+0xe2>)
     ae0:	2005      	movs	r0, #5
     ae2:	4b2c      	ldr	r3, [pc, #176]	@ (b94 <sukima81+0xe6>)
     ae4:	4798      	blx	r3
            mfc_event->data->poller_mode.mode = MfClassicPollerModeRead;
     ae6:	6873      	ldr	r3, [r6, #4]
     ae8:	2200      	movs	r2, #0
     aea:	701a      	strb	r2, [r3, #0]
    if(command == NfcCommandStop) {
     aec:	e7da      	b.n	aa4 <nfc_cli_dump_poller_callback_mf_classic+0x28>
            FURI_LOG_D(TAG, "Key cache not found");
     aee:	4a2a      	ldr	r2, [pc, #168]	@ (b98 <sukima81+0xea>)
     af0:	4927      	ldr	r1, [pc, #156]	@ (b90 <sukima81+0xe2>)
     af2:	2005      	movs	r0, #5
     af4:	4b27      	ldr	r3, [pc, #156]	@ (b94 <sukima81+0xe6>)
     af6:	4798      	blx	r3
            instance->result = NfcCliDumpErrorFailedToRead;
     af8:	2303      	movs	r3, #3
     afa:	772b      	strb	r3, [r5, #28]
        furi_semaphore_release(instance->sem_done);
     afc:	69a8      	ldr	r0, [r5, #24]
     afe:	4b27      	ldr	r3, [pc, #156]	@ (b9c <sukima81+0xee>)
     b00:	4798      	blx	r3
     b02:	2402      	movs	r4, #2
     b04:	e7ce      	b.n	aa4 <nfc_cli_dump_poller_callback_mf_classic+0x28>
        uint8_t sector_num = 0;
     b06:	2300      	movs	r3, #0
     b08:	f88d 3016 	strb.w	r3, [sp, #22]
        MfClassicKey key = {};
     b0c:	9306      	str	r3, [sp, #24]
     b0e:	f8ad 301c 	strh.w	r3, [sp, #28]
        MfClassicKeyType key_type = MfClassicKeyTypeA;
     b12:	f88d 3017 	strb.w	r3, [sp, #23]
        if(mf_classic_key_cache_get_next_key(
     b16:	f10d 0317 	add.w	r3, sp, #23
     b1a:	aa06      	add	r2, sp, #24
     b1c:	f10d 0116 	add.w	r1, sp, #22
     b20:	6b28      	ldr	r0, [r5, #48]	@ 0x30
     b22:	4c1f      	ldr	r4, [pc, #124]	@ (ba0 <sukima81+0xf2>)
     b24:	47a0      	blx	r4
     b26:	b1a0      	cbz	r0, b52 <sukima81+0xa4>
            mfc_event->data->read_sector_request_data.sector_num = sector_num;
     b28:	6873      	ldr	r3, [r6, #4]
     b2a:	f89d 2016 	ldrb.w	r2, [sp, #22]
     b2e:	701a      	strb	r2, [r3, #0]
            mfc_event->data->read_sector_request_data.key = key;
     b30:	6873      	ldr	r3, [r6, #4]
     b32:	9806      	ldr	r0, [sp, #24]
     b34:	f8c3 0001 	str.w	r0, [r3, #1]
     b38:	f8bd 201c 	ldrh.w	r2, [sp, #28]
     b3c:	f8a3 2005 	strh.w	r2, [r3, #5]
            mfc_event->data->read_sector_request_data.key_type = key_type;
     b40:	6873      	ldr	r3, [r6, #4]
     b42:	f89d 2017 	ldrb.w	r2, [sp, #23]
     b46:	71da      	strb	r2, [r3, #7]
            mfc_event->data->read_sector_request_data.key_provided = true;
     b48:	6873      	ldr	r3, [r6, #4]
     b4a:	2201      	movs	r2, #1
     b4c:	721a      	strb	r2, [r3, #8]
    NfcCommand command = NfcCommandContinue;
     b4e:	2400      	movs	r4, #0
     b50:	e7a8      	b.n	aa4 <nfc_cli_dump_poller_callback_mf_classic+0x28>
            mfc_event->data->read_sector_request_data.key_provided = false;
     b52:	6873      	ldr	r3, [r6, #4]
     b54:	2200      	movs	r2, #0
     b56:	721a      	strb	r2, [r3, #8]
     b58:	e7f9      	b.n	b4e <sukima81+0xa0>
        nfc_device_set_data(
     b5a:	6bac      	ldr	r4, [r5, #56]	@ 0x38
     b5c:	6b68      	ldr	r0, [r5, #52]	@ 0x34
     b5e:	4b07      	ldr	r3, [pc, #28]	@ (b7c <sukima81+0xce>)
     b60:	4798      	blx	r3
     b62:	4602      	mov	r2, r0
     b64:	2107      	movs	r1, #7
     b66:	4620      	mov	r0, r4
     b68:	4b05      	ldr	r3, [pc, #20]	@ (b80 <sukima81+0xd2>)
     b6a:	4798      	blx	r3
        instance->result = NfcCliDumpErrorNone;
     b6c:	2300      	movs	r3, #0
     b6e:	772b      	strb	r3, [r5, #28]
    if(command == NfcCommandStop) {
     b70:	e7c4      	b.n	afc <sukima81+0x4e>
        instance->result = NfcCliDumpErrorFailedToRead;
     b72:	2303      	movs	r3, #3
     b74:	772b      	strb	r3, [r5, #28]
    if(command == NfcCommandStop) {
     b76:	e7c1      	b.n	afc <sukima81+0x4e>
	...
     b8c:	000007b0 	.word	0x000007b0
     b90:	000007c0 	.word	0x000007c0
     b94:	00000000 	.word	0x00000000
     b98:	000007c4 	.word	0x000007c4
	...

00000ba4 <nfc_cli_apdu_iso14443_4b_process_error>:
#define TAG "ISO14A_4B"

#define BIT_BUFFER_EMPTY(buffer) ((bit_buffer_get_size_bytes(buffer) == 0))

static NfcCliApduError nfc_cli_apdu_iso14443_4b_process_error(Iso14443_4bError error) {
    switch(error) {
     ba4:	2801      	cmp	r0, #1
     ba6:	d005      	beq.n	bb4 <nfc_cli_apdu_iso14443_4b_process_error+0x10>
     ba8:	2803      	cmp	r0, #3
     baa:	d005      	beq.n	bb8 <nfc_cli_apdu_iso14443_4b_process_error+0x14>
     bac:	b108      	cbz	r0, bb2 <nfc_cli_apdu_iso14443_4b_process_error+0xe>
    case Iso14443_4bErrorTimeout:
        return NfcCliApduErrorTimeout;
    case Iso14443_4bErrorNotPresent:
        return NfcCliApduErrorNotPresent;
    default:
        return NfcCliApduErrorProtocol;
     bae:	2004      	movs	r0, #4
    }
}
     bb0:	4770      	bx	lr
     bb2:	4770      	bx	lr
        return NfcCliApduErrorNotPresent;
     bb4:	2002      	movs	r0, #2
     bb6:	4770      	bx	lr
        return NfcCliApduErrorTimeout;
     bb8:	2001      	movs	r0, #1
     bba:	4770      	bx	lr

00000bbc <nfc_cli_apdu_iso14443_4b_handler>:

NfcCommand
    nfc_cli_apdu_iso14443_4b_handler(NfcGenericEvent event, NfcCliApduRequestResponse* instance) {
     bbc:	b530      	push	{r4, r5, lr}
     bbe:	b085      	sub	sp, #20
     bc0:	ac04      	add	r4, sp, #16
     bc2:	e904 0007 	stmdb	r4, {r0, r1, r2}
     bc6:	461c      	mov	r4, r3
    Iso14443_4bPollerEvent* iso14443_4b_event = event.event_data;
    NfcCommand command = NfcCommandContinue;

    if(iso14443_4b_event->type == Iso14443_4bPollerEventTypeReady) {
     bc8:	7813      	ldrb	r3, [r2, #0]
     bca:	2b01      	cmp	r3, #1
     bcc:	d003      	beq.n	bd6 <nfc_cli_apdu_iso14443_4b_handler+0x1a>
    NfcCommand command = NfcCommandContinue;
     bce:	2500      	movs	r5, #0
        instance->result = nfc_cli_apdu_iso14443_4b_process_error(err);
        if(err != Iso14443_4bErrorNone) command = NfcCommandStop;
    }

    return command;
}
     bd0:	4628      	mov	r0, r5
     bd2:	b005      	add	sp, #20
     bd4:	bd30      	pop	{r4, r5, pc}
        Iso14443_4bError err = iso14443_4b_poller_send_block(
     bd6:	68a2      	ldr	r2, [r4, #8]
     bd8:	6861      	ldr	r1, [r4, #4]
     bda:	9802      	ldr	r0, [sp, #8]
     bdc:	4b04      	ldr	r3, [pc, #16]	@ (bf0 <nfc_cli_apdu_iso14443_4b_handler+0x34>)
     bde:	4798      	blx	r3
     be0:	4605      	mov	r5, r0
        instance->result = nfc_cli_apdu_iso14443_4b_process_error(err);
     be2:	4b04      	ldr	r3, [pc, #16]	@ (bf4 <nfc_cli_apdu_iso14443_4b_handler+0x38>)
     be4:	4798      	blx	r3
     be6:	7320      	strb	r0, [r4, #12]
        if(err != Iso14443_4bErrorNone) command = NfcCommandStop;
     be8:	2d00      	cmp	r5, #0
     bea:	d0f1      	beq.n	bd0 <nfc_cli_apdu_iso14443_4b_handler+0x14>
     bec:	2502      	movs	r5, #2
     bee:	e7ef      	b.n	bd0 <nfc_cli_apdu_iso14443_4b_handler+0x14>
	...

00000bf8 <nfc_cli_command_mfu_callback>:
    &info_action,
    &wrbl_action,
};

//Command descriptor
ADD_NFC_CLI_COMMAND(mfu, "Mifare Ultralight specific commands", mfu_actions);
     bf8:	b510      	push	{r4, lr}
     bfa:	4613      	mov	r3, r2
     bfc:	460a      	mov	r2, r1
     bfe:	4601      	mov	r1, r0
     c00:	4801      	ldr	r0, [pc, #4]	@ (c08 <nfc_cli_command_mfu_callback+0x10>)
     c02:	4c02      	ldr	r4, [pc, #8]	@ (c0c <nfc_cli_command_mfu_callback+0x14>)
     c04:	47a0      	blx	r4
     c06:	bd10      	pop	{r4, pc}
	...

00000c10 <nfc_cli_raw_iso15693_3_process_error>:
#define TAG "ISO15"

#define BIT_BUFFER_EMPTY(buffer) ((bit_buffer_get_size_bytes(buffer) == 0))

static NfcCliRawError nfc_cli_raw_iso15693_3_process_error(Iso15693_3Error error) {
    switch(error) {
     c10:	2806      	cmp	r0, #6
     c12:	d809      	bhi.n	c28 <nfc_cli_raw_iso15693_3_process_error+0x18>
     c14:	e8df f000 	tbb	[pc, r0]
     c18:	0808060b 	.word	0x0808060b
     c1c:	0408      	.short	0x0408
     c1e:	0a          	.byte	0x0a
     c1f:	00          	.byte	0x00
    case Iso15693_3ErrorNone:
        return NfcCliRawErrorNone;
    case Iso15693_3ErrorTimeout:
        return NfcCliRawErrorTimeout;
    case Iso15693_3ErrorWrongCrc:
        return NfcCliRawErrorWrongCrc;
     c20:	2003      	movs	r0, #3
     c22:	4770      	bx	lr
    case Iso15693_3ErrorNotPresent:
        return NfcCliRawErrorNotPresent;
     c24:	2002      	movs	r0, #2
     c26:	4770      	bx	lr
    default:
        return NfcCliRawErrorProtocol;
     c28:	2004      	movs	r0, #4
     c2a:	4770      	bx	lr
        return NfcCliRawErrorTimeout;
     c2c:	2001      	movs	r0, #1
    }
}
     c2e:	4770      	bx	lr

00000c30 <nfc_cli_raw_iso15693_3_poller_process_nfc_error>:

static Iso15693_3Error nfc_cli_raw_iso15693_3_poller_process_nfc_error(NfcError error) {
    switch(error) {
     c30:	b118      	cbz	r0, c3a <nfc_cli_raw_iso15693_3_poller_process_nfc_error+0xa>
     c32:	2802      	cmp	r0, #2
     c34:	d102      	bne.n	c3c <nfc_cli_raw_iso15693_3_poller_process_nfc_error+0xc>
    case NfcErrorNone:
        return Iso15693_3ErrorNone;
    case NfcErrorTimeout:
        return Iso15693_3ErrorTimeout;
     c36:	2006      	movs	r0, #6
     c38:	4770      	bx	lr
     c3a:	4770      	bx	lr
    default:
        return Iso15693_3ErrorNotPresent;
     c3c:	2001      	movs	r0, #1
    }
}
     c3e:	4770      	bx	lr

00000c40 <nfc_cli_raw_iso15693_3_activate>:
static inline void iso15693_3_format_activation_data(const uint8_t* data, FuriString* output) {
    nfc_cli_format_array(data, ISO15693_3_UID_SIZE, "UID: ", output);
}

static inline NfcCliRawError
    nfc_cli_raw_iso15693_3_activate(NfcGenericInstance* poller, FuriString* activation_string) {
     c40:	b530      	push	{r4, r5, lr}
     c42:	b083      	sub	sp, #12
     c44:	4604      	mov	r4, r0
     c46:	460d      	mov	r5, r1
    FURI_LOG_D(TAG, "Activating...");
     c48:	4a0c      	ldr	r2, [pc, #48]	@ (c7c <nfc_cli_raw_iso15693_3_activate+0x3c>)
     c4a:	490d      	ldr	r1, [pc, #52]	@ (c80 <nfc_cli_raw_iso15693_3_activate+0x40>)
     c4c:	2005      	movs	r0, #5
     c4e:	4b0d      	ldr	r3, [pc, #52]	@ (c84 <nfc_cli_raw_iso15693_3_activate+0x44>)
     c50:	4798      	blx	r3

    Iso15693_3Poller* iso15_poller = poller;
    uint8_t uid[ISO15693_3_UID_SIZE] = {0};
     c52:	2300      	movs	r3, #0
     c54:	9300      	str	r3, [sp, #0]
     c56:	9301      	str	r3, [sp, #4]

    Iso15693_3Error error = iso15693_3_poller_inventory(iso15_poller, uid);
     c58:	4669      	mov	r1, sp
     c5a:	4620      	mov	r0, r4
     c5c:	4b0a      	ldr	r3, [pc, #40]	@ (c88 <nfc_cli_raw_iso15693_3_activate+0x48>)
     c5e:	4798      	blx	r3
    if(error == Iso15693_3ErrorNone) {
     c60:	4604      	mov	r4, r0
     c62:	b120      	cbz	r0, c6e <nfc_cli_raw_iso15693_3_activate+0x2e>
        iso15693_3_format_activation_data(uid, activation_string);
    }
    return nfc_cli_raw_iso15693_3_process_error(error);
     c64:	4620      	mov	r0, r4
     c66:	4b09      	ldr	r3, [pc, #36]	@ (c8c <nfc_cli_raw_iso15693_3_activate+0x4c>)
     c68:	4798      	blx	r3
}
     c6a:	b003      	add	sp, #12
     c6c:	bd30      	pop	{r4, r5, pc}
    nfc_cli_format_array(data, ISO15693_3_UID_SIZE, "UID: ", output);
     c6e:	462b      	mov	r3, r5
     c70:	4a07      	ldr	r2, [pc, #28]	@ (c90 <nfc_cli_raw_iso15693_3_activate+0x50>)
     c72:	2108      	movs	r1, #8
     c74:	4668      	mov	r0, sp
     c76:	4d07      	ldr	r5, [pc, #28]	@ (c94 <nfc_cli_raw_iso15693_3_activate+0x54>)
     c78:	47a8      	blx	r5
}
     c7a:	e7f3      	b.n	c64 <nfc_cli_raw_iso15693_3_activate+0x24>
     c7c:	00000978 	.word	0x00000978
     c80:	00000988 	.word	0x00000988
	...
     c90:	00000990 	.word	0x00000990
     c94:	00000000 	.word	0x00000000

00000c98 <nfc_cli_raw_iso15693_3_txrx>:

static inline NfcCliRawError nfc_cli_raw_iso15693_3_txrx(
    NfcGenericInstance* poller,
    BitBuffer* tx_buffer,
    BitBuffer* rx_buffer,
    uint32_t timeout) {
     c98:	b5f8      	push	{r3, r4, r5, r6, r7, lr}
     c9a:	4605      	mov	r5, r0
     c9c:	460e      	mov	r6, r1
     c9e:	4614      	mov	r4, r2
     ca0:	461f      	mov	r7, r3
    FURI_LOG_D(TAG, "TxRx");
     ca2:	4a0f      	ldr	r2, [pc, #60]	@ (ce0 <nfc_cli_raw_iso15693_3_txrx+0x48>)
     ca4:	490f      	ldr	r1, [pc, #60]	@ (ce4 <nfc_cli_raw_iso15693_3_txrx+0x4c>)
     ca6:	2005      	movs	r0, #5
     ca8:	4b0f      	ldr	r3, [pc, #60]	@ (ce8 <nfc_cli_raw_iso15693_3_txrx+0x50>)
     caa:	4798      	blx	r3

    Iso15693_3Poller* iso15_poller = poller;

    bit_buffer_reset(rx_buffer);
     cac:	4620      	mov	r0, r4
     cae:	4b0f      	ldr	r3, [pc, #60]	@ (cec <nfc_cli_raw_iso15693_3_txrx+0x54>)
     cb0:	4798      	blx	r3

    Iso15693_3Error error = Iso15693_3ErrorNone;

    NfcError nfc_error = nfc_poller_trx(iso15_poller->nfc, tx_buffer, rx_buffer, timeout);
     cb2:	463b      	mov	r3, r7
     cb4:	4622      	mov	r2, r4
     cb6:	4631      	mov	r1, r6
     cb8:	6828      	ldr	r0, [r5, #0]
     cba:	4d0d      	ldr	r5, [pc, #52]	@ (cf0 <nfc_cli_raw_iso15693_3_txrx+0x58>)
     cbc:	47a8      	blx	r5
    if(nfc_error != NfcErrorNone) {
     cbe:	4605      	mov	r5, r0
     cc0:	b130      	cbz	r0, cd0 <nfc_cli_raw_iso15693_3_txrx+0x38>
        error = nfc_cli_raw_iso15693_3_poller_process_nfc_error(nfc_error);
     cc2:	4b0c      	ldr	r3, [pc, #48]	@ (cf4 <nfc_cli_raw_iso15693_3_txrx+0x5c>)
     cc4:	4798      	blx	r3
     cc6:	4605      	mov	r5, r0
    } else if(!iso13239_crc_check(Iso13239CrcTypeDefault, rx_buffer)) {
        error = Iso15693_3ErrorWrongCrc;
    }

    return nfc_cli_raw_iso15693_3_process_error(error);
     cc8:	4628      	mov	r0, r5
     cca:	4b0b      	ldr	r3, [pc, #44]	@ (cf8 <nfc_cli_raw_iso15693_3_txrx+0x60>)
     ccc:	4798      	blx	r3
}
     cce:	bdf8      	pop	{r3, r4, r5, r6, r7, pc}
    } else if(!iso13239_crc_check(Iso13239CrcTypeDefault, rx_buffer)) {
     cd0:	4621      	mov	r1, r4
     cd2:	2000      	movs	r0, #0
     cd4:	4b09      	ldr	r3, [pc, #36]	@ (cfc <nfc_cli_raw_iso15693_3_txrx+0x64>)
     cd6:	4798      	blx	r3
     cd8:	2800      	cmp	r0, #0
     cda:	d1f5      	bne.n	cc8 <nfc_cli_raw_iso15693_3_txrx+0x30>
        error = Iso15693_3ErrorWrongCrc;
     cdc:	2505      	movs	r5, #5
     cde:	e7f3      	b.n	cc8 <nfc_cli_raw_iso15693_3_txrx+0x30>
     ce0:	00000998 	.word	0x00000998
     ce4:	00000988 	.word	0x00000988
	...

00000d00 <nfc_cli_raw_iso15693_3_handler>:

NfcCommand nfc_cli_raw_iso15693_3_handler(
    NfcGenericInstance* poller,
    const NfcCliRawRequest* request,
    NfcCliRawResponse* const response) {
     d00:	b570      	push	{r4, r5, r6, lr}
     d02:	4606      	mov	r6, r0
     d04:	460c      	mov	r4, r1
     d06:	4615      	mov	r5, r2
    do {
        if(request->select) {
     d08:	780b      	ldrb	r3, [r1, #0]
     d0a:	b92b      	cbnz	r3, d18 <nfc_cli_raw_iso15693_3_handler+0x18>
            response->result =
                nfc_cli_raw_iso15693_3_activate(poller, response->activation_string);
        }

        if(response->result != NfcCliRawErrorNone) break;
     d0c:	782b      	ldrb	r3, [r5, #0]
     d0e:	b143      	cbz	r3, d22 <nfc_cli_raw_iso15693_3_handler+0x22>

        uint32_t timeout = request->timeout > 0 ? request->timeout : ISO15693_3_FDT_POLL_FC;
        response->result =
            nfc_cli_raw_iso15693_3_txrx(poller, request->tx_buffer, response->rx_buffer, timeout);
    } while(false);
    return request->keep_field ? NfcCommandContinue : NfcCommandStop;
     d10:	7863      	ldrb	r3, [r4, #1]
     d12:	b313      	cbz	r3, d5a <nfc_cli_raw_iso15693_3_handler+0x5a>
     d14:	2000      	movs	r0, #0
}
     d16:	bd70      	pop	{r4, r5, r6, pc}
                nfc_cli_raw_iso15693_3_activate(poller, response->activation_string);
     d18:	6891      	ldr	r1, [r2, #8]
     d1a:	4b11      	ldr	r3, [pc, #68]	@ (d60 <nfc_cli_raw_iso15693_3_handler+0x60>)
     d1c:	4798      	blx	r3
            response->result =
     d1e:	7028      	strb	r0, [r5, #0]
     d20:	e7f4      	b.n	d0c <nfc_cli_raw_iso15693_3_handler+0xc>
        if(BIT_BUFFER_EMPTY(request->tx_buffer)) break;
     d22:	6860      	ldr	r0, [r4, #4]
     d24:	4b0f      	ldr	r3, [pc, #60]	@ (d64 <nfc_cli_raw_iso15693_3_handler+0x64>)
     d26:	4798      	blx	r3
     d28:	2800      	cmp	r0, #0
     d2a:	d0f1      	beq.n	d10 <nfc_cli_raw_iso15693_3_handler+0x10>
        if(request->append_crc) {
     d2c:	78a3      	ldrb	r3, [r4, #2]
     d2e:	b953      	cbnz	r3, d46 <nfc_cli_raw_iso15693_3_handler+0x46>
        uint32_t timeout = request->timeout > 0 ? request->timeout : ISO15693_3_FDT_POLL_FC;
     d30:	68a3      	ldr	r3, [r4, #8]
     d32:	b90b      	cbnz	r3, d38 <nfc_cli_raw_iso15693_3_handler+0x38>
     d34:	f241 036a 	movw	r3, #4202	@ 0x106a
            nfc_cli_raw_iso15693_3_txrx(poller, request->tx_buffer, response->rx_buffer, timeout);
     d38:	686a      	ldr	r2, [r5, #4]
     d3a:	6861      	ldr	r1, [r4, #4]
     d3c:	4630      	mov	r0, r6
     d3e:	4e0a      	ldr	r6, [pc, #40]	@ (d68 <nfc_cli_raw_iso15693_3_handler+0x68>)
     d40:	47b0      	blx	r6
        response->result =
     d42:	7028      	strb	r0, [r5, #0]
     d44:	e7e4      	b.n	d10 <nfc_cli_raw_iso15693_3_handler+0x10>
            FURI_LOG_D(TAG, "Add CRC");
     d46:	4a09      	ldr	r2, [pc, #36]	@ (d6c <nfc_cli_raw_iso15693_3_handler+0x6c>)
     d48:	4909      	ldr	r1, [pc, #36]	@ (d70 <nfc_cli_raw_iso15693_3_handler+0x70>)
     d4a:	2005      	movs	r0, #5
     d4c:	4b09      	ldr	r3, [pc, #36]	@ (d74 <nfc_cli_raw_iso15693_3_handler+0x74>)
     d4e:	4798      	blx	r3
            iso13239_crc_append(Iso13239CrcTypeDefault, request->tx_buffer);
     d50:	6861      	ldr	r1, [r4, #4]
     d52:	2000      	movs	r0, #0
     d54:	4b08      	ldr	r3, [pc, #32]	@ (d78 <nfc_cli_raw_iso15693_3_handler+0x78>)
     d56:	4798      	blx	r3
     d58:	e7ea      	b.n	d30 <nfc_cli_raw_iso15693_3_handler+0x30>
    return request->keep_field ? NfcCommandContinue : NfcCommandStop;
     d5a:	2002      	movs	r0, #2
     d5c:	e7db      	b.n	d16 <nfc_cli_raw_iso15693_3_handler+0x16>
     d5e:	bf00      	nop
	...
     d6c:	000009a0 	.word	0x000009a0
     d70:	00000988 	.word	0x00000988
	...

00000d7c <nfc_cli_mfu_info_print_version_storage_size>:
    const MfUltralightSignature* signature = &data->signature;
    printf(ANSI_FG_GREEN "\r\n\n\tTag signature\r\n" ANSI_RESET);
    nfc_cli_printf_array(signature->data, sizeof(signature->data), "ECC signature: ");
}

static void nfc_cli_mfu_info_print_version_storage_size(uint8_t storage_size) {
     d7c:	b510      	push	{r4, lr}
     d7e:	4601      	mov	r1, r0
    uint16_t max_size = 1 << ((storage_size >> 1) + 1);
     d80:	0840      	lsrs	r0, r0, #1
     d82:	1c43      	adds	r3, r0, #1
     d84:	2201      	movs	r2, #1
     d86:	fa02 f303 	lsl.w	r3, r2, r3
    uint16_t min_exact_size = 1 << (storage_size >> 1);
     d8a:	4082      	lsls	r2, r0

    bool exact_size = !(storage_size & 0x01);
    if(exact_size)
     d8c:	f011 0f01 	tst.w	r1, #1
     d90:	d104      	bne.n	d9c <nfc_cli_mfu_info_print_version_storage_size+0x20>
        printf("[%02X], (%u bytes)", storage_size, min_exact_size);
     d92:	b292      	uxth	r2, r2
     d94:	4804      	ldr	r0, [pc, #16]	@ (da8 <nfc_cli_mfu_info_print_version_storage_size+0x2c>)
     d96:	4b05      	ldr	r3, [pc, #20]	@ (dac <nfc_cli_mfu_info_print_version_storage_size+0x30>)
     d98:	4798      	blx	r3
    else
        printf("[%02X], (%u <-> %u bytes)", storage_size, min_exact_size, max_size);
}
     d9a:	bd10      	pop	{r4, pc}
        printf("[%02X], (%u <-> %u bytes)", storage_size, min_exact_size, max_size);
     d9c:	b29b      	uxth	r3, r3
     d9e:	b292      	uxth	r2, r2
     da0:	4803      	ldr	r0, [pc, #12]	@ (db0 <nfc_cli_mfu_info_print_version_storage_size+0x34>)
     da2:	4c02      	ldr	r4, [pc, #8]	@ (dac <nfc_cli_mfu_info_print_version_storage_size+0x30>)
     da4:	47a0      	blx	r4
}
     da6:	e7f8      	b.n	d9a <nfc_cli_mfu_info_print_version_storage_size+0x1e>
     da8:	000009a8 	.word	0x000009a8
     dac:	00000000 	.word	0x00000000
     db0:	000009bc 	.word	0x000009bc

00000db4 <nfc_cli_mfu_info_get_vendor>:
static void nfc_cli_mfu_info_get_vendor(const uint8_t vendor_key, FuriString* output) {
     db4:	b5f0      	push	{r4, r5, r6, r7, lr}
     db6:	b083      	sub	sp, #12
    furi_assert(output);
     db8:	b1f1      	cbz	r1, df8 <nfc_cli_mfu_info_get_vendor+0x44>
     dba:	4606      	mov	r6, r0
     dbc:	460f      	mov	r7, r1
    FuriString* buf = furi_string_alloc();
     dbe:	4b1e      	ldr	r3, [pc, #120]	@ (e38 <sukima183+0x3c>)
     dc0:	4798      	blx	r3
     dc2:	4604      	mov	r4, r0
    Storage* storage = furi_record_open(RECORD_STORAGE);
     dc4:	481d      	ldr	r0, [pc, #116]	@ (e3c <sukima183+0x40>)
     dc6:	4b1e      	ldr	r3, [pc, #120]	@ (e40 <sukima183+0x44>)
     dc8:	4798      	blx	r3
    FlipperFormat* ff = flipper_format_file_alloc(storage);
     dca:	4b1e      	ldr	r3, [pc, #120]	@ (e44 <sukima183+0x48>)
     dcc:	4798      	blx	r3
     dce:	4605      	mov	r5, r0
        if(!flipper_format_file_open_existing(ff, EXT_PATH("nfc/assets/vendors.nfc"))) {
     dd0:	491d      	ldr	r1, [pc, #116]	@ (e48 <sukima183+0x4c>)
     dd2:	4b1e      	ldr	r3, [pc, #120]	@ (e4c <sukima183+0x50>)
     dd4:	4798      	blx	r3
     dd6:	b998      	cbnz	r0, e00 <sukima183+0x4>
            FURI_LOG_W(TAG, "NFC Vendors dict not found");
     dd8:	4a1d      	ldr	r2, [pc, #116]	@ (e50 <sukima183+0x54>)
     dda:	491e      	ldr	r1, [pc, #120]	@ (e54 <sukima183+0x58>)
     ddc:	2003      	movs	r0, #3
     dde:	4b1e      	ldr	r3, [pc, #120]	@ (e58 <sukima183+0x5c>)
     de0:	4798      	blx	r3
    flipper_format_free(ff);
     de2:	4628      	mov	r0, r5
     de4:	4b1d      	ldr	r3, [pc, #116]	@ (e5c <sukima183+0x60>)
     de6:	4798      	blx	r3
    furi_record_close(RECORD_STORAGE);
     de8:	4814      	ldr	r0, [pc, #80]	@ (e3c <sukima183+0x40>)
     dea:	4b1d      	ldr	r3, [pc, #116]	@ (e60 <sukima183+0x64>)
     dec:	4798      	blx	r3
    furi_string_free(buf);
     dee:	4620      	mov	r0, r4
     df0:	4b1c      	ldr	r3, [pc, #112]	@ (e64 <sukima183+0x68>)
     df2:	4798      	blx	r3
}
     df4:	b003      	add	sp, #12
     df6:	bdf0      	pop	{r4, r5, r6, r7, pc}
    furi_assert(output);
     df8:	f04f 0c01 	mov.w	ip, #1

00000dfc <sukima183>:
     dfc:	4b1a      	ldr	r3, [pc, #104]	@ (e68 <sukima183+0x6c>)
     dfe:	4798      	blx	r3
        snprintf(uid_str, sizeof(uid_str), "%d", vendor_key);
     e00:	4633      	mov	r3, r6
     e02:	4a1a      	ldr	r2, [pc, #104]	@ (e6c <sukima183+0x70>)
     e04:	2105      	movs	r1, #5
     e06:	4668      	mov	r0, sp
     e08:	4e19      	ldr	r6, [pc, #100]	@ (e70 <sukima183+0x74>)
     e0a:	47b0      	blx	r6
        if(flipper_format_read_string(ff, uid_str, buf))
     e0c:	4622      	mov	r2, r4
     e0e:	4669      	mov	r1, sp
     e10:	4628      	mov	r0, r5
     e12:	4b18      	ldr	r3, [pc, #96]	@ (e74 <sukima183+0x78>)
     e14:	4798      	blx	r3
     e16:	b148      	cbz	r0, e2c <sukima183+0x30>
            furi_string_printf(output, "%s, %s", uid_str, furi_string_get_cstr(buf));
     e18:	4620      	mov	r0, r4
     e1a:	4b17      	ldr	r3, [pc, #92]	@ (e78 <sukima183+0x7c>)
     e1c:	4798      	blx	r3
     e1e:	4603      	mov	r3, r0
     e20:	466a      	mov	r2, sp
     e22:	4916      	ldr	r1, [pc, #88]	@ (e7c <sukima183+0x80>)
     e24:	4638      	mov	r0, r7
     e26:	4e16      	ldr	r6, [pc, #88]	@ (e80 <sukima183+0x84>)
     e28:	47b0      	blx	r6
     e2a:	e7da      	b.n	de2 <nfc_cli_mfu_info_get_vendor+0x2e>
            furi_string_printf(output, "unknown");
     e2c:	4915      	ldr	r1, [pc, #84]	@ (e84 <sukima183+0x88>)
     e2e:	4638      	mov	r0, r7
     e30:	4b13      	ldr	r3, [pc, #76]	@ (e80 <sukima183+0x84>)
     e32:	4798      	blx	r3
     e34:	e7d5      	b.n	de2 <nfc_cli_mfu_info_get_vendor+0x2e>
     e36:	bf00      	nop
     e38:	00000000 	.word	0x00000000
     e3c:	000009d8 	.word	0x000009d8
	...
     e48:	000009e0 	.word	0x000009e0
     e4c:	00000000 	.word	0x00000000
     e50:	000009fc 	.word	0x000009fc
     e54:	00000a18 	.word	0x00000a18
	...
     e6c:	00000a20 	.word	0x00000a20
	...
     e7c:	00000a24 	.word	0x00000a24
     e80:	00000000 	.word	0x00000000
     e84:	00000a2c 	.word	0x00000a2c

00000e88 <nfc_cli_mfu_info_print_common>:
static void nfc_cli_mfu_info_print_common(const MfUltralightData* data) {
     e88:	b5f8      	push	{r3, r4, r5, r6, r7, lr}
     e8a:	4605      	mov	r5, r0
    FuriString* str = furi_string_alloc();
     e8c:	4b17      	ldr	r3, [pc, #92]	@ (eec <nfc_cli_mfu_info_print_common+0x64>)
     e8e:	4798      	blx	r3
     e90:	4604      	mov	r4, r0
    printf(ANSI_FG_GREEN "\r\n\tTag information\r\n" ANSI_RESET);
     e92:	4817      	ldr	r0, [pc, #92]	@ (ef0 <nfc_cli_mfu_info_print_common+0x68>)
     e94:	4e17      	ldr	r6, [pc, #92]	@ (ef4 <nfc_cli_mfu_info_print_common+0x6c>)
     e96:	47b0      	blx	r6
    printf(
     e98:	2100      	movs	r1, #0
     e9a:	4628      	mov	r0, r5
     e9c:	4b16      	ldr	r3, [pc, #88]	@ (ef8 <nfc_cli_mfu_info_print_common+0x70>)
     e9e:	4798      	blx	r3
     ea0:	4601      	mov	r1, r0
     ea2:	4816      	ldr	r0, [pc, #88]	@ (efc <nfc_cli_mfu_info_print_common+0x74>)
     ea4:	47b0      	blx	r6
    nfc_cli_mfu_info_get_vendor(data->iso14443_3a_data->uid[0], str);
     ea6:	682b      	ldr	r3, [r5, #0]
     ea8:	4621      	mov	r1, r4
     eaa:	7818      	ldrb	r0, [r3, #0]
     eac:	4b14      	ldr	r3, [pc, #80]	@ (f00 <nfc_cli_mfu_info_print_common+0x78>)
     eae:	4798      	blx	r3
    printf("Vendor ID: %s\r\n", furi_string_get_cstr(str));
     eb0:	4620      	mov	r0, r4
     eb2:	4f14      	ldr	r7, [pc, #80]	@ (f04 <nfc_cli_mfu_info_print_common+0x7c>)
     eb4:	47b8      	blx	r7
     eb6:	4601      	mov	r1, r0
     eb8:	4813      	ldr	r0, [pc, #76]	@ (f08 <nfc_cli_mfu_info_print_common+0x80>)
     eba:	47b0      	blx	r6
    furi_string_reset(str);
     ebc:	4620      	mov	r0, r4
     ebe:	4b13      	ldr	r3, [pc, #76]	@ (f0c <nfc_cli_mfu_info_print_common+0x84>)
     ec0:	4798      	blx	r3
    nfc_render_mf_ultralight_info(data, NfcProtocolFormatTypeFull, str);
     ec2:	4622      	mov	r2, r4
     ec4:	2101      	movs	r1, #1
     ec6:	4628      	mov	r0, r5
     ec8:	4b11      	ldr	r3, [pc, #68]	@ (f10 <nfc_cli_mfu_info_print_common+0x88>)
     eca:	4798      	blx	r3
    printf("%s\r\n", furi_string_get_cstr(str));
     ecc:	4620      	mov	r0, r4
     ece:	47b8      	blx	r7
     ed0:	4601      	mov	r1, r0
     ed2:	4810      	ldr	r0, [pc, #64]	@ (f14 <nfc_cli_mfu_info_print_common+0x8c>)
     ed4:	47b0      	blx	r6
    printf("BCC0: %02X\r\nBCC1: %02X\r\n", data->page[0].data[3], data->page[2].data[0]);
     ed6:	f895 2047 	ldrb.w	r2, [r5, #71]	@ 0x47
     eda:	f895 1042 	ldrb.w	r1, [r5, #66]	@ 0x42
     ede:	480e      	ldr	r0, [pc, #56]	@ (f18 <nfc_cli_mfu_info_print_common+0x90>)
     ee0:	47b0      	blx	r6
    furi_string_free(str);
     ee2:	4620      	mov	r0, r4
     ee4:	4b0d      	ldr	r3, [pc, #52]	@ (f1c <nfc_cli_mfu_info_print_common+0x94>)
     ee6:	4798      	blx	r3
}
     ee8:	bdf8      	pop	{r3, r4, r5, r6, r7, pc}
     eea:	bf00      	nop
     eec:	00000000 	.word	0x00000000
     ef0:	00000a34 	.word	0x00000a34
	...
     efc:	00000a54 	.word	0x00000a54
	...
     f08:	00000a68 	.word	0x00000a68
	...
     f14:	00000a78 	.word	0x00000a78
     f18:	00000a80 	.word	0x00000a80
     f1c:	00000000 	.word	0x00000000

00000f20 <nfc_cli_mfu_info_print_counter>:
static void nfc_cli_mfu_info_print_counter(const MfUltralightData* data) {
     f20:	e92d 41f0 	stmdb	sp!, {r4, r5, r6, r7, r8, lr}
     f24:	4605      	mov	r5, r0
    uint32_t features = mf_ultralight_get_feature_support_set(data->type);
     f26:	7900      	ldrb	r0, [r0, #4]
     f28:	4b1b      	ldr	r3, [pc, #108]	@ (f98 <nfc_cli_mfu_info_print_counter+0x78>)
     f2a:	4798      	blx	r3
     f2c:	4604      	mov	r4, r0
    if(!mf_ultralight_support_feature(features, MfUltralightFeatureSupportReadCounter)) return;
     f2e:	2104      	movs	r1, #4
     f30:	4b1a      	ldr	r3, [pc, #104]	@ (f9c <nfc_cli_mfu_info_print_counter+0x7c>)
     f32:	4798      	blx	r3
     f34:	b908      	cbnz	r0, f3a <nfc_cli_mfu_info_print_counter+0x1a>
}
     f36:	e8bd 81f0 	ldmia.w	sp!, {r4, r5, r6, r7, r8, pc}
    printf(ANSI_FG_GREEN "\r\n\n\tTag counters\r\n" ANSI_RESET);
     f3a:	4819      	ldr	r0, [pc, #100]	@ (fa0 <nfc_cli_mfu_info_print_counter+0x80>)
     f3c:	4b19      	ldr	r3, [pc, #100]	@ (fa4 <nfc_cli_mfu_info_print_counter+0x84>)
     f3e:	4798      	blx	r3
        mf_ultralight_support_feature(features, MfUltralightFeatureSupportSingleCounter) ? 2 : 0;
     f40:	f44f 6100 	mov.w	r1, #2048	@ 0x800
     f44:	4620      	mov	r0, r4
     f46:	4b15      	ldr	r3, [pc, #84]	@ (f9c <nfc_cli_mfu_info_print_counter+0x7c>)
     f48:	4798      	blx	r3
    uint8_t i =
     f4a:	bb10      	cbnz	r0, f92 <nfc_cli_mfu_info_print_counter+0x72>
     f4c:	2400      	movs	r4, #0
     f4e:	e006      	b.n	f5e <nfc_cli_mfu_info_print_counter+0x3e>
        printf(
     f50:	4b15      	ldr	r3, [pc, #84]	@ (fa8 <nfc_cli_mfu_info_print_counter+0x88>)
     f52:	4641      	mov	r1, r8
     f54:	4815      	ldr	r0, [pc, #84]	@ (fac <nfc_cli_mfu_info_print_counter+0x8c>)
     f56:	4e13      	ldr	r6, [pc, #76]	@ (fa4 <nfc_cli_mfu_info_print_counter+0x84>)
     f58:	47b0      	blx	r6
    for(; i < MF_ULTRALIGHT_COUNTER_NUM; i++) {
     f5a:	3401      	adds	r4, #1
     f5c:	b2e4      	uxtb	r4, r4
     f5e:	2c02      	cmp	r4, #2
     f60:	d8e9      	bhi.n	f36 <nfc_cli_mfu_info_print_counter+0x16>
        printf("Counter [%d]: ", i);
     f62:	46a0      	mov	r8, r4
     f64:	4621      	mov	r1, r4
     f66:	4812      	ldr	r0, [pc, #72]	@ (fb0 <nfc_cli_mfu_info_print_counter+0x90>)
     f68:	4f0e      	ldr	r7, [pc, #56]	@ (fa4 <nfc_cli_mfu_info_print_counter+0x84>)
     f6a:	47b8      	blx	r7
        nfc_cli_printf_array(data->counter[i].data, MF_ULTRALIGHT_COUNTER_SIZE, "");
     f6c:	f104 060c 	add.w	r6, r4, #12
     f70:	4a10      	ldr	r2, [pc, #64]	@ (fb4 <nfc_cli_mfu_info_print_counter+0x94>)
     f72:	2103      	movs	r1, #3
     f74:	eb05 0086 	add.w	r0, r5, r6, lsl #2
     f78:	4b0f      	ldr	r3, [pc, #60]	@ (fb8 <nfc_cli_mfu_info_print_counter+0x98>)
     f7a:	4798      	blx	r3
        printf(" Value: %lu\r\n", data->counter[i].counter);
     f7c:	f855 1026 	ldr.w	r1, [r5, r6, lsl #2]
     f80:	480e      	ldr	r0, [pc, #56]	@ (fbc <nfc_cli_mfu_info_print_counter+0x9c>)
     f82:	47b8      	blx	r7
        const uint8_t tf = data->tearing_flag[i].data;
     f84:	192b      	adds	r3, r5, r4
     f86:	f893 203c 	ldrb.w	r2, [r3, #60]	@ 0x3c
        printf(
     f8a:	2abd      	cmp	r2, #189	@ 0xbd
     f8c:	d0e0      	beq.n	f50 <nfc_cli_mfu_info_print_counter+0x30>
     f8e:	4b09      	ldr	r3, [pc, #36]	@ (fb4 <nfc_cli_mfu_info_print_counter+0x94>)
     f90:	e7df      	b.n	f52 <nfc_cli_mfu_info_print_counter+0x32>
    uint8_t i =
     f92:	2402      	movs	r4, #2
     f94:	e7e3      	b.n	f5e <nfc_cli_mfu_info_print_counter+0x3e>
     f96:	bf00      	nop
	...
     fa0:	00000aa8 	.word	0x00000aa8
     fa4:	00000000 	.word	0x00000000
     fa8:	00000a9c 	.word	0x00000a9c
     fac:	00000ae4 	.word	0x00000ae4
     fb0:	00000ac4 	.word	0x00000ac4
     fb4:	00000aa4 	.word	0x00000aa4
     fb8:	00000000 	.word	0x00000000
     fbc:	00000ad4 	.word	0x00000ad4

00000fc0 <nfc_cli_mfu_info_print_signature>:
static void nfc_cli_mfu_info_print_signature(const MfUltralightData* data) {
     fc0:	b510      	push	{r4, lr}
     fc2:	4604      	mov	r4, r0
    uint32_t features = mf_ultralight_get_feature_support_set(data->type);
     fc4:	7900      	ldrb	r0, [r0, #4]
     fc6:	4b08      	ldr	r3, [pc, #32]	@ (fe8 <nfc_cli_mfu_info_print_signature+0x28>)
     fc8:	4798      	blx	r3
    if(!mf_ultralight_support_feature(features, MfUltralightFeatureSupportReadSignature)) return;
     fca:	2102      	movs	r1, #2
     fcc:	4b07      	ldr	r3, [pc, #28]	@ (fec <nfc_cli_mfu_info_print_signature+0x2c>)
     fce:	4798      	blx	r3
     fd0:	b900      	cbnz	r0, fd4 <nfc_cli_mfu_info_print_signature+0x14>
}
     fd2:	bd10      	pop	{r4, pc}
    printf(ANSI_FG_GREEN "\r\n\n\tTag signature\r\n" ANSI_RESET);
     fd4:	4806      	ldr	r0, [pc, #24]	@ (ff0 <nfc_cli_mfu_info_print_signature+0x30>)
     fd6:	4b07      	ldr	r3, [pc, #28]	@ (ff4 <nfc_cli_mfu_info_print_signature+0x34>)
     fd8:	4798      	blx	r3
    nfc_cli_printf_array(signature->data, sizeof(signature->data), "ECC signature: ");
     fda:	4a07      	ldr	r2, [pc, #28]	@ (ff8 <nfc_cli_mfu_info_print_signature+0x38>)
     fdc:	2120      	movs	r1, #32
     fde:	f104 000d 	add.w	r0, r4, #13
     fe2:	4b06      	ldr	r3, [pc, #24]	@ (ffc <nfc_cli_mfu_info_print_signature+0x3c>)
     fe4:	4798      	blx	r3
     fe6:	e7f4      	b.n	fd2 <nfc_cli_mfu_info_print_signature+0x12>
	...
     ff0:	00000afc 	.word	0x00000afc
     ff4:	00000000 	.word	0x00000000
     ff8:	00000b1c 	.word	0x00000b1c
     ffc:	00000000 	.word	0x00000000

00001000 <nfc_cli_mfu_info_print_version>:

static void nfc_cli_mfu_info_print_version(const MfUltralightData* data) {
    1000:	b570      	push	{r4, r5, r6, lr}
    1002:	4604      	mov	r4, r0
    uint32_t features = mf_ultralight_get_feature_support_set(data->type);
    1004:	7900      	ldrb	r0, [r0, #4]
    1006:	4b1e      	ldr	r3, [pc, #120]	@ (1080 <nfc_cli_mfu_info_print_version+0x80>)
    1008:	4798      	blx	r3
    if(!mf_ultralight_support_feature(features, MfUltralightFeatureSupportReadVersion)) return;
    100a:	2101      	movs	r1, #1
    100c:	4b1d      	ldr	r3, [pc, #116]	@ (1084 <nfc_cli_mfu_info_print_version+0x84>)
    100e:	4798      	blx	r3
    1010:	b900      	cbnz	r0, 1014 <nfc_cli_mfu_info_print_version+0x14>
    printf(
        "Major version: %02X\r\nMinor version: %02X\r\nSize: ",
        version->prod_ver_major,
        version->prod_ver_minor);
    nfc_cli_mfu_info_print_version_storage_size(version->storage_size);
}
    1012:	bd70      	pop	{r4, r5, r6, pc}
    const MfUltralightVersion* version = &data->version;
    1014:	1d65      	adds	r5, r4, #5
    printf(ANSI_FG_GREEN "\r\n\n\tTag Version\r\n" ANSI_RESET);
    1016:	481c      	ldr	r0, [pc, #112]	@ (1088 <nfc_cli_mfu_info_print_version+0x88>)
    1018:	4e1c      	ldr	r6, [pc, #112]	@ (108c <nfc_cli_mfu_info_print_version+0x8c>)
    101a:	47b0      	blx	r6
    nfc_cli_printf_array((uint8_t*)version, sizeof(MfUltralightVersion), "Raw bytes: ");
    101c:	4a1c      	ldr	r2, [pc, #112]	@ (1090 <nfc_cli_mfu_info_print_version+0x90>)
    101e:	2108      	movs	r1, #8
    1020:	4628      	mov	r0, r5
    1022:	4b1c      	ldr	r3, [pc, #112]	@ (1094 <nfc_cli_mfu_info_print_version+0x94>)
    1024:	4798      	blx	r3
    FuriString* str = furi_string_alloc();
    1026:	4b1c      	ldr	r3, [pc, #112]	@ (1098 <nfc_cli_mfu_info_print_version+0x98>)
    1028:	4798      	blx	r3
    102a:	4605      	mov	r5, r0
    nfc_cli_mfu_info_get_vendor(version->vendor_id, str);
    102c:	4601      	mov	r1, r0
    102e:	79a0      	ldrb	r0, [r4, #6]
    1030:	4b1a      	ldr	r3, [pc, #104]	@ (109c <nfc_cli_mfu_info_print_version+0x9c>)
    1032:	4798      	blx	r3
    printf("\r\nVendor ID: %s\r\n", furi_string_get_cstr(str));
    1034:	4628      	mov	r0, r5
    1036:	4b1a      	ldr	r3, [pc, #104]	@ (10a0 <nfc_cli_mfu_info_print_version+0xa0>)
    1038:	4798      	blx	r3
    103a:	4601      	mov	r1, r0
    103c:	4819      	ldr	r0, [pc, #100]	@ (10a4 <nfc_cli_mfu_info_print_version+0xa4>)
    103e:	47b0      	blx	r6
    furi_string_free(str);
    1040:	4628      	mov	r0, r5
    1042:	4b19      	ldr	r3, [pc, #100]	@ (10a8 <nfc_cli_mfu_info_print_version+0xa8>)
    1044:	4798      	blx	r3
    printf("Product type: %02X\r\n", version->prod_type);
    1046:	79e1      	ldrb	r1, [r4, #7]
    1048:	4818      	ldr	r0, [pc, #96]	@ (10ac <nfc_cli_mfu_info_print_version+0xac>)
    104a:	47b0      	blx	r6
        version->protocol_type,
    104c:	7b21      	ldrb	r1, [r4, #12]
    printf(
    104e:	2903      	cmp	r1, #3
    1050:	d012      	beq.n	1078 <nfc_cli_mfu_info_print_version+0x78>
    1052:	4a17      	ldr	r2, [pc, #92]	@ (10b0 <nfc_cli_mfu_info_print_version+0xb0>)
    1054:	4817      	ldr	r0, [pc, #92]	@ (10b4 <nfc_cli_mfu_info_print_version+0xb4>)
    1056:	4b0d      	ldr	r3, [pc, #52]	@ (108c <nfc_cli_mfu_info_print_version+0x8c>)
    1058:	4798      	blx	r3
        version->prod_subtype,
    105a:	7a21      	ldrb	r1, [r4, #8]
    printf(
    105c:	2901      	cmp	r1, #1
    105e:	d00d      	beq.n	107c <nfc_cli_mfu_info_print_version+0x7c>
    1060:	4a15      	ldr	r2, [pc, #84]	@ (10b8 <nfc_cli_mfu_info_print_version+0xb8>)
    1062:	4816      	ldr	r0, [pc, #88]	@ (10bc <nfc_cli_mfu_info_print_version+0xbc>)
    1064:	4d09      	ldr	r5, [pc, #36]	@ (108c <nfc_cli_mfu_info_print_version+0x8c>)
    1066:	47a8      	blx	r5
    printf(
    1068:	7aa2      	ldrb	r2, [r4, #10]
    106a:	7a61      	ldrb	r1, [r4, #9]
    106c:	4814      	ldr	r0, [pc, #80]	@ (10c0 <nfc_cli_mfu_info_print_version+0xc0>)
    106e:	47a8      	blx	r5
    nfc_cli_mfu_info_print_version_storage_size(version->storage_size);
    1070:	7ae0      	ldrb	r0, [r4, #11]
    1072:	4b14      	ldr	r3, [pc, #80]	@ (10c4 <nfc_cli_mfu_info_print_version+0xc4>)
    1074:	4798      	blx	r3
    1076:	e7cc      	b.n	1012 <nfc_cli_mfu_info_print_version+0x12>
    printf(
    1078:	4a13      	ldr	r2, [pc, #76]	@ (10c8 <nfc_cli_mfu_info_print_version+0xc8>)
    107a:	e7eb      	b.n	1054 <nfc_cli_mfu_info_print_version+0x54>
    printf(
    107c:	4a13      	ldr	r2, [pc, #76]	@ (10cc <nfc_cli_mfu_info_print_version+0xcc>)
    107e:	e7f0      	b.n	1062 <nfc_cli_mfu_info_print_version+0x62>
	...
    1088:	00000b54 	.word	0x00000b54
    108c:	00000000 	.word	0x00000000
    1090:	00000b70 	.word	0x00000b70
	...
    10a4:	00000b7c 	.word	0x00000b7c
    10a8:	00000000 	.word	0x00000000
    10ac:	00000b90 	.word	0x00000b90
    10b0:	00000aa4 	.word	0x00000aa4
    10b4:	00000ba8 	.word	0x00000ba8
    10b8:	00000b4c 	.word	0x00000b4c
    10bc:	00000bc0 	.word	0x00000bc0
    10c0:	00000be0 	.word	0x00000be0
    10c4:	00000000 	.word	0x00000000
    10c8:	00000b2c 	.word	0x00000b2c
    10cc:	00000b44 	.word	0x00000b44

000010d0 <nfc_cli_mfu_capability_container_get_access_description>:
    if(value == 0x00)
    10d0:	b158      	cbz	r0, 10ea <nfc_cli_mfu_capability_container_get_access_description+0x1a>
    else if(value >= 0x08 && value <= 0x0E)
    10d2:	f1a0 0308 	sub.w	r3, r0, #8
    10d6:	b2db      	uxtb	r3, r3
    10d8:	2b06      	cmp	r3, #6
    10da:	d908      	bls.n	10ee <nfc_cli_mfu_capability_container_get_access_description+0x1e>
    else if(value == 0x0F && !read)
    10dc:	280f      	cmp	r0, #15
    10de:	d001      	beq.n	10e4 <nfc_cli_mfu_capability_container_get_access_description+0x14>
    const char* description = "RFU"; //value 0x01 - 0x07, and 0xF when read
    10e0:	4805      	ldr	r0, [pc, #20]	@ (10f8 <nfc_cli_mfu_capability_container_get_access_description+0x28>)
    10e2:	4770      	bx	lr
    else if(value == 0x0F && !read)
    10e4:	b129      	cbz	r1, 10f2 <nfc_cli_mfu_capability_container_get_access_description+0x22>
    const char* description = "RFU"; //value 0x01 - 0x07, and 0xF when read
    10e6:	4804      	ldr	r0, [pc, #16]	@ (10f8 <nfc_cli_mfu_capability_container_get_access_description+0x28>)
    10e8:	4770      	bx	lr
        description = "access fully granted";
    10ea:	4804      	ldr	r0, [pc, #16]	@ (10fc <nfc_cli_mfu_capability_container_get_access_description+0x2c>)
    10ec:	4770      	bx	lr
        description = "proprietary";
    10ee:	4804      	ldr	r0, [pc, #16]	@ (1100 <nfc_cli_mfu_capability_container_get_access_description+0x30>)
    10f0:	4770      	bx	lr
        description = "no access granted at all";
    10f2:	4804      	ldr	r0, [pc, #16]	@ (1104 <nfc_cli_mfu_capability_container_get_access_description+0x34>)
}
    10f4:	4770      	bx	lr
    10f6:	bf00      	nop
    10f8:	00000c38 	.word	0x00000c38
    10fc:	00000c14 	.word	0x00000c14
    1100:	00000c2c 	.word	0x00000c2c
    1104:	00000c3c 	.word	0x00000c3c

00001108 <nfc_cli_mfu_info_print_ndef>:
    if(cc->magic == 0xE1) {
    1108:	f890 304b 	ldrb.w	r3, [r0, #75]	@ 0x4b
    110c:	2be1      	cmp	r3, #225	@ 0xe1
    110e:	d000      	beq.n	1112 <nfc_cli_mfu_info_print_ndef+0xa>
    1110:	4770      	bx	lr
static void nfc_cli_mfu_info_print_ndef(const MfUltralightData* data) {
    1112:	b5f0      	push	{r4, r5, r6, r7, lr}
    1114:	b083      	sub	sp, #12
    1116:	4604      	mov	r4, r0
        printf(ANSI_FG_GREEN "\r\n\tNDEF Message\r\n" ANSI_RESET);
    1118:	4817      	ldr	r0, [pc, #92]	@ (1178 <nfc_cli_mfu_info_print_ndef+0x70>)
    111a:	4d18      	ldr	r5, [pc, #96]	@ (117c <nfc_cli_mfu_info_print_ndef+0x74>)
    111c:	47a8      	blx	r5
        nfc_cli_printf_array(data->page[3].data, 4, "Capability container: ");
    111e:	4a18      	ldr	r2, [pc, #96]	@ (1180 <nfc_cli_mfu_info_print_ndef+0x78>)
    1120:	2104      	movs	r1, #4
    1122:	f104 004b 	add.w	r0, r4, #75	@ 0x4b
    1126:	4b17      	ldr	r3, [pc, #92]	@ (1184 <nfc_cli_mfu_info_print_ndef+0x7c>)
    1128:	4798      	blx	r3
            cc->version.major,
    112a:	f894 204c 	ldrb.w	r2, [r4, #76]	@ 0x4c
            cc->size,
    112e:	f894 304d 	ldrb.w	r3, [r4, #77]	@ 0x4d
        printf(
    1132:	00d9      	lsls	r1, r3, #3
    1134:	9101      	str	r1, [sp, #4]
    1136:	9300      	str	r3, [sp, #0]
    1138:	f002 030f 	and.w	r3, r2, #15
    113c:	0912      	lsrs	r2, r2, #4
    113e:	f894 104b 	ldrb.w	r1, [r4, #75]	@ 0x4b
    1142:	4811      	ldr	r0, [pc, #68]	@ (1188 <nfc_cli_mfu_info_print_ndef+0x80>)
    1144:	47a8      	blx	r5
            cc->access.read,
    1146:	f894 604e 	ldrb.w	r6, [r4, #78]	@ 0x4e
    114a:	0936      	lsrs	r6, r6, #4
        printf(
    114c:	2101      	movs	r1, #1
    114e:	4630      	mov	r0, r6
    1150:	4f0e      	ldr	r7, [pc, #56]	@ (118c <nfc_cli_mfu_info_print_ndef+0x84>)
    1152:	47b8      	blx	r7
    1154:	4602      	mov	r2, r0
    1156:	4631      	mov	r1, r6
    1158:	480d      	ldr	r0, [pc, #52]	@ (1190 <nfc_cli_mfu_info_print_ndef+0x88>)
    115a:	47a8      	blx	r5
            cc->access.write,
    115c:	f894 404e 	ldrb.w	r4, [r4, #78]	@ 0x4e
    1160:	f004 040f 	and.w	r4, r4, #15
        printf(
    1164:	2100      	movs	r1, #0
    1166:	4620      	mov	r0, r4
    1168:	47b8      	blx	r7
    116a:	4602      	mov	r2, r0
    116c:	4621      	mov	r1, r4
    116e:	4809      	ldr	r0, [pc, #36]	@ (1194 <nfc_cli_mfu_info_print_ndef+0x8c>)
    1170:	47a8      	blx	r5
}
    1172:	b003      	add	sp, #12
    1174:	bdf0      	pop	{r4, r5, r6, r7, pc}
    1176:	bf00      	nop
    1178:	00000c58 	.word	0x00000c58
    117c:	00000000 	.word	0x00000000
    1180:	00000c74 	.word	0x00000c74
    1184:	00000000 	.word	0x00000000
    1188:	00000c8c 	.word	0x00000c8c
    118c:	00000000 	.word	0x00000000
    1190:	00000ccc 	.word	0x00000ccc
    1194:	00000ce8 	.word	0x00000ce8

00001198 <nfc_cli_mfu_info_alloc_ctx>:

NfcCliActionContext* nfc_cli_mfu_info_alloc_ctx(Nfc* nfc) {
    1198:	b538      	push	{r3, r4, r5, lr}
    119a:	4605      	mov	r5, r0
    NfcCliMfuContext* instance = malloc(sizeof(NfcCliMfuContext));
    119c:	2008      	movs	r0, #8
    119e:	4b04      	ldr	r3, [pc, #16]	@ (11b0 <nfc_cli_mfu_info_alloc_ctx+0x18>)
    11a0:	4798      	blx	r3
    11a2:	4604      	mov	r4, r0
    instance->nfc = nfc;
    11a4:	6005      	str	r5, [r0, #0]
    instance->data = mf_ultralight_alloc();
    11a6:	4b03      	ldr	r3, [pc, #12]	@ (11b4 <nfc_cli_mfu_info_alloc_ctx+0x1c>)
    11a8:	4798      	blx	r3
    11aa:	6060      	str	r0, [r4, #4]
    return instance;
}
    11ac:	4620      	mov	r0, r4
    11ae:	bd38      	pop	{r3, r4, r5, pc}
	...

000011b8 <nfc_cli_mfu_info_free_ctx>:

void nfc_cli_mfu_info_free_ctx(NfcCliActionContext* ctx) {
    11b8:	b510      	push	{r4, lr}
    11ba:	4604      	mov	r4, r0
    NfcCliMfuContext* instance = ctx;
    mf_ultralight_free(instance->data);
    11bc:	6840      	ldr	r0, [r0, #4]
    11be:	4b03      	ldr	r3, [pc, #12]	@ (11cc <nfc_cli_mfu_info_free_ctx+0x14>)
    11c0:	4798      	blx	r3
    free(instance);
    11c2:	4620      	mov	r0, r4
    11c4:	4b02      	ldr	r3, [pc, #8]	@ (11d0 <nfc_cli_mfu_info_free_ctx+0x18>)
    11c6:	4798      	blx	r3
}
    11c8:	bd10      	pop	{r4, pc}
    11ca:	bf00      	nop
	...

000011d4 <nfc_cli_mfu_info_execute>:

void nfc_cli_mfu_info_execute(PipeSide* pipe, NfcCliActionContext* ctx) {
    11d4:	b510      	push	{r4, lr}
    furi_assert(pipe);
    11d6:	b1c0      	cbz	r0, 120a <nfc_cli_mfu_info_execute+0x36>
    11d8:	460c      	mov	r4, r1
    furi_assert(ctx);
    11da:	b1d1      	cbz	r1, 1212 <sukima1107+0x4>

    NfcCliMfuContext* instance = ctx;

    MfUltralightError error =
        mf_ultralight_poller_sync_read_card(instance->nfc, instance->data, NULL);
    11dc:	2200      	movs	r2, #0
    11de:	6849      	ldr	r1, [r1, #4]
    11e0:	6820      	ldr	r0, [r4, #0]
    11e2:	4b11      	ldr	r3, [pc, #68]	@ (1228 <sukima1124+0x12>)
    11e4:	4798      	blx	r3
    if(error == MfUltralightErrorNone) {
    11e6:	b9c0      	cbnz	r0, 121a <sukima1124+0x4>
        const MfUltralightData* data = instance->data;
    11e8:	6864      	ldr	r4, [r4, #4]
        nfc_cli_mfu_info_print_common(data);
    11ea:	4620      	mov	r0, r4
    11ec:	4b0f      	ldr	r3, [pc, #60]	@ (122c <sukima1124+0x16>)
    11ee:	4798      	blx	r3
        nfc_cli_mfu_info_print_ndef(data);
    11f0:	4620      	mov	r0, r4
    11f2:	4b0f      	ldr	r3, [pc, #60]	@ (1230 <sukima1124+0x1a>)
    11f4:	4798      	blx	r3
        nfc_cli_mfu_info_print_counter(data);
    11f6:	4620      	mov	r0, r4
    11f8:	4b0e      	ldr	r3, [pc, #56]	@ (1234 <sukima1124+0x1e>)
    11fa:	4798      	blx	r3
        nfc_cli_mfu_info_print_signature(data);
    11fc:	4620      	mov	r0, r4
    11fe:	4b0e      	ldr	r3, [pc, #56]	@ (1238 <sukima1124+0x22>)
    1200:	4798      	blx	r3
        nfc_cli_mfu_info_print_version(data);
    1202:	4620      	mov	r0, r4
    1204:	4b0d      	ldr	r3, [pc, #52]	@ (123c <sukima1124+0x26>)
    1206:	4798      	blx	r3
    } else {
        printf(ANSI_FG_RED "Error: %s" ANSI_RESET, nfc_cli_mf_ultralight_get_error(error));
    }
}
    1208:	bd10      	pop	{r4, pc}
    furi_assert(pipe);
    120a:	f04f 0c01 	mov.w	ip, #1

0000120e <sukima1107>:
    120e:	4b0c      	ldr	r3, [pc, #48]	@ (1240 <sukima1124+0x2a>)
    1210:	4798      	blx	r3
    furi_assert(ctx);
    1212:	f04f 0c01 	mov.w	ip, #1

00001216 <sukima1124>:
    1216:	4b0a      	ldr	r3, [pc, #40]	@ (1240 <sukima1124+0x2a>)
    1218:	4798      	blx	r3
        printf(ANSI_FG_RED "Error: %s" ANSI_RESET, nfc_cli_mf_ultralight_get_error(error));
    121a:	4b0a      	ldr	r3, [pc, #40]	@ (1244 <sukima1124+0x2e>)
    121c:	4798      	blx	r3
    121e:	4601      	mov	r1, r0
    1220:	4809      	ldr	r0, [pc, #36]	@ (1248 <sukima1124+0x32>)
    1222:	4b0a      	ldr	r3, [pc, #40]	@ (124c <sukima1124+0x36>)
    1224:	4798      	blx	r3
}
    1226:	e7ef      	b.n	1208 <nfc_cli_mfu_info_execute+0x34>
	...
    1248:	00000d04 	.word	0x00000d04
    124c:	00000000 	.word	0x00000000

00001250 <nfc_cli_dump_poller_callback_slix>:
#include "nfc_cli_dump_slix.h"
#include <nfc/protocols/slix/slix_poller.h>

NfcCommand nfc_cli_dump_poller_callback_slix(NfcGenericEvent event, void* context) {
    1250:	b530      	push	{r4, r5, lr}
    1252:	b085      	sub	sp, #20
    1254:	ac04      	add	r4, sp, #16
    1256:	e904 0007 	stmdb	r4, {r0, r1, r2}
    furi_assert(event.protocol == NfcProtocolSlix);
    125a:	f89d 2004 	ldrb.w	r2, [sp, #4]
    125e:	2a0a      	cmp	r2, #10
    1260:	d108      	bne.n	1274 <nfc_cli_dump_poller_callback_slix+0x24>
    1262:	461c      	mov	r4, r3

    NfcCliDumpContext* instance = context;
    const SlixPollerEvent* slix_event = event.event_data;
    1264:	9b03      	ldr	r3, [sp, #12]

    NfcCommand command = NfcCommandContinue;

    if(slix_event->type == SlixPollerEventTypeReady) {
    1266:	781a      	ldrb	r2, [r3, #0]
    1268:	2a02      	cmp	r2, #2
    126a:	d007      	beq.n	127c <sukima72+0x4>
        nfc_device_set_data(
            instance->nfc_device, NfcProtocolSlix, nfc_poller_get_data(instance->poller));
        command = NfcCommandStop;
    } else if(slix_event->type == SlixPollerEventTypeError) {
    126c:	b182      	cbz	r2, 1290 <sukima72+0x18>
    NfcCommand command = NfcCommandContinue;
    126e:	2000      	movs	r0, #0
    if(command == NfcCommandStop) {
        furi_semaphore_release(instance->sem_done);
    }

    return command;
}
    1270:	b005      	add	sp, #20
    1272:	bd30      	pop	{r4, r5, pc}
    furi_assert(event.protocol == NfcProtocolSlix);
    1274:	f04f 0c01 	mov.w	ip, #1

00001278 <sukima72>:
    1278:	4b09      	ldr	r3, [pc, #36]	@ (12a0 <sukima72+0x28>)
    127a:	4798      	blx	r3
        nfc_device_set_data(
    127c:	6ba5      	ldr	r5, [r4, #56]	@ 0x38
    127e:	6b60      	ldr	r0, [r4, #52]	@ 0x34
    1280:	4b08      	ldr	r3, [pc, #32]	@ (12a4 <sukima72+0x2c>)
    1282:	4798      	blx	r3
    1284:	4602      	mov	r2, r0
    1286:	210a      	movs	r1, #10
    1288:	4628      	mov	r0, r5
    128a:	4b07      	ldr	r3, [pc, #28]	@ (12a8 <sukima72+0x30>)
    128c:	4798      	blx	r3
    if(command == NfcCommandStop) {
    128e:	e001      	b.n	1294 <sukima72+0x1c>
        instance->result = NfcCliDumpErrorFailedToRead;
    1290:	2303      	movs	r3, #3
    1292:	7723      	strb	r3, [r4, #28]
        furi_semaphore_release(instance->sem_done);
    1294:	69a0      	ldr	r0, [r4, #24]
    1296:	4b05      	ldr	r3, [pc, #20]	@ (12ac <sukima72+0x34>)
    1298:	4798      	blx	r3
    129a:	2002      	movs	r0, #2
    129c:	e7e8      	b.n	1270 <nfc_cli_dump_poller_callback_slix+0x20>
    129e:	bf00      	nop
	...

000012b0 <nfc_cli_mfu_rdbl_alloc_ctx>:
typedef struct {
    Nfc* nfc;
    uint16_t block;
} NfcCliMfuRdblContext;

NfcCliActionContext* nfc_cli_mfu_rdbl_alloc_ctx(Nfc* nfc) {
    12b0:	b510      	push	{r4, lr}
    furi_assert(nfc);
    12b2:	b128      	cbz	r0, 12c0 <nfc_cli_mfu_rdbl_alloc_ctx+0x10>
    12b4:	4604      	mov	r4, r0
    NfcCliMfuRdblContext* instance = malloc(sizeof(NfcCliMfuRdblContext));
    12b6:	2008      	movs	r0, #8
    12b8:	4b03      	ldr	r3, [pc, #12]	@ (12c8 <sukima42+0x4>)
    12ba:	4798      	blx	r3
    instance->nfc = nfc;
    12bc:	6004      	str	r4, [r0, #0]
    return instance;
}
    12be:	bd10      	pop	{r4, pc}
    furi_assert(nfc);
    12c0:	f04f 0c01 	mov.w	ip, #1

000012c4 <sukima42>:
    12c4:	4b01      	ldr	r3, [pc, #4]	@ (12cc <sukima42+0x8>)
    12c6:	4798      	blx	r3
	...

000012d0 <nfc_cli_mfu_rdbl_free_ctx>:

void nfc_cli_mfu_rdbl_free_ctx(NfcCliActionContext* ctx) {
    12d0:	b508      	push	{r3, lr}
    furi_assert(ctx);
    12d2:	b110      	cbz	r0, 12da <nfc_cli_mfu_rdbl_free_ctx+0xa>
    NfcCliMfuRdblContext* instance = ctx;
    free(instance);
    12d4:	4b03      	ldr	r3, [pc, #12]	@ (12e4 <sukima92+0x6>)
    12d6:	4798      	blx	r3
}
    12d8:	bd08      	pop	{r3, pc}
    furi_assert(ctx);
    12da:	f04f 0c01 	mov.w	ip, #1

000012de <sukima92>:
    12de:	4b02      	ldr	r3, [pc, #8]	@ (12e8 <sukima92+0xa>)
    12e0:	4798      	blx	r3
    12e2:	bf00      	nop
	...

000012ec <nfc_cli_mfu_rdbl_execute>:

void nfc_cli_mfu_rdbl_execute(PipeSide* pipe, NfcCliActionContext* ctx) {
    12ec:	b510      	push	{r4, lr}
    12ee:	b082      	sub	sp, #8
    furi_assert(pipe);
    12f0:	b1c0      	cbz	r0, 1324 <nfc_cli_mfu_rdbl_execute+0x38>
    12f2:	460c      	mov	r4, r1

    NfcCliMfuRdblContext* instance = ctx;
    MfUltralightPage page = {0};
    12f4:	4b11      	ldr	r3, [pc, #68]	@ (133c <sukima196+0x14>)
    12f6:	681b      	ldr	r3, [r3, #0]
    12f8:	9301      	str	r3, [sp, #4]

    MfUltralightError error =
        mf_ultralight_poller_sync_read_page(instance->nfc, instance->block, &page);
    12fa:	aa01      	add	r2, sp, #4
    12fc:	8889      	ldrh	r1, [r1, #4]
    12fe:	6820      	ldr	r0, [r4, #0]
    1300:	4b0f      	ldr	r3, [pc, #60]	@ (1340 <sukima196+0x18>)
    1302:	4798      	blx	r3

    if(error == MfUltralightErrorNone) {
    1304:	b990      	cbnz	r0, 132c <sukima196+0x4>
        printf("\r\nBlock: %d ", instance->block);
    1306:	88a1      	ldrh	r1, [r4, #4]
    1308:	480e      	ldr	r0, [pc, #56]	@ (1344 <sukima196+0x1c>)
    130a:	4b0f      	ldr	r3, [pc, #60]	@ (1348 <sukima196+0x20>)
    130c:	4798      	blx	r3
        nfc_cli_printf_array(page.data, sizeof(MfUltralightPage), "Data: ");
    130e:	4a0f      	ldr	r2, [pc, #60]	@ (134c <sukima196+0x24>)
    1310:	2104      	movs	r1, #4
    1312:	eb0d 0001 	add.w	r0, sp, r1
    1316:	4b0e      	ldr	r3, [pc, #56]	@ (1350 <sukima196+0x28>)
    1318:	4798      	blx	r3
        printf("\r\n");
    131a:	480e      	ldr	r0, [pc, #56]	@ (1354 <sukima196+0x2c>)
    131c:	4b0e      	ldr	r3, [pc, #56]	@ (1358 <sukima196+0x30>)
    131e:	4798      	blx	r3
    } else {
        printf(ANSI_FG_RED "Error: %s" ANSI_RESET, nfc_cli_mf_ultralight_get_error(error));
    }
}
    1320:	b002      	add	sp, #8
    1322:	bd10      	pop	{r4, pc}
    furi_assert(pipe);
    1324:	f04f 0c01 	mov.w	ip, #1

00001328 <sukima196>:
    1328:	4b0c      	ldr	r3, [pc, #48]	@ (135c <sukima196+0x34>)
    132a:	4798      	blx	r3
        printf(ANSI_FG_RED "Error: %s" ANSI_RESET, nfc_cli_mf_ultralight_get_error(error));
    132c:	4b0c      	ldr	r3, [pc, #48]	@ (1360 <sukima196+0x38>)
    132e:	4798      	blx	r3
    1330:	4601      	mov	r1, r0
    1332:	480c      	ldr	r0, [pc, #48]	@ (1364 <sukima196+0x3c>)
    1334:	4b04      	ldr	r3, [pc, #16]	@ (1348 <sukima196+0x20>)
    1336:	4798      	blx	r3
}
    1338:	e7f2      	b.n	1320 <nfc_cli_mfu_rdbl_execute+0x34>
    133a:	bf00      	nop
	...
    1344:	00000d18 	.word	0x00000d18
    1348:	00000000 	.word	0x00000000
    134c:	00000d28 	.word	0x00000d28
    1350:	00000000 	.word	0x00000000
    1354:	00000d30 	.word	0x00000d30
	...
    1364:	00000d34 	.word	0x00000d34

00001368 <nfc_cli_mfu_rdbl_parse_block>:

bool nfc_cli_mfu_rdbl_parse_block(FuriString* value, NfcCliActionContext* output) {
    1368:	b510      	push	{r4, lr}
    136a:	460c      	mov	r4, r1
    NfcCliMfuRdblContext* ctx = output;

    StrintParseError err = strint_to_uint16(furi_string_get_cstr(value), NULL, &ctx->block, 10);
    136c:	4b05      	ldr	r3, [pc, #20]	@ (1384 <nfc_cli_mfu_rdbl_parse_block+0x1c>)
    136e:	4798      	blx	r3
    1370:	230a      	movs	r3, #10
    1372:	1d22      	adds	r2, r4, #4
    1374:	2100      	movs	r1, #0
    1376:	4c04      	ldr	r4, [pc, #16]	@ (1388 <nfc_cli_mfu_rdbl_parse_block+0x20>)
    1378:	47a0      	blx	r4
    return err == StrintParseNoError;
}
    137a:	fab0 f080 	clz	r0, r0
    137e:	0940      	lsrs	r0, r0, #5
    1380:	bd10      	pop	{r4, pc}
    1382:	bf00      	nop
	...

0000138c <nfc_render_mf_ultralight_pages_count>:
#include "mf_ultralight_render.h"

#include "../iso14443_3a/iso14443_3a_render.h"

static void nfc_render_mf_ultralight_pages_count(const MfUltralightData* data, FuriString* str) {
    138c:	b570      	push	{r4, r5, r6, lr}
    138e:	4604      	mov	r4, r0
    1390:	460d      	mov	r5, r1
    furi_string_cat_printf(str, "\nPages Read: %u/%u", data->pages_read, data->pages_total);
    1392:	f8b0 383a 	ldrh.w	r3, [r0, #2106]	@ 0x83a
    1396:	f8b0 2838 	ldrh.w	r2, [r0, #2104]	@ 0x838
    139a:	4907      	ldr	r1, [pc, #28]	@ (13b8 <nfc_render_mf_ultralight_pages_count+0x2c>)
    139c:	4628      	mov	r0, r5
    139e:	4e07      	ldr	r6, [pc, #28]	@ (13bc <nfc_render_mf_ultralight_pages_count+0x30>)
    13a0:	47b0      	blx	r6
    if(data->pages_read != data->pages_total) {
    13a2:	f8b4 2838 	ldrh.w	r2, [r4, #2104]	@ 0x838
    13a6:	f8b4 383a 	ldrh.w	r3, [r4, #2106]	@ 0x83a
    13aa:	429a      	cmp	r2, r3
    13ac:	d100      	bne.n	13b0 <nfc_render_mf_ultralight_pages_count+0x24>
        furi_string_cat_printf(str, "\nPassword-protected pages!");
    }
}
    13ae:	bd70      	pop	{r4, r5, r6, pc}
        furi_string_cat_printf(str, "\nPassword-protected pages!");
    13b0:	4903      	ldr	r1, [pc, #12]	@ (13c0 <nfc_render_mf_ultralight_pages_count+0x34>)
    13b2:	4628      	mov	r0, r5
    13b4:	47b0      	blx	r6
}
    13b6:	e7fa      	b.n	13ae <nfc_render_mf_ultralight_pages_count+0x22>
    13b8:	00000d48 	.word	0x00000d48
    13bc:	00000000 	.word	0x00000000
    13c0:	00000d5c 	.word	0x00000d5c

000013c4 <nfc_render_mf_ultralight_info>:
}

void nfc_render_mf_ultralight_info(
    const MfUltralightData* data,
    NfcProtocolFormatType format_type,
    FuriString* str) {
    13c4:	b538      	push	{r3, r4, r5, lr}
    13c6:	4604      	mov	r4, r0
    13c8:	4615      	mov	r5, r2
    nfc_render_iso14443_3a_info(data->iso14443_3a_data, format_type, str);
    13ca:	6800      	ldr	r0, [r0, #0]
    13cc:	4b03      	ldr	r3, [pc, #12]	@ (13dc <nfc_render_mf_ultralight_info+0x18>)
    13ce:	4798      	blx	r3

    nfc_render_mf_ultralight_pages_count(data, str);
    13d0:	4629      	mov	r1, r5
    13d2:	4620      	mov	r0, r4
    13d4:	4b02      	ldr	r3, [pc, #8]	@ (13e0 <nfc_render_mf_ultralight_info+0x1c>)
    13d6:	4798      	blx	r3
}
    13d8:	bd38      	pop	{r3, r4, r5, pc}
    13da:	bf00      	nop
	...

000013e4 <ProtocolTree_new_node>:

#include <m-bptree.h>

#define PROTOCOLS_TREE_RANK 4

BPTREE_DEF2(
    13e4:	b508      	push	{r3, lr}
    13e6:	2034      	movs	r0, #52	@ 0x34
    13e8:	4b04      	ldr	r3, [pc, #16]	@ (13fc <ProtocolTree_new_node+0x18>)
    13ea:	4798      	blx	r3
    13ec:	b118      	cbz	r0, 13f6 <ProtocolTree_new_node+0x12>
    13ee:	2200      	movs	r2, #0
    13f0:	6182      	str	r2, [r0, #24]
    13f2:	6002      	str	r2, [r0, #0]
    13f4:	bd08      	pop	{r3, pc}
    13f6:	4b02      	ldr	r3, [pc, #8]	@ (1400 <ProtocolTree_new_node+0x1c>)
    13f8:	4798      	blx	r3
    13fa:	bf00      	nop
	...

00001404 <ProtocolTree_search_and_insert_in_node>:
    1404:	e92d 41f0 	stmdb	sp!, {r4, r5, r6, r7, r8, lr}
    1408:	4605      	mov	r5, r0
    140a:	4616      	mov	r6, r2
    140c:	6803      	ldr	r3, [r0, #0]
    140e:	ea83 7ce3 	eor.w	ip, r3, r3, asr #31
    1412:	ebac 7ce3 	sub.w	ip, ip, r3, asr #31
    1416:	2400      	movs	r4, #0
    1418:	e000      	b.n	141c <ProtocolTree_search_and_insert_in_node+0x18>
    141a:	3401      	adds	r4, #1
    141c:	4564      	cmp	r4, ip
    141e:	da1d      	bge.n	145c <ProtocolTree_search_and_insert_in_node+0x58>
    1420:	1da3      	adds	r3, r4, #6
    1422:	eb05 0383 	add.w	r3, r5, r3, lsl #2
    1426:	685b      	ldr	r3, [r3, #4]
    1428:	428b      	cmp	r3, r1
    142a:	d1f6      	bne.n	141a <ProtocolTree_search_and_insert_in_node+0x16>
    142c:	1c60      	adds	r0, r4, #1
    142e:	eb05 0080 	add.w	r0, r5, r0, lsl #2
    1432:	eb05 0184 	add.w	r1, r5, r4, lsl #2
    1436:	ebac 0704 	sub.w	r7, ip, r4
    143a:	00ba      	lsls	r2, r7, #2
    143c:	3104      	adds	r1, #4
    143e:	3004      	adds	r0, #4
    1440:	f8df 8034 	ldr.w	r8, [pc, #52]	@ 1478 <ProtocolTree_search_and_insert_in_node+0x74>
    1444:	47c0      	blx	r8
    1446:	1de0      	adds	r0, r4, #7
    1448:	eb05 0080 	add.w	r0, r5, r0, lsl #2
    144c:	1da1      	adds	r1, r4, #6
    144e:	eb05 0181 	add.w	r1, r5, r1, lsl #2
    1452:	1c7a      	adds	r2, r7, #1
    1454:	0092      	lsls	r2, r2, #2
    1456:	3104      	adds	r1, #4
    1458:	3004      	adds	r0, #4
    145a:	47c0      	blx	r8
    145c:	4630      	mov	r0, r6
    145e:	4b05      	ldr	r3, [pc, #20]	@ (1474 <ProtocolTree_search_and_insert_in_node+0x70>)
    1460:	4798      	blx	r3
    1462:	eb05 0384 	add.w	r3, r5, r4, lsl #2
    1466:	6058      	str	r0, [r3, #4]
    1468:	682b      	ldr	r3, [r5, #0]
    146a:	3301      	adds	r3, #1
    146c:	602b      	str	r3, [r5, #0]
    146e:	4620      	mov	r0, r4
    1470:	e8bd 81f0 	ldmia.w	sp!, {r4, r5, r6, r7, r8, pc}
	...

0000147c <ProtocolTree_search_for_leaf>:
    147c:	e92d 43f8 	stmdb	sp!, {r3, r4, r5, r6, r7, r8, r9, lr}
    1480:	4607      	mov	r7, r0
    1482:	4615      	mov	r5, r2
    1484:	f8d1 8000 	ldr.w	r8, [r1]
    1488:	2600      	movs	r6, #0
    148a:	e009      	b.n	14a0 <ProtocolTree_search_for_leaf+0x24>
    148c:	eb07 0386 	add.w	r3, r7, r6, lsl #2
    1490:	f8c3 8004 	str.w	r8, [r3, #4]
    1494:	3406      	adds	r4, #6
    1496:	eb08 0484 	add.w	r4, r8, r4, lsl #2
    149a:	f8d4 8004 	ldr.w	r8, [r4, #4]
    149e:	3601      	adds	r6, #1
    14a0:	f8d8 9000 	ldr.w	r9, [r8]
    14a4:	f1b9 0f00 	cmp.w	r9, #0
    14a8:	dd0c      	ble.n	14c4 <ProtocolTree_search_for_leaf+0x48>
    14aa:	2400      	movs	r4, #0
    14ac:	454c      	cmp	r4, r9
    14ae:	daed      	bge.n	148c <ProtocolTree_search_for_leaf+0x10>
    14b0:	eb08 0384 	add.w	r3, r8, r4, lsl #2
    14b4:	6859      	ldr	r1, [r3, #4]
    14b6:	4628      	mov	r0, r5
    14b8:	4b04      	ldr	r3, [pc, #16]	@ (14cc <ProtocolTree_search_for_leaf+0x50>)
    14ba:	4798      	blx	r3
    14bc:	2800      	cmp	r0, #0
    14be:	dde5      	ble.n	148c <ProtocolTree_search_for_leaf+0x10>
    14c0:	3401      	adds	r4, #1
    14c2:	e7f3      	b.n	14ac <ProtocolTree_search_for_leaf+0x30>
    14c4:	603e      	str	r6, [r7, #0]
    14c6:	4640      	mov	r0, r8
    14c8:	e8bd 83f8 	ldmia.w	sp!, {r3, r4, r5, r6, r7, r8, r9, pc}
    14cc:	00000000 	.word	0x00000000

000014d0 <ProtocolTree_search_and_insert_in_leaf>:
    14d0:	e92d 43f8 	stmdb	sp!, {r3, r4, r5, r6, r7, r8, r9, lr}
    14d4:	4605      	mov	r5, r0
    14d6:	460f      	mov	r7, r1
    14d8:	4690      	mov	r8, r2
    14da:	6806      	ldr	r6, [r0, #0]
    14dc:	2e00      	cmp	r6, #0
    14de:	bfb8      	it	lt
    14e0:	4276      	neglt	r6, r6
    14e2:	2400      	movs	r4, #0
    14e4:	e006      	b.n	14f4 <ProtocolTree_search_and_insert_in_leaf+0x24>
    14e6:	442c      	add	r4, r5
    14e8:	f884 801c 	strb.w	r8, [r4, #28]
    14ec:	f04f 34ff 	mov.w	r4, #4294967295	@ 0xffffffff
    14f0:	e02f      	b.n	1552 <ProtocolTree_search_and_insert_in_leaf+0x82>
    14f2:	3401      	adds	r4, #1
    14f4:	42b4      	cmp	r4, r6
    14f6:	da20      	bge.n	153a <ProtocolTree_search_and_insert_in_leaf+0x6a>
    14f8:	eb05 0384 	add.w	r3, r5, r4, lsl #2
    14fc:	6859      	ldr	r1, [r3, #4]
    14fe:	4638      	mov	r0, r7
    1500:	4b15      	ldr	r3, [pc, #84]	@ (1558 <ProtocolTree_search_and_insert_in_leaf+0x88>)
    1502:	4798      	blx	r3
    1504:	2800      	cmp	r0, #0
    1506:	dcf4      	bgt.n	14f2 <ProtocolTree_search_and_insert_in_leaf+0x22>
    1508:	2800      	cmp	r0, #0
    150a:	d0ec      	beq.n	14e6 <ProtocolTree_search_and_insert_in_leaf+0x16>
    150c:	1c60      	adds	r0, r4, #1
    150e:	eb05 0080 	add.w	r0, r5, r0, lsl #2
    1512:	eb05 0184 	add.w	r1, r5, r4, lsl #2
    1516:	eba6 0904 	sub.w	r9, r6, r4
    151a:	ea4f 0289 	mov.w	r2, r9, lsl #2
    151e:	3104      	adds	r1, #4
    1520:	3004      	adds	r0, #4
    1522:	4e0e      	ldr	r6, [pc, #56]	@ (155c <ProtocolTree_search_and_insert_in_leaf+0x8c>)
    1524:	47b0      	blx	r6
    1526:	f104 0019 	add.w	r0, r4, #25
    152a:	4428      	add	r0, r5
    152c:	f104 0118 	add.w	r1, r4, #24
    1530:	4429      	add	r1, r5
    1532:	464a      	mov	r2, r9
    1534:	3104      	adds	r1, #4
    1536:	3004      	adds	r0, #4
    1538:	47b0      	blx	r6
    153a:	4638      	mov	r0, r7
    153c:	4b08      	ldr	r3, [pc, #32]	@ (1560 <ProtocolTree_search_and_insert_in_leaf+0x90>)
    153e:	4798      	blx	r3
    1540:	eb05 0384 	add.w	r3, r5, r4, lsl #2
    1544:	6058      	str	r0, [r3, #4]
    1546:	192b      	adds	r3, r5, r4
    1548:	f883 801c 	strb.w	r8, [r3, #28]
    154c:	682b      	ldr	r3, [r5, #0]
    154e:	3b01      	subs	r3, #1
    1550:	602b      	str	r3, [r5, #0]
    1552:	4620      	mov	r0, r4
    1554:	e8bd 83f8 	ldmia.w	sp!, {r3, r4, r5, r6, r7, r8, r9, pc}
	...

00001564 <ProtocolTree_set_at>:
    1564:	e92d 41f0 	stmdb	sp!, {r4, r5, r6, r7, r8, lr}
    1568:	b0a2      	sub	sp, #136	@ 0x88
    156a:	4604      	mov	r4, r0
    156c:	460d      	mov	r5, r1
    156e:	4617      	mov	r7, r2
    1570:	460a      	mov	r2, r1
    1572:	4601      	mov	r1, r0
    1574:	4668      	mov	r0, sp
    1576:	4b36      	ldr	r3, [pc, #216]	@ (1650 <ProtocolTree_set_at+0xec>)
    1578:	4798      	blx	r3
    157a:	4606      	mov	r6, r0
    157c:	463a      	mov	r2, r7
    157e:	4629      	mov	r1, r5
    1580:	4b34      	ldr	r3, [pc, #208]	@ (1654 <ProtocolTree_set_at+0xf0>)
    1582:	4798      	blx	r3
    1584:	2800      	cmp	r0, #0
    1586:	db06      	blt.n	1596 <ProtocolTree_set_at+0x32>
    1588:	6863      	ldr	r3, [r4, #4]
    158a:	3301      	adds	r3, #1
    158c:	6063      	str	r3, [r4, #4]
    158e:	6833      	ldr	r3, [r6, #0]
    1590:	f113 0f04 	cmn.w	r3, #4
    1594:	db02      	blt.n	159c <ProtocolTree_set_at+0x38>
    1596:	b022      	add	sp, #136	@ 0x88
    1598:	e8bd 81f0 	ldmia.w	sp!, {r4, r5, r6, r7, r8, pc}
    159c:	4b2e      	ldr	r3, [pc, #184]	@ (1658 <ProtocolTree_set_at+0xf4>)
    159e:	4798      	blx	r3
    15a0:	4605      	mov	r5, r0
    15a2:	2208      	movs	r2, #8
    15a4:	f106 0110 	add.w	r1, r6, #16
    15a8:	3004      	adds	r0, #4
    15aa:	4b2c      	ldr	r3, [pc, #176]	@ (165c <ProtocolTree_set_at+0xf8>)
    15ac:	4798      	blx	r3
    15ae:	f8b6 301f 	ldrh.w	r3, [r6, #31]
    15b2:	83ab      	strh	r3, [r5, #28]
    15b4:	f06f 0302 	mvn.w	r3, #2
    15b8:	6033      	str	r3, [r6, #0]
    15ba:	f06f 0301 	mvn.w	r3, #1
    15be:	602b      	str	r3, [r5, #0]
    15c0:	69b3      	ldr	r3, [r6, #24]
    15c2:	61ab      	str	r3, [r5, #24]
    15c4:	61b5      	str	r5, [r6, #24]
    15c6:	f106 080c 	add.w	r8, r6, #12
    15ca:	9b00      	ldr	r3, [sp, #0]
    15cc:	2b00      	cmp	r3, #0
    15ce:	d030      	beq.n	1632 <ProtocolTree_set_at+0xce>
    15d0:	3b01      	subs	r3, #1
    15d2:	9300      	str	r3, [sp, #0]
    15d4:	aa22      	add	r2, sp, #136	@ 0x88
    15d6:	eb02 0383 	add.w	r3, r2, r3, lsl #2
    15da:	f853 7c84 	ldr.w	r7, [r3, #-132]
    15de:	f8d8 2000 	ldr.w	r2, [r8]
    15e2:	4631      	mov	r1, r6
    15e4:	4638      	mov	r0, r7
    15e6:	4b1e      	ldr	r3, [pc, #120]	@ (1660 <ProtocolTree_set_at+0xfc>)
    15e8:	4798      	blx	r3
    15ea:	1d83      	adds	r3, r0, #6
    15ec:	eb07 0383 	add.w	r3, r7, r3, lsl #2
    15f0:	605e      	str	r6, [r3, #4]
    15f2:	3007      	adds	r0, #7
    15f4:	eb07 0080 	add.w	r0, r7, r0, lsl #2
    15f8:	6045      	str	r5, [r0, #4]
    15fa:	683b      	ldr	r3, [r7, #0]
    15fc:	2b04      	cmp	r3, #4
    15fe:	ddca      	ble.n	1596 <ProtocolTree_set_at+0x32>
    1600:	4b15      	ldr	r3, [pc, #84]	@ (1658 <ProtocolTree_set_at+0xf4>)
    1602:	4798      	blx	r3
    1604:	4605      	mov	r5, r0
    1606:	2208      	movs	r2, #8
    1608:	f107 0110 	add.w	r1, r7, #16
    160c:	3004      	adds	r0, #4
    160e:	4e13      	ldr	r6, [pc, #76]	@ (165c <ProtocolTree_set_at+0xf8>)
    1610:	47b0      	blx	r6
    1612:	220c      	movs	r2, #12
    1614:	f107 0128 	add.w	r1, r7, #40	@ 0x28
    1618:	f105 001c 	add.w	r0, r5, #28
    161c:	47b0      	blx	r6
    161e:	2302      	movs	r3, #2
    1620:	603b      	str	r3, [r7, #0]
    1622:	602b      	str	r3, [r5, #0]
    1624:	69bb      	ldr	r3, [r7, #24]
    1626:	61ab      	str	r3, [r5, #24]
    1628:	61bd      	str	r5, [r7, #24]
    162a:	f107 080c 	add.w	r8, r7, #12
    162e:	463e      	mov	r6, r7
    1630:	e7cb      	b.n	15ca <ProtocolTree_set_at+0x66>
    1632:	4b09      	ldr	r3, [pc, #36]	@ (1658 <ProtocolTree_set_at+0xf4>)
    1634:	4798      	blx	r3
    1636:	4607      	mov	r7, r0
    1638:	2301      	movs	r3, #1
    163a:	6003      	str	r3, [r0, #0]
    163c:	f8d8 0000 	ldr.w	r0, [r8]
    1640:	4b08      	ldr	r3, [pc, #32]	@ (1664 <ProtocolTree_set_at+0x100>)
    1642:	4798      	blx	r3
    1644:	6078      	str	r0, [r7, #4]
    1646:	61fe      	str	r6, [r7, #28]
    1648:	623d      	str	r5, [r7, #32]
    164a:	6027      	str	r7, [r4, #0]
    164c:	e7a3      	b.n	1596 <ProtocolTree_set_at+0x32>
    164e:	bf00      	nop
	...

00001668 <ProtocolTree_get>:
    1668:	b570      	push	{r4, r5, r6, lr}
    166a:	b0a2      	sub	sp, #136	@ 0x88
    166c:	460e      	mov	r6, r1
    166e:	460a      	mov	r2, r1
    1670:	4601      	mov	r1, r0
    1672:	4668      	mov	r0, sp
    1674:	4b0f      	ldr	r3, [pc, #60]	@ (16b4 <ProtocolTree_get+0x4c>)
    1676:	4798      	blx	r3
    1678:	4605      	mov	r5, r0
    167a:	2400      	movs	r4, #0
    167c:	4623      	mov	r3, r4
    167e:	e000      	b.n	1682 <ProtocolTree_get+0x1a>
    1680:	3401      	adds	r4, #1
    1682:	2b00      	cmp	r3, #0
    1684:	db12      	blt.n	16ac <ProtocolTree_get+0x44>
    1686:	682b      	ldr	r3, [r5, #0]
    1688:	425b      	negs	r3, r3
    168a:	42a3      	cmp	r3, r4
    168c:	dd0c      	ble.n	16a8 <ProtocolTree_get+0x40>
    168e:	eb05 0384 	add.w	r3, r5, r4, lsl #2
    1692:	6859      	ldr	r1, [r3, #4]
    1694:	4630      	mov	r0, r6
    1696:	4b08      	ldr	r3, [pc, #32]	@ (16b8 <ProtocolTree_get+0x50>)
    1698:	4798      	blx	r3
    169a:	4603      	mov	r3, r0
    169c:	2800      	cmp	r0, #0
    169e:	d1ef      	bne.n	1680 <ProtocolTree_get+0x18>
    16a0:	3418      	adds	r4, #24
    16a2:	1928      	adds	r0, r5, r4
    16a4:	3004      	adds	r0, #4
    16a6:	e002      	b.n	16ae <ProtocolTree_get+0x46>
    16a8:	2000      	movs	r0, #0
    16aa:	e000      	b.n	16ae <ProtocolTree_get+0x46>
    16ac:	2000      	movs	r0, #0
    16ae:	b022      	add	sp, #136	@ 0x88
    16b0:	bd70      	pop	{r4, r5, r6, pc}
    16b2:	bf00      	nop
	...

000016bc <ProtocolTree_reset>:
    16bc:	e92d 43f0 	stmdb	sp!, {r4, r5, r6, r7, r8, r9, lr}
    16c0:	b0a3      	sub	sp, #140	@ 0x8c
    16c2:	4681      	mov	r9, r0
    16c4:	6803      	ldr	r3, [r0, #0]
    16c6:	f04f 0800 	mov.w	r8, #0
    16ca:	e007      	b.n	16dc <ProtocolTree_reset+0x20>
    16cc:	aa22      	add	r2, sp, #136	@ 0x88
    16ce:	eb02 0288 	add.w	r2, r2, r8, lsl #2
    16d2:	f842 3c84 	str.w	r3, [r2, #-132]
    16d6:	69db      	ldr	r3, [r3, #28]
    16d8:	f108 0801 	add.w	r8, r8, #1
    16dc:	681a      	ldr	r2, [r3, #0]
    16de:	2a00      	cmp	r2, #0
    16e0:	dcf4      	bgt.n	16cc <ProtocolTree_reset+0x10>
    16e2:	aa22      	add	r2, sp, #136	@ 0x88
    16e4:	eb02 0288 	add.w	r2, r2, r8, lsl #2
    16e8:	f842 3c84 	str.w	r3, [r2, #-132]
    16ec:	2700      	movs	r7, #0
    16ee:	e016      	b.n	171e <ProtocolTree_reset+0x62>
    16f0:	eb05 0384 	add.w	r3, r5, r4, lsl #2
    16f4:	6858      	ldr	r0, [r3, #4]
    16f6:	4b12      	ldr	r3, [pc, #72]	@ (1740 <ProtocolTree_reset+0x84>)
    16f8:	4798      	blx	r3
    16fa:	3401      	adds	r4, #1
    16fc:	42b4      	cmp	r4, r6
    16fe:	dbf7      	blt.n	16f0 <ProtocolTree_reset+0x34>
    1700:	69ac      	ldr	r4, [r5, #24]
    1702:	b93f      	cbnz	r7, 1714 <ProtocolTree_reset+0x58>
    1704:	4625      	mov	r5, r4
    1706:	b14d      	cbz	r5, 171c <ProtocolTree_reset+0x60>
    1708:	682e      	ldr	r6, [r5, #0]
    170a:	2e00      	cmp	r6, #0
    170c:	bfb8      	it	lt
    170e:	4276      	neglt	r6, r6
    1710:	2400      	movs	r4, #0
    1712:	e7f3      	b.n	16fc <ProtocolTree_reset+0x40>
    1714:	4628      	mov	r0, r5
    1716:	4b0b      	ldr	r3, [pc, #44]	@ (1744 <ProtocolTree_reset+0x88>)
    1718:	4798      	blx	r3
    171a:	e7f3      	b.n	1704 <ProtocolTree_reset+0x48>
    171c:	3701      	adds	r7, #1
    171e:	45b8      	cmp	r8, r7
    1720:	db05      	blt.n	172e <ProtocolTree_reset+0x72>
    1722:	ab22      	add	r3, sp, #136	@ 0x88
    1724:	eb03 0387 	add.w	r3, r3, r7, lsl #2
    1728:	f853 5c84 	ldr.w	r5, [r3, #-132]
    172c:	e7eb      	b.n	1706 <ProtocolTree_reset+0x4a>
    172e:	f8d9 2000 	ldr.w	r2, [r9]
    1732:	2300      	movs	r3, #0
    1734:	6013      	str	r3, [r2, #0]
    1736:	f8c9 3004 	str.w	r3, [r9, #4]
    173a:	b023      	add	sp, #140	@ 0x8c
    173c:	e8bd 83f0 	ldmia.w	sp!, {r4, r5, r6, r7, r8, r9, pc}
	...

00001748 <ProtocolTree_clear>:
    1748:	b510      	push	{r4, lr}
    174a:	4604      	mov	r4, r0
    174c:	4b03      	ldr	r3, [pc, #12]	@ (175c <ProtocolTree_clear+0x14>)
    174e:	4798      	blx	r3
    1750:	6820      	ldr	r0, [r4, #0]
    1752:	4b03      	ldr	r3, [pc, #12]	@ (1760 <ProtocolTree_clear+0x18>)
    1754:	4798      	blx	r3
    1756:	2300      	movs	r3, #0
    1758:	6023      	str	r3, [r4, #0]
    175a:	bd10      	pop	{r4, pc}
	...

00001764 <nfc_cli_protocol_parser_alloc>:
    ProtocolTree_t protocols;
};

NfcCliProtocolParser* nfc_cli_protocol_parser_alloc(
    const NfcProtocolNameValuePair* valid_protocols,
    const size_t valid_count) {
    1764:	e92d 43f8 	stmdb	sp!, {r3, r4, r5, r6, r7, r8, r9, lr}
    furi_assert(valid_protocols);
    1768:	b188      	cbz	r0, 178e <nfc_cli_protocol_parser_alloc+0x2a>
    176a:	4689      	mov	r9, r1
    176c:	4606      	mov	r6, r0
    furi_assert(valid_count > 0);
    176e:	b191      	cbz	r1, 1796 <sukima1366+0x4>

    NfcCliProtocolParser* instance = malloc(sizeof(NfcCliProtocolParser));
    1770:	2008      	movs	r0, #8
    1772:	4b15      	ldr	r3, [pc, #84]	@ (17c8 <sukima1383+0x2e>)
    1774:	4798      	blx	r3
    1776:	4680      	mov	r8, r0

    FuriString* name = furi_string_alloc();
    1778:	4b14      	ldr	r3, [pc, #80]	@ (17cc <sukima1383+0x32>)
    177a:	4798      	blx	r3
    177c:	4605      	mov	r5, r0
BPTREE_DEF2(
    177e:	4b14      	ldr	r3, [pc, #80]	@ (17d0 <sukima1383+0x36>)
    1780:	4798      	blx	r3
    1782:	f8c8 0000 	str.w	r0, [r8]
    1786:	2400      	movs	r4, #0
    1788:	f8c8 4004 	str.w	r4, [r8, #4]
    ProtocolTree_init(instance->protocols);
    for(size_t i = 0; i < valid_count; i++) {
    178c:	e014      	b.n	17b8 <sukima1383+0x1e>
    furi_assert(valid_protocols);
    178e:	f04f 0c01 	mov.w	ip, #1

00001792 <sukima1366>:
    1792:	4b10      	ldr	r3, [pc, #64]	@ (17d4 <sukima1383+0x3a>)
    1794:	4798      	blx	r3
    furi_assert(valid_count > 0);
    1796:	f04f 0c01 	mov.w	ip, #1

0000179a <sukima1383>:
    179a:	4b0e      	ldr	r3, [pc, #56]	@ (17d4 <sukima1383+0x3a>)
    179c:	4798      	blx	r3
        const NfcProtocolNameValuePair* item = &valid_protocols[i];
    179e:	eb06 07c4 	add.w	r7, r6, r4, lsl #3
        furi_string_set_str(name, item->name);
    17a2:	f856 1034 	ldr.w	r1, [r6, r4, lsl #3]
    17a6:	4628      	mov	r0, r5
    17a8:	4b0b      	ldr	r3, [pc, #44]	@ (17d8 <sukima1383+0x3e>)
    17aa:	4798      	blx	r3
        ProtocolTree_set_at(instance->protocols, name, item->value);
    17ac:	793a      	ldrb	r2, [r7, #4]
    17ae:	4629      	mov	r1, r5
    17b0:	4640      	mov	r0, r8
    17b2:	4b0a      	ldr	r3, [pc, #40]	@ (17dc <sukima1383+0x42>)
    17b4:	4798      	blx	r3
    for(size_t i = 0; i < valid_count; i++) {
    17b6:	3401      	adds	r4, #1
    17b8:	454c      	cmp	r4, r9
    17ba:	d3f0      	bcc.n	179e <sukima1383+0x4>
    }

    furi_string_free(name);
    17bc:	4628      	mov	r0, r5
    17be:	4b08      	ldr	r3, [pc, #32]	@ (17e0 <sukima1383+0x46>)
    17c0:	4798      	blx	r3
    return instance;
}
    17c2:	4640      	mov	r0, r8
    17c4:	e8bd 83f8 	ldmia.w	sp!, {r3, r4, r5, r6, r7, r8, r9, pc}
	...

000017e4 <nfc_cli_protocol_parser_free>:

void nfc_cli_protocol_parser_free(NfcCliProtocolParser* instance) {
    17e4:	b510      	push	{r4, lr}
    furi_assert(instance);
    17e6:	b130      	cbz	r0, 17f6 <nfc_cli_protocol_parser_free+0x12>
    17e8:	4604      	mov	r4, r0
    ProtocolTree_clear(instance->protocols);
    17ea:	4b05      	ldr	r3, [pc, #20]	@ (1800 <sukima1500+0x6>)
    17ec:	4798      	blx	r3
    free(instance);
    17ee:	4620      	mov	r0, r4
    17f0:	4b04      	ldr	r3, [pc, #16]	@ (1804 <sukima1500+0xa>)
    17f2:	4798      	blx	r3
}
    17f4:	bd10      	pop	{r4, pc}
    furi_assert(instance);
    17f6:	f04f 0c01 	mov.w	ip, #1

000017fa <sukima1500>:
    17fa:	4b03      	ldr	r3, [pc, #12]	@ (1808 <sukima1500+0xe>)
    17fc:	4798      	blx	r3
    17fe:	bf00      	nop
	...

0000180c <nfc_cli_protocol_parser_get>:

bool nfc_cli_protocol_parser_get(
    NfcCliProtocolParser* instance,
    FuriString* key,
    NfcProtocol* result) {
    180c:	b510      	push	{r4, lr}
    furi_assert(instance);
    180e:	b158      	cbz	r0, 1828 <nfc_cli_protocol_parser_get+0x1c>
    1810:	4614      	mov	r4, r2
    furi_assert(key);
    1812:	b169      	cbz	r1, 1830 <sukima1582+0x4>

    NfcProtocol* protocol = ProtocolTree_get(instance->protocols, key);
    1814:	4b08      	ldr	r3, [pc, #32]	@ (1838 <sukima1601+0x4>)
    1816:	4798      	blx	r3
    if(protocol) *result = *protocol;
    1818:	4603      	mov	r3, r0
    181a:	b108      	cbz	r0, 1820 <nfc_cli_protocol_parser_get+0x14>
    181c:	7802      	ldrb	r2, [r0, #0]
    181e:	7022      	strb	r2, [r4, #0]

    return protocol != NULL;
}
    1820:	1e18      	subs	r0, r3, #0
    1822:	bf18      	it	ne
    1824:	2001      	movne	r0, #1
    1826:	bd10      	pop	{r4, pc}
    furi_assert(instance);
    1828:	f04f 0c01 	mov.w	ip, #1

0000182c <sukima1582>:
    182c:	4b03      	ldr	r3, [pc, #12]	@ (183c <sukima1601+0x8>)
    182e:	4798      	blx	r3
    furi_assert(key);
    1830:	f04f 0c01 	mov.w	ip, #1

00001834 <sukima1601>:
    1834:	4b01      	ldr	r3, [pc, #4]	@ (183c <sukima1601+0x8>)
    1836:	4798      	blx	r3
	...

00001840 <nfc_cli_dump_poller_callback_iso14443_4b>:
#include "nfc_cli_dump_iso14443_4b.h"
#include <nfc/protocols/iso14443_4b/iso14443_4b_poller.h>

NfcCommand nfc_cli_dump_poller_callback_iso14443_4b(NfcGenericEvent event, void* context) {
    1840:	b530      	push	{r4, r5, lr}
    1842:	b085      	sub	sp, #20
    1844:	ac04      	add	r4, sp, #16
    1846:	e904 0007 	stmdb	r4, {r0, r1, r2}
    furi_assert(event.protocol == NfcProtocolIso14443_4b);
    184a:	f89d 2004 	ldrb.w	r2, [sp, #4]
    184e:	2a03      	cmp	r2, #3
    1850:	d108      	bne.n	1864 <nfc_cli_dump_poller_callback_iso14443_4b+0x24>
    1852:	461c      	mov	r4, r3

    NfcCliDumpContext* instance = context;
    const Iso14443_4bPollerEvent* iso14443_4b_event = event.event_data;
    1854:	9b03      	ldr	r3, [sp, #12]

    NfcCommand command = NfcCommandContinue;
    if(iso14443_4b_event->type == Iso14443_4bPollerEventTypeReady) {
    1856:	781a      	ldrb	r2, [r3, #0]
    1858:	2a01      	cmp	r2, #1
    185a:	d007      	beq.n	186c <sukima72+0x4>
        nfc_device_set_data(
            instance->nfc_device, NfcProtocolIso14443_4b, nfc_poller_get_data(instance->poller));
        command = NfcCommandStop;
    } else if(iso14443_4b_event->type == Iso14443_4bPollerEventTypeError) {
    185c:	b182      	cbz	r2, 1880 <sukima72+0x18>
    NfcCommand command = NfcCommandContinue;
    185e:	2000      	movs	r0, #0
    if(command == NfcCommandStop) {
        furi_semaphore_release(instance->sem_done);
    }

    return command;
}
    1860:	b005      	add	sp, #20
    1862:	bd30      	pop	{r4, r5, pc}
    furi_assert(event.protocol == NfcProtocolIso14443_4b);
    1864:	f04f 0c01 	mov.w	ip, #1

00001868 <sukima72>:
    1868:	4b09      	ldr	r3, [pc, #36]	@ (1890 <sukima72+0x28>)
    186a:	4798      	blx	r3
        nfc_device_set_data(
    186c:	6ba5      	ldr	r5, [r4, #56]	@ 0x38
    186e:	6b60      	ldr	r0, [r4, #52]	@ 0x34
    1870:	4b08      	ldr	r3, [pc, #32]	@ (1894 <sukima72+0x2c>)
    1872:	4798      	blx	r3
    1874:	4602      	mov	r2, r0
    1876:	2103      	movs	r1, #3
    1878:	4628      	mov	r0, r5
    187a:	4b07      	ldr	r3, [pc, #28]	@ (1898 <sukima72+0x30>)
    187c:	4798      	blx	r3
    if(command == NfcCommandStop) {
    187e:	e001      	b.n	1884 <sukima72+0x1c>
        instance->result = NfcCliDumpErrorFailedToRead;
    1880:	2303      	movs	r3, #3
    1882:	7723      	strb	r3, [r4, #28]
        furi_semaphore_release(instance->sem_done);
    1884:	69a0      	ldr	r0, [r4, #24]
    1886:	4b05      	ldr	r3, [pc, #20]	@ (189c <sukima72+0x34>)
    1888:	4798      	blx	r3
    188a:	2002      	movs	r0, #2
    188c:	e7e8      	b.n	1860 <nfc_cli_dump_poller_callback_iso14443_4b+0x20>
    188e:	bf00      	nop
	...

000018a0 <nfc_cli_dump_poller_callback_felica>:
#include "nfc_cli_dump_felica.h"
#include <nfc/protocols/felica/felica_poller.h>

NfcCommand nfc_cli_dump_poller_callback_felica(NfcGenericEvent event, void* context) {
    18a0:	b530      	push	{r4, r5, lr}
    18a2:	b085      	sub	sp, #20
    18a4:	ac04      	add	r4, sp, #16
    18a6:	e904 0007 	stmdb	r4, {r0, r1, r2}
    18aa:	461c      	mov	r4, r3
    furi_assert(event.protocol == NfcProtocolFelica);
    18ac:	f89d 3004 	ldrb.w	r3, [sp, #4]
    18b0:	2b05      	cmp	r3, #5
    18b2:	d10a      	bne.n	18ca <nfc_cli_dump_poller_callback_felica+0x2a>

    NfcCliDumpContext* instance = context;
    const FelicaPollerEvent* felica_event = event.event_data;
    18b4:	9903      	ldr	r1, [sp, #12]
    NfcCommand command = NfcCommandContinue;

    if(felica_event->type == FelicaPollerEventTypeReady ||
    18b6:	780a      	ldrb	r2, [r1, #0]
    18b8:	1e53      	subs	r3, r2, #1
    18ba:	b2db      	uxtb	r3, r3
    18bc:	2b01      	cmp	r3, #1
    18be:	d908      	bls.n	18d2 <sukima61+0x4>
       felica_event->type == FelicaPollerEventTypeIncomplete) {
        nfc_device_set_data(
            instance->nfc_device, NfcProtocolFelica, nfc_poller_get_data(instance->poller));
        command = NfcCommandStop;
        instance->result = NfcCliDumpErrorNone;
    } else if(felica_event->type == FelicaPollerEventTypeError) {
    18c0:	b19a      	cbz	r2, 18ea <sukima61+0x1c>
        command = NfcCommandStop;
        instance->result = NfcCliDumpErrorFailedToRead;
    } else if(felica_event->type == FelicaPollerEventTypeRequestAuthContext) {
    18c2:	2a03      	cmp	r2, #3
    18c4:	d019      	beq.n	18fa <sukima61+0x2c>
    NfcCommand command = NfcCommandContinue;
    18c6:	2000      	movs	r0, #0
    18c8:	e015      	b.n	18f6 <sukima61+0x28>
    furi_assert(event.protocol == NfcProtocolFelica);
    18ca:	f04f 0c01 	mov.w	ip, #1

000018ce <sukima61>:
    18ce:	4b16      	ldr	r3, [pc, #88]	@ (1928 <sukima61+0x5a>)
    18d0:	4798      	blx	r3
        nfc_device_set_data(
    18d2:	6ba5      	ldr	r5, [r4, #56]	@ 0x38
    18d4:	6b60      	ldr	r0, [r4, #52]	@ 0x34
    18d6:	4b15      	ldr	r3, [pc, #84]	@ (192c <sukima61+0x5e>)
    18d8:	4798      	blx	r3
    18da:	4602      	mov	r2, r0
    18dc:	2105      	movs	r1, #5
    18de:	4628      	mov	r0, r5
    18e0:	4b13      	ldr	r3, [pc, #76]	@ (1930 <sukima61+0x62>)
    18e2:	4798      	blx	r3
        instance->result = NfcCliDumpErrorNone;
    18e4:	2300      	movs	r3, #0
    18e6:	7723      	strb	r3, [r4, #28]
        const NfcCliDumpAuthContext* dump_auth_ctx = &instance->auth_ctx;
        ctx->skip_auth = dump_auth_ctx->skip_auth;
        ctx->card_key = dump_auth_ctx->key.felica_key;
    }

    if(command == NfcCommandStop) {
    18e8:	e001      	b.n	18ee <sukima61+0x20>
        instance->result = NfcCliDumpErrorFailedToRead;
    18ea:	2303      	movs	r3, #3
    18ec:	7723      	strb	r3, [r4, #28]
        furi_semaphore_release(instance->sem_done);
    18ee:	69a0      	ldr	r0, [r4, #24]
    18f0:	4b10      	ldr	r3, [pc, #64]	@ (1934 <sukima61+0x66>)
    18f2:	4798      	blx	r3
    18f4:	2002      	movs	r0, #2
    }

    return command;
}
    18f6:	b005      	add	sp, #20
    18f8:	bd30      	pop	{r4, r5, pc}
        FelicaAuthenticationContext* ctx = felica_event->data->auth_context;
    18fa:	684b      	ldr	r3, [r1, #4]
    18fc:	681a      	ldr	r2, [r3, #0]
        ctx->skip_auth = dump_auth_ctx->skip_auth;
    18fe:	f894 102e 	ldrb.w	r1, [r4, #46]	@ 0x2e
    1902:	4613      	mov	r3, r2
    1904:	f803 1b01 	strb.w	r1, [r3], #1
        ctx->card_key = dump_auth_ctx->key.felica_key;
    1908:	f8d4 e01d 	ldr.w	lr, [r4, #29]
    190c:	f8d4 c021 	ldr.w	ip, [r4, #33]	@ 0x21
    1910:	f8d4 0025 	ldr.w	r0, [r4, #37]	@ 0x25
    1914:	f8d4 1029 	ldr.w	r1, [r4, #41]	@ 0x29
    1918:	f8c2 e001 	str.w	lr, [r2, #1]
    191c:	f8c3 c004 	str.w	ip, [r3, #4]
    1920:	6098      	str	r0, [r3, #8]
    1922:	60d9      	str	r1, [r3, #12]
    NfcCommand command = NfcCommandContinue;
    1924:	2000      	movs	r0, #0
    1926:	e7e6      	b.n	18f6 <sukima61+0x28>
	...

00001938 <ApduItem_init>:
    uint8_t* data;
    size_t size;
} NfcCliApduData;

static void ApduItem_init(NfcCliApduData* item) {
    item->size = 0;
    1938:	2300      	movs	r3, #0
    193a:	6043      	str	r3, [r0, #4]
    item->data = NULL;
    193c:	6003      	str	r3, [r0, #0]
}
    193e:	4770      	bx	lr

00001940 <nfc_cli_apdu_poller_get_handler>:
    }
    return protocol;
}

static NfcCliApduProtocolHandler nfc_cli_apdu_poller_get_handler(NfcProtocol protocol) {
    if(protocol == NfcProtocolIso14443_4a)
    1940:	2802      	cmp	r0, #2
    1942:	d005      	beq.n	1950 <nfc_cli_apdu_poller_get_handler+0x10>
        return nfc_cli_apdu_iso14443_4a_handler;
    else if(protocol == NfcProtocolIso14443_4b)
    1944:	2803      	cmp	r0, #3
    1946:	d005      	beq.n	1954 <nfc_cli_apdu_poller_get_handler+0x14>
        return nfc_cli_apdu_iso14443_4b_handler;
    else if(protocol == NfcProtocolIso15693_3)
    1948:	2804      	cmp	r0, #4
    194a:	d105      	bne.n	1958 <nfc_cli_apdu_poller_get_handler+0x18>
        return nfc_cli_apdu_iso15693_3_handler;
    194c:	4803      	ldr	r0, [pc, #12]	@ (195c <nfc_cli_apdu_poller_get_handler+0x1c>)
    194e:	4770      	bx	lr
        return nfc_cli_apdu_iso14443_4a_handler;
    1950:	4803      	ldr	r0, [pc, #12]	@ (1960 <nfc_cli_apdu_poller_get_handler+0x20>)
    1952:	4770      	bx	lr
        return nfc_cli_apdu_iso14443_4b_handler;
    1954:	4803      	ldr	r0, [pc, #12]	@ (1964 <nfc_cli_apdu_poller_get_handler+0x24>)
    1956:	4770      	bx	lr
    else
        return NULL;
    1958:	2000      	movs	r0, #0
}
    195a:	4770      	bx	lr
	...

00001968 <NfcCliApduItemArray_push_raw>:
ARRAY_DEF(
    1968:	b538      	push	{r3, r4, r5, lr}
    196a:	4604      	mov	r4, r0
    196c:	6802      	ldr	r2, [r0, #0]
    196e:	6843      	ldr	r3, [r0, #4]
    1970:	429a      	cmp	r2, r3
    1972:	d206      	bcs.n	1982 <NfcCliApduItemArray_push_raw+0x1a>
    1974:	68a0      	ldr	r0, [r4, #8]
    1976:	6823      	ldr	r3, [r4, #0]
    1978:	1c5a      	adds	r2, r3, #1
    197a:	6022      	str	r2, [r4, #0]
    197c:	eb00 00c3 	add.w	r0, r0, r3, lsl #3
    1980:	bd38      	pop	{r3, r4, r5, pc}
    1982:	4619      	mov	r1, r3
    1984:	2b08      	cmp	r3, #8
    1986:	bf38      	it	cc
    1988:	2108      	movcc	r1, #8
    198a:	004d      	lsls	r5, r1, #1
    198c:	ebb3 0f41 	cmp.w	r3, r1, lsl #1
    1990:	d20a      	bcs.n	19a8 <NfcCliApduItemArray_push_raw+0x40>
    1992:	f1b5 5f00 	cmp.w	r5, #536870912	@ 0x20000000
    1996:	d209      	bcs.n	19ac <NfcCliApduItemArray_push_raw+0x44>
    1998:	0109      	lsls	r1, r1, #4
    199a:	6880      	ldr	r0, [r0, #8]
    199c:	4b05      	ldr	r3, [pc, #20]	@ (19b4 <NfcCliApduItemArray_push_raw+0x4c>)
    199e:	4798      	blx	r3
    19a0:	b130      	cbz	r0, 19b0 <NfcCliApduItemArray_push_raw+0x48>
    19a2:	60a0      	str	r0, [r4, #8]
    19a4:	6065      	str	r5, [r4, #4]
    19a6:	e7e5      	b.n	1974 <NfcCliApduItemArray_push_raw+0xc>
    19a8:	4b03      	ldr	r3, [pc, #12]	@ (19b8 <NfcCliApduItemArray_push_raw+0x50>)
    19aa:	4798      	blx	r3
    19ac:	2000      	movs	r0, #0
    19ae:	e7f7      	b.n	19a0 <NfcCliApduItemArray_push_raw+0x38>
    19b0:	4b01      	ldr	r3, [pc, #4]	@ (19b8 <NfcCliApduItemArray_push_raw+0x50>)
    19b2:	4798      	blx	r3
	...

000019bc <NfcCliApduItemArray_push_new>:
    19bc:	b510      	push	{r4, lr}
    19be:	4b05      	ldr	r3, [pc, #20]	@ (19d4 <NfcCliApduItemArray_push_new+0x18>)
    19c0:	4798      	blx	r3
    19c2:	b120      	cbz	r0, 19ce <NfcCliApduItemArray_push_new+0x12>
    19c4:	4604      	mov	r4, r0
    19c6:	4b04      	ldr	r3, [pc, #16]	@ (19d8 <NfcCliApduItemArray_push_new+0x1c>)
    19c8:	4798      	blx	r3
    19ca:	4620      	mov	r0, r4
    19cc:	bd10      	pop	{r4, pc}
    19ce:	2400      	movs	r4, #0
    19d0:	e7fb      	b.n	19ca <NfcCliApduItemArray_push_new+0xe>
    19d2:	bf00      	nop
	...

000019dc <nfc_cli_apdu_parse_data>:

    nfc_cli_protocol_parser_free(parser);
    return result;
}

static bool nfc_cli_apdu_parse_data(FuriString* value, void* output) {
    19dc:	e92d 41f0 	stmdb	sp!, {r4, r5, r6, r7, r8, lr}
    19e0:	4606      	mov	r6, r0
    19e2:	460f      	mov	r7, r1
    NfcCliApduContext* ctx = output;

    bool result = false;
    FuriString* word = furi_string_alloc();
    19e4:	4b18      	ldr	r3, [pc, #96]	@ (1a48 <nfc_cli_apdu_parse_data+0x6c>)
    19e6:	4798      	blx	r3
    19e8:	4605      	mov	r5, r0
    bool result = false;
    19ea:	2400      	movs	r4, #0

    while(args_read_string_and_trim(value, word)) {
    19ec:	e010      	b.n	1a10 <nfc_cli_apdu_parse_data+0x34>
                ANSI_FG_RED "\r\nData payload is too long, max length = %d bytes\r\n" ANSI_RESET,
                max_len);
            break;
        }

        NfcCliApduData* item = NfcCliApduItemArray_push_new(ctx->apdu);
    19ee:	f107 0008 	add.w	r0, r7, #8
    19f2:	4b16      	ldr	r3, [pc, #88]	@ (1a4c <nfc_cli_apdu_parse_data+0x70>)
    19f4:	4798      	blx	r3
    19f6:	4604      	mov	r4, r0
        item->size = data_length;
    19f8:	f8c0 8004 	str.w	r8, [r0, #4]
        item->data = malloc(data_length);
    19fc:	4640      	mov	r0, r8
    19fe:	4b14      	ldr	r3, [pc, #80]	@ (1a50 <nfc_cli_apdu_parse_data+0x74>)
    1a00:	4798      	blx	r3
    1a02:	4601      	mov	r1, r0
    1a04:	6020      	str	r0, [r4, #0]
        result = args_read_hex_bytes(word, item->data, item->size);
    1a06:	4642      	mov	r2, r8
    1a08:	4628      	mov	r0, r5
    1a0a:	4b12      	ldr	r3, [pc, #72]	@ (1a54 <nfc_cli_apdu_parse_data+0x78>)
    1a0c:	4798      	blx	r3
    1a0e:	4604      	mov	r4, r0
    while(args_read_string_and_trim(value, word)) {
    1a10:	4629      	mov	r1, r5
    1a12:	4630      	mov	r0, r6
    1a14:	4b10      	ldr	r3, [pc, #64]	@ (1a58 <nfc_cli_apdu_parse_data+0x7c>)
    1a16:	4798      	blx	r3
    1a18:	b178      	cbz	r0, 1a3a <nfc_cli_apdu_parse_data+0x5e>
        size_t len = furi_string_size(word);
    1a1a:	4628      	mov	r0, r5
    1a1c:	4b0f      	ldr	r3, [pc, #60]	@ (1a5c <nfc_cli_apdu_parse_data+0x80>)
    1a1e:	4798      	blx	r3
        if(len % 2 != 0) break;
    1a20:	f010 0f01 	tst.w	r0, #1
    1a24:	d109      	bne.n	1a3a <nfc_cli_apdu_parse_data+0x5e>
        size_t data_length = len / 2;
    1a26:	ea4f 0850 	mov.w	r8, r0, lsr #1
        if(data_length > max_len) {
    1a2a:	f5b0 3f00 	cmp.w	r0, #131072	@ 0x20000
    1a2e:	d3de      	bcc.n	19ee <nfc_cli_apdu_parse_data+0x12>
            printf(
    1a30:	f64f 71ff 	movw	r1, #65535	@ 0xffff
    1a34:	480a      	ldr	r0, [pc, #40]	@ (1a60 <nfc_cli_apdu_parse_data+0x84>)
    1a36:	4b0b      	ldr	r3, [pc, #44]	@ (1a64 <nfc_cli_apdu_parse_data+0x88>)
    1a38:	4798      	blx	r3
    }
    furi_string_free(word);
    1a3a:	4628      	mov	r0, r5
    1a3c:	4b0a      	ldr	r3, [pc, #40]	@ (1a68 <nfc_cli_apdu_parse_data+0x8c>)
    1a3e:	4798      	blx	r3

    return result;
}
    1a40:	4620      	mov	r0, r4
    1a42:	e8bd 81f0 	ldmia.w	sp!, {r4, r5, r6, r7, r8, pc}
    1a46:	bf00      	nop
	...
    1a60:	00000d78 	.word	0x00000d78
	...

00001a6c <nfc_cli_apdu_parse_protocol>:
static bool nfc_cli_apdu_parse_protocol(FuriString* value, void* output) {
    1a6c:	b570      	push	{r4, r5, r6, lr}
    1a6e:	4606      	mov	r6, r0
    1a70:	460c      	mov	r4, r1
    ctx->auto_detect = false;
    1a72:	2300      	movs	r3, #0
    1a74:	710b      	strb	r3, [r1, #4]
        nfc_cli_protocol_parser_alloc(supported_protocols, COUNT_OF(supported_protocols));
    1a76:	2103      	movs	r1, #3
    1a78:	4807      	ldr	r0, [pc, #28]	@ (1a98 <nfc_cli_apdu_parse_protocol+0x2c>)
    1a7a:	4b08      	ldr	r3, [pc, #32]	@ (1a9c <nfc_cli_apdu_parse_protocol+0x30>)
    1a7c:	4798      	blx	r3
    1a7e:	4605      	mov	r5, r0
    bool result = nfc_cli_protocol_parser_get(parser, value, &ctx->data.protocol);
    1a80:	f104 0214 	add.w	r2, r4, #20
    1a84:	4631      	mov	r1, r6
    1a86:	4b06      	ldr	r3, [pc, #24]	@ (1aa0 <nfc_cli_apdu_parse_protocol+0x34>)
    1a88:	4798      	blx	r3
    1a8a:	4604      	mov	r4, r0
    nfc_cli_protocol_parser_free(parser);
    1a8c:	4628      	mov	r0, r5
    1a8e:	4b05      	ldr	r3, [pc, #20]	@ (1aa4 <nfc_cli_apdu_parse_protocol+0x38>)
    1a90:	4798      	blx	r3
}
    1a92:	4620      	mov	r0, r4
    1a94:	bd70      	pop	{r4, r5, r6, pc}
    1a96:	bf00      	nop
    1a98:	00000fac 	.word	0x00000fac
	...

00001aa8 <ApduItem_clear>:
static void ApduItem_clear(NfcCliApduData* item) {
    1aa8:	b510      	push	{r4, lr}
    1aaa:	4604      	mov	r4, r0
    if(item->data) free(item->data);
    1aac:	6800      	ldr	r0, [r0, #0]
    1aae:	b108      	cbz	r0, 1ab4 <ApduItem_clear+0xc>
    1ab0:	4b02      	ldr	r3, [pc, #8]	@ (1abc <ApduItem_clear+0x14>)
    1ab2:	4798      	blx	r3
    item->data = NULL;
    1ab4:	2300      	movs	r3, #0
    1ab6:	6023      	str	r3, [r4, #0]
    item->size = 0;
    1ab8:	6063      	str	r3, [r4, #4]
}
    1aba:	bd10      	pop	{r4, pc}
    1abc:	00000000 	.word	0x00000000

00001ac0 <NfcCliApduItemArray_reset>:
ARRAY_DEF(
    1ac0:	b538      	push	{r3, r4, r5, lr}
    1ac2:	4605      	mov	r5, r0
    1ac4:	2400      	movs	r4, #0
    1ac6:	e005      	b.n	1ad4 <NfcCliApduItemArray_reset+0x14>
    1ac8:	68a8      	ldr	r0, [r5, #8]
    1aca:	eb00 00c4 	add.w	r0, r0, r4, lsl #3
    1ace:	4b04      	ldr	r3, [pc, #16]	@ (1ae0 <NfcCliApduItemArray_reset+0x20>)
    1ad0:	4798      	blx	r3
    1ad2:	3401      	adds	r4, #1
    1ad4:	682b      	ldr	r3, [r5, #0]
    1ad6:	42a3      	cmp	r3, r4
    1ad8:	d8f6      	bhi.n	1ac8 <NfcCliApduItemArray_reset+0x8>
    1ada:	2300      	movs	r3, #0
    1adc:	602b      	str	r3, [r5, #0]
    1ade:	bd38      	pop	{r3, r4, r5, pc}
    1ae0:	00000000 	.word	0x00000000

00001ae4 <NfcCliApduItemArray_clear>:
    1ae4:	b510      	push	{r4, lr}
    1ae6:	4604      	mov	r4, r0
    1ae8:	4b04      	ldr	r3, [pc, #16]	@ (1afc <NfcCliApduItemArray_clear+0x18>)
    1aea:	4798      	blx	r3
    1aec:	68a0      	ldr	r0, [r4, #8]
    1aee:	4b04      	ldr	r3, [pc, #16]	@ (1b00 <NfcCliApduItemArray_clear+0x1c>)
    1af0:	4798      	blx	r3
    1af2:	2301      	movs	r3, #1
    1af4:	6063      	str	r3, [r4, #4]
    1af6:	2300      	movs	r3, #0
    1af8:	60a3      	str	r3, [r4, #8]
    1afa:	bd10      	pop	{r4, pc}
	...

00001b04 <nfc_cli_apdu_free_ctx>:
static void nfc_cli_apdu_free_ctx(NfcCliActionContext* action_ctx) {
    1b04:	b538      	push	{r3, r4, r5, lr}
    furi_assert(action_ctx);
    1b06:	b1a0      	cbz	r0, 1b32 <nfc_cli_apdu_free_ctx+0x2e>
    1b08:	4604      	mov	r4, r0
    instance->nfc = NULL;
    1b0a:	2300      	movs	r3, #0
    1b0c:	f840 3b08 	str.w	r3, [r0], #8
    NfcCliApduItemArray_clear(instance->apdu);
    1b10:	4b0a      	ldr	r3, [pc, #40]	@ (1b3c <sukima694+0x6>)
    1b12:	4798      	blx	r3
    bit_buffer_free(instance->data.rx_buffer);
    1b14:	69e0      	ldr	r0, [r4, #28]
    1b16:	4d0a      	ldr	r5, [pc, #40]	@ (1b40 <sukima694+0xa>)
    1b18:	47a8      	blx	r5
    bit_buffer_free(instance->data.tx_buffer);
    1b1a:	69a0      	ldr	r0, [r4, #24]
    1b1c:	47a8      	blx	r5
    furi_semaphore_free(instance->sem_done);
    1b1e:	6a60      	ldr	r0, [r4, #36]	@ 0x24
    1b20:	4b08      	ldr	r3, [pc, #32]	@ (1b44 <sukima694+0xe>)
    1b22:	4798      	blx	r3
    furi_message_queue_free(instance->input_queue);
    1b24:	6aa0      	ldr	r0, [r4, #40]	@ 0x28
    1b26:	4b08      	ldr	r3, [pc, #32]	@ (1b48 <sukima694+0x12>)
    1b28:	4798      	blx	r3
    free(instance);
    1b2a:	4620      	mov	r0, r4
    1b2c:	4b07      	ldr	r3, [pc, #28]	@ (1b4c <sukima694+0x16>)
    1b2e:	4798      	blx	r3
}
    1b30:	bd38      	pop	{r3, r4, r5, pc}
    furi_assert(action_ctx);
    1b32:	f04f 0c01 	mov.w	ip, #1

00001b36 <sukima694>:
    1b36:	4b06      	ldr	r3, [pc, #24]	@ (1b50 <sukima694+0x1a>)
    1b38:	4798      	blx	r3
    1b3a:	bf00      	nop
	...

00001b54 <nfc_cli_apdu_alloc_ctx>:
static NfcCliActionContext* nfc_cli_apdu_alloc_ctx(Nfc* nfc) {
    1b54:	b5f8      	push	{r3, r4, r5, r6, r7, lr}
    furi_assert(nfc);
    1b56:	b310      	cbz	r0, 1b9e <nfc_cli_apdu_alloc_ctx+0x4a>
    1b58:	4605      	mov	r5, r0
    NfcCliApduContext* instance = malloc(sizeof(NfcCliApduContext));
    1b5a:	202c      	movs	r0, #44	@ 0x2c
    1b5c:	4b12      	ldr	r3, [pc, #72]	@ (1ba8 <sukima816+0x6>)
    1b5e:	4798      	blx	r3
    1b60:	4604      	mov	r4, r0
    instance->nfc = nfc;
    1b62:	6005      	str	r5, [r0, #0]
    instance->data.protocol = NfcProtocolInvalid;
    1b64:	230d      	movs	r3, #13
    1b66:	7503      	strb	r3, [r0, #20]
    instance->auto_detect = true;
    1b68:	2501      	movs	r5, #1
    1b6a:	7105      	strb	r5, [r0, #4]
ARRAY_DEF(
    1b6c:	2600      	movs	r6, #0
    1b6e:	6086      	str	r6, [r0, #8]
    1b70:	60c6      	str	r6, [r0, #12]
    1b72:	6106      	str	r6, [r0, #16]
    instance->data.rx_buffer = bit_buffer_alloc(NFC_CLI_PROTOCOL_SUPPORT_MAX_BUFFER_SIZE);
    1b74:	f44f 7080 	mov.w	r0, #256	@ 0x100
    1b78:	4f0c      	ldr	r7, [pc, #48]	@ (1bac <sukima816+0xa>)
    1b7a:	47b8      	blx	r7
    1b7c:	61e0      	str	r0, [r4, #28]
    instance->data.tx_buffer = bit_buffer_alloc(NFC_CLI_PROTOCOL_SUPPORT_MAX_BUFFER_SIZE);
    1b7e:	f44f 7080 	mov.w	r0, #256	@ 0x100
    1b82:	47b8      	blx	r7
    1b84:	61a0      	str	r0, [r4, #24]
    instance->sem_done = furi_semaphore_alloc(1, 0);
    1b86:	4631      	mov	r1, r6
    1b88:	4628      	mov	r0, r5
    1b8a:	4b09      	ldr	r3, [pc, #36]	@ (1bb0 <sukima816+0xe>)
    1b8c:	4798      	blx	r3
    1b8e:	6260      	str	r0, [r4, #36]	@ 0x24
    instance->input_queue = furi_message_queue_alloc(1, sizeof(NfcCliProtocolRequestType));
    1b90:	4629      	mov	r1, r5
    1b92:	4628      	mov	r0, r5
    1b94:	4b07      	ldr	r3, [pc, #28]	@ (1bb4 <sukima816+0x12>)
    1b96:	4798      	blx	r3
    1b98:	62a0      	str	r0, [r4, #40]	@ 0x28
}
    1b9a:	4620      	mov	r0, r4
    1b9c:	bdf8      	pop	{r3, r4, r5, r6, r7, pc}
    furi_assert(nfc);
    1b9e:	f04f 0c01 	mov.w	ip, #1

00001ba2 <sukima816>:
    1ba2:	4b05      	ldr	r3, [pc, #20]	@ (1bb8 <sukima816+0x16>)
    1ba4:	4798      	blx	r3
    1ba6:	bf00      	nop
	...

00001bbc <nfc_cli_apdu_poller_callback>:
static NfcCommand nfc_cli_apdu_poller_callback(NfcGenericEvent event, void* context) {
    1bbc:	b530      	push	{r4, r5, lr}
    1bbe:	b087      	sub	sp, #28
    1bc0:	ac01      	add	r4, sp, #4
    1bc2:	e884 0007 	stmia.w	r4, {r0, r1, r2}
    1bc6:	461c      	mov	r4, r3
    FURI_LOG_D(TAG, "Poller callback");
    1bc8:	4a16      	ldr	r2, [pc, #88]	@ (1c24 <nfc_cli_apdu_poller_callback+0x68>)
    1bca:	4917      	ldr	r1, [pc, #92]	@ (1c28 <nfc_cli_apdu_poller_callback+0x6c>)
    1bcc:	2005      	movs	r0, #5
    1bce:	4b17      	ldr	r3, [pc, #92]	@ (1c2c <nfc_cli_apdu_poller_callback+0x70>)
    1bd0:	4798      	blx	r3
    NfcCliProtocolRequestType request_type = NfcCliProtocolRequestTypeAbort;
    1bd2:	2301      	movs	r3, #1
    1bd4:	f88d 3017 	strb.w	r3, [sp, #23]
    furi_message_queue_get(instance->input_queue, &request_type, FuriWaitForever);
    1bd8:	f04f 32ff 	mov.w	r2, #4294967295	@ 0xffffffff
    1bdc:	f10d 0117 	add.w	r1, sp, #23
    1be0:	6aa0      	ldr	r0, [r4, #40]	@ 0x28
    1be2:	4b13      	ldr	r3, [pc, #76]	@ (1c30 <nfc_cli_apdu_poller_callback+0x74>)
    1be4:	4798      	blx	r3
    if(request_type == NfcCliProtocolRequestTypeAbort) {
    1be6:	f89d 3017 	ldrb.w	r3, [sp, #23]
    1bea:	2b01      	cmp	r3, #1
    1bec:	d010      	beq.n	1c10 <nfc_cli_apdu_poller_callback+0x54>
            nfc_cli_apdu_poller_get_handler(instance->data.protocol);
    1bee:	7d20      	ldrb	r0, [r4, #20]
    1bf0:	4b10      	ldr	r3, [pc, #64]	@ (1c34 <nfc_cli_apdu_poller_callback+0x78>)
    1bf2:	4798      	blx	r3
        if(handler) command = handler(event, &instance->data);
    1bf4:	4605      	mov	r5, r0
    1bf6:	b190      	cbz	r0, 1c1e <nfc_cli_apdu_poller_callback+0x62>
    1bf8:	f104 0314 	add.w	r3, r4, #20
    1bfc:	aa01      	add	r2, sp, #4
    1bfe:	ca07      	ldmia	r2, {r0, r1, r2}
    1c00:	47a8      	blx	r5
    1c02:	4605      	mov	r5, r0
    furi_semaphore_release(instance->sem_done);
    1c04:	6a60      	ldr	r0, [r4, #36]	@ 0x24
    1c06:	4b0c      	ldr	r3, [pc, #48]	@ (1c38 <nfc_cli_apdu_poller_callback+0x7c>)
    1c08:	4798      	blx	r3
}
    1c0a:	4628      	mov	r0, r5
    1c0c:	b007      	add	sp, #28
    1c0e:	bd30      	pop	{r4, r5, pc}
        FURI_LOG_D(TAG, "Aborting poller callback");
    1c10:	4a0a      	ldr	r2, [pc, #40]	@ (1c3c <nfc_cli_apdu_poller_callback+0x80>)
    1c12:	4905      	ldr	r1, [pc, #20]	@ (1c28 <nfc_cli_apdu_poller_callback+0x6c>)
    1c14:	2005      	movs	r0, #5
    1c16:	4b05      	ldr	r3, [pc, #20]	@ (1c2c <nfc_cli_apdu_poller_callback+0x70>)
    1c18:	4798      	blx	r3
    NfcCommand command = NfcCommandStop;
    1c1a:	2502      	movs	r5, #2
    1c1c:	e7f2      	b.n	1c04 <nfc_cli_apdu_poller_callback+0x48>
    1c1e:	2502      	movs	r5, #2
    1c20:	e7f0      	b.n	1c04 <nfc_cli_apdu_poller_callback+0x48>
    1c22:	bf00      	nop
    1c24:	00000db8 	.word	0x00000db8
    1c28:	00000dc8 	.word	0x00000dc8
	...
    1c3c:	00000dd0 	.word	0x00000dd0

00001c40 <nfc_cli_apdu_protocol_autodetect>:
static NfcProtocol nfc_cli_apdu_protocol_autodetect(Nfc* nfc) {
    1c40:	e92d 41f0 	stmdb	sp!, {r4, r5, r6, r7, r8, lr}
    1c44:	b084      	sub	sp, #16
    1c46:	4680      	mov	r8, r0
    const NfcProtocol supported_protocols[] = {
    1c48:	4b19      	ldr	r3, [pc, #100]	@ (1cb0 <nfc_cli_apdu_protocol_autodetect+0x70>)
    1c4a:	f853 2b04 	ldr.w	r2, [r3], #4
    1c4e:	f8ad 200c 	strh.w	r2, [sp, #12]
    1c52:	0c12      	lsrs	r2, r2, #16
    1c54:	f88d 200e 	strb.w	r2, [sp, #14]
    const char* supported_names[] = {"Iso14443_4a", "Iso14443_4b", "Iso15693_3"};
    1c58:	466c      	mov	r4, sp
    1c5a:	e893 0007 	ldmia.w	r3, {r0, r1, r2}
    1c5e:	e884 0007 	stmia.w	r4, {r0, r1, r2}
    for(uint8_t i = 0; i < COUNT_OF(supported_protocols); i++) {
    1c62:	2400      	movs	r4, #0
    1c64:	e001      	b.n	1c6a <nfc_cli_apdu_protocol_autodetect+0x2a>
    1c66:	3401      	adds	r4, #1
    1c68:	b2e4      	uxtb	r4, r4
    1c6a:	2c02      	cmp	r4, #2
    1c6c:	d81a      	bhi.n	1ca4 <nfc_cli_apdu_protocol_autodetect+0x64>
        NfcPoller* poller = nfc_poller_alloc(nfc, supported_protocols[i]);
    1c6e:	f104 0310 	add.w	r3, r4, #16
    1c72:	446b      	add	r3, sp
    1c74:	f813 7c04 	ldrb.w	r7, [r3, #-4]
    1c78:	4639      	mov	r1, r7
    1c7a:	4640      	mov	r0, r8
    1c7c:	4b0d      	ldr	r3, [pc, #52]	@ (1cb4 <nfc_cli_apdu_protocol_autodetect+0x74>)
    1c7e:	4798      	blx	r3
    1c80:	4606      	mov	r6, r0
        bool is_detected = nfc_poller_detect(poller);
    1c82:	4b0d      	ldr	r3, [pc, #52]	@ (1cb8 <nfc_cli_apdu_protocol_autodetect+0x78>)
    1c84:	4798      	blx	r3
    1c86:	4605      	mov	r5, r0
        nfc_poller_free(poller);
    1c88:	4630      	mov	r0, r6
    1c8a:	4b0c      	ldr	r3, [pc, #48]	@ (1cbc <nfc_cli_apdu_protocol_autodetect+0x7c>)
    1c8c:	4798      	blx	r3
        if(is_detected) {
    1c8e:	2d00      	cmp	r5, #0
    1c90:	d0e9      	beq.n	1c66 <nfc_cli_apdu_protocol_autodetect+0x26>
            printf("Detected tag: %s\r\n", supported_names[i]);
    1c92:	ab04      	add	r3, sp, #16
    1c94:	eb03 0484 	add.w	r4, r3, r4, lsl #2
    1c98:	f854 1c10 	ldr.w	r1, [r4, #-16]
    1c9c:	4808      	ldr	r0, [pc, #32]	@ (1cc0 <nfc_cli_apdu_protocol_autodetect+0x80>)
    1c9e:	4b09      	ldr	r3, [pc, #36]	@ (1cc4 <nfc_cli_apdu_protocol_autodetect+0x84>)
    1ca0:	4798      	blx	r3
            break;
    1ca2:	e000      	b.n	1ca6 <nfc_cli_apdu_protocol_autodetect+0x66>
    NfcProtocol protocol = NfcProtocolInvalid;
    1ca4:	270d      	movs	r7, #13
}
    1ca6:	4638      	mov	r0, r7
    1ca8:	b004      	add	sp, #16
    1caa:	e8bd 81f0 	ldmia.w	sp!, {r4, r5, r6, r7, r8, pc}
    1cae:	bf00      	nop
    1cb0:	00000004 	.word	0x00000004
	...
    1cc0:	00000dec 	.word	0x00000dec
    1cc4:	00000000 	.word	0x00000000

00001cc8 <nfc_cli_apdu_print_result>:
static inline void nfc_cli_apdu_print_result(const NfcCliApduContext* instance) {
    1cc8:	b538      	push	{r3, r4, r5, lr}
    1cca:	4604      	mov	r4, r0
    nfc_cli_printf_array(
    1ccc:	6980      	ldr	r0, [r0, #24]
    1cce:	4b15      	ldr	r3, [pc, #84]	@ (1d24 <nfc_cli_apdu_print_result+0x5c>)
    1cd0:	4798      	blx	r3
    1cd2:	4605      	mov	r5, r0
    1cd4:	69a0      	ldr	r0, [r4, #24]
    1cd6:	4b14      	ldr	r3, [pc, #80]	@ (1d28 <nfc_cli_apdu_print_result+0x60>)
    1cd8:	4798      	blx	r3
    1cda:	4601      	mov	r1, r0
    1cdc:	4a13      	ldr	r2, [pc, #76]	@ (1d2c <nfc_cli_apdu_print_result+0x64>)
    1cde:	4628      	mov	r0, r5
    1ce0:	4b13      	ldr	r3, [pc, #76]	@ (1d30 <nfc_cli_apdu_print_result+0x68>)
    1ce2:	4798      	blx	r3
    if(instance->data.result != NfcCliApduErrorNone)
    1ce4:	f894 3020 	ldrb.w	r3, [r4, #32]
    1ce8:	b923      	cbnz	r3, 1cf4 <nfc_cli_apdu_print_result+0x2c>
    size_t rx_size = bit_buffer_get_size_bytes(instance->data.rx_buffer);
    1cea:	69e0      	ldr	r0, [r4, #28]
    1cec:	4b0e      	ldr	r3, [pc, #56]	@ (1d28 <nfc_cli_apdu_print_result+0x60>)
    1cee:	4798      	blx	r3
    if(rx_size > 0) {
    1cf0:	b938      	cbnz	r0, 1d02 <nfc_cli_apdu_print_result+0x3a>
}
    1cf2:	bd38      	pop	{r3, r4, r5, pc}
        printf("\r\nError: \"%s\"\r\n", raw_error_names[instance->data.result]);
    1cf4:	4a0f      	ldr	r2, [pc, #60]	@ (1d34 <nfc_cli_apdu_print_result+0x6c>)
    1cf6:	f852 1023 	ldr.w	r1, [r2, r3, lsl #2]
    1cfa:	480f      	ldr	r0, [pc, #60]	@ (1d38 <nfc_cli_apdu_print_result+0x70>)
    1cfc:	4b0f      	ldr	r3, [pc, #60]	@ (1d3c <nfc_cli_apdu_print_result+0x74>)
    1cfe:	4798      	blx	r3
    1d00:	e7f3      	b.n	1cea <nfc_cli_apdu_print_result+0x22>
        nfc_cli_printf_array(
    1d02:	69e0      	ldr	r0, [r4, #28]
    1d04:	4b07      	ldr	r3, [pc, #28]	@ (1d24 <nfc_cli_apdu_print_result+0x5c>)
    1d06:	4798      	blx	r3
    1d08:	4605      	mov	r5, r0
    1d0a:	69e0      	ldr	r0, [r4, #28]
    1d0c:	4b06      	ldr	r3, [pc, #24]	@ (1d28 <nfc_cli_apdu_print_result+0x60>)
    1d0e:	4798      	blx	r3
    1d10:	4601      	mov	r1, r0
    1d12:	4a0b      	ldr	r2, [pc, #44]	@ (1d40 <nfc_cli_apdu_print_result+0x78>)
    1d14:	4628      	mov	r0, r5
    1d16:	4b06      	ldr	r3, [pc, #24]	@ (1d30 <nfc_cli_apdu_print_result+0x68>)
    1d18:	4798      	blx	r3
        printf("\r\n");
    1d1a:	480a      	ldr	r0, [pc, #40]	@ (1d44 <nfc_cli_apdu_print_result+0x7c>)
    1d1c:	4b0a      	ldr	r3, [pc, #40]	@ (1d48 <nfc_cli_apdu_print_result+0x80>)
    1d1e:	4798      	blx	r3
}
    1d20:	e7e7      	b.n	1cf2 <nfc_cli_apdu_print_result+0x2a>
    1d22:	bf00      	nop
	...
    1d2c:	00000e00 	.word	0x00000e00
    1d30:	00000000 	.word	0x00000000
    1d34:	00000fc4 	.word	0x00000fc4
    1d38:	00000e08 	.word	0x00000e08
    1d3c:	00000000 	.word	0x00000000
    1d40:	00000e18 	.word	0x00000e18
    1d44:	00000e20 	.word	0x00000e20
    1d48:	00000000 	.word	0x00000000

00001d4c <nfc_cli_apdu_execute>:
static void nfc_cli_apdu_execute(PipeSide* pipe, void* context) {
    1d4c:	b5f0      	push	{r4, r5, r6, r7, lr}
    1d4e:	b085      	sub	sp, #20
    furi_assert(context);
    1d50:	b139      	cbz	r1, 1d62 <nfc_cli_apdu_execute+0x16>
    1d52:	460c      	mov	r4, r1
    if(instance->auto_detect) {
    1d54:	790b      	ldrb	r3, [r1, #4]
    1d56:	b943      	cbnz	r3, 1d6a <sukima1275+0x4>
    if(instance->data.protocol != NfcProtocolInvalid) {
    1d58:	7d21      	ldrb	r1, [r4, #20]
    1d5a:	290d      	cmp	r1, #13
    1d5c:	d10a      	bne.n	1d74 <sukima1275+0xe>
}
    1d5e:	b005      	add	sp, #20
    1d60:	bdf0      	pop	{r4, r5, r6, r7, pc}
    furi_assert(context);
    1d62:	f04f 0c01 	mov.w	ip, #1

00001d66 <sukima1275>:
    1d66:	4b26      	ldr	r3, [pc, #152]	@ (1e00 <sukima1275+0x9a>)
    1d68:	4798      	blx	r3
        instance->data.protocol = nfc_cli_apdu_protocol_autodetect(instance->nfc);
    1d6a:	6808      	ldr	r0, [r1, #0]
    1d6c:	4b25      	ldr	r3, [pc, #148]	@ (1e04 <sukima1275+0x9e>)
    1d6e:	4798      	blx	r3
    1d70:	7520      	strb	r0, [r4, #20]
    1d72:	e7f1      	b.n	1d58 <nfc_cli_apdu_execute+0xc>
        NfcPoller* poller = nfc_poller_alloc(instance->nfc, instance->data.protocol);
    1d74:	6820      	ldr	r0, [r4, #0]
    1d76:	4b24      	ldr	r3, [pc, #144]	@ (1e08 <sukima1275+0xa2>)
    1d78:	4798      	blx	r3
    1d7a:	4607      	mov	r7, r0
        NfcCliProtocolRequestType request_type = NfcCliProtocolRequestTypeNormalExecute;
    1d7c:	2500      	movs	r5, #0
    1d7e:	f88d 5007 	strb.w	r5, [sp, #7]
        nfc_poller_start(poller, nfc_cli_apdu_poller_callback, instance);
    1d82:	4622      	mov	r2, r4
    1d84:	4921      	ldr	r1, [pc, #132]	@ (1e0c <sukima1275+0xa6>)
    1d86:	4b22      	ldr	r3, [pc, #136]	@ (1e10 <sukima1275+0xaa>)
    1d88:	4798      	blx	r3
        for(NfcCliApduItemArray_it(it, instance->apdu); !NfcCliApduItemArray_end_p(it);
    1d8a:	f104 0608 	add.w	r6, r4, #8
ARRAY_DEF(
    1d8e:	9502      	str	r5, [sp, #8]
    1d90:	9603      	str	r6, [sp, #12]
    1d92:	9d02      	ldr	r5, [sp, #8]
    1d94:	6833      	ldr	r3, [r6, #0]
        for(NfcCliApduItemArray_it(it, instance->apdu); !NfcCliApduItemArray_end_p(it);
    1d96:	429d      	cmp	r5, r3
    1d98:	d220      	bcs.n	1ddc <sukima1275+0x76>
ARRAY_DEF(
    1d9a:	68b3      	ldr	r3, [r6, #8]
    1d9c:	eb03 02c5 	add.w	r2, r3, r5, lsl #3
            bit_buffer_copy_bytes(instance->data.tx_buffer, item->data, item->size);
    1da0:	6852      	ldr	r2, [r2, #4]
    1da2:	f853 1035 	ldr.w	r1, [r3, r5, lsl #3]
    1da6:	69a0      	ldr	r0, [r4, #24]
    1da8:	4b1a      	ldr	r3, [pc, #104]	@ (1e14 <sukima1275+0xae>)
    1daa:	4798      	blx	r3
            bit_buffer_reset(instance->data.rx_buffer);
    1dac:	69e0      	ldr	r0, [r4, #28]
    1dae:	4b1a      	ldr	r3, [pc, #104]	@ (1e18 <sukima1275+0xb2>)
    1db0:	4798      	blx	r3
            furi_message_queue_put(instance->input_queue, &request_type, FuriWaitForever);
    1db2:	f04f 32ff 	mov.w	r2, #4294967295	@ 0xffffffff
    1db6:	f10d 0107 	add.w	r1, sp, #7
    1dba:	6aa0      	ldr	r0, [r4, #40]	@ 0x28
    1dbc:	4b17      	ldr	r3, [pc, #92]	@ (1e1c <sukima1275+0xb6>)
    1dbe:	4798      	blx	r3
            furi_semaphore_acquire(instance->sem_done, FuriWaitForever);
    1dc0:	f04f 31ff 	mov.w	r1, #4294967295	@ 0xffffffff
    1dc4:	6a60      	ldr	r0, [r4, #36]	@ 0x24
    1dc6:	4b16      	ldr	r3, [pc, #88]	@ (1e20 <sukima1275+0xba>)
    1dc8:	4798      	blx	r3
            nfc_cli_apdu_print_result(instance);
    1dca:	4620      	mov	r0, r4
    1dcc:	4b15      	ldr	r3, [pc, #84]	@ (1e24 <sukima1275+0xbe>)
    1dce:	4798      	blx	r3
            if(instance->data.result != NfcCliApduErrorNone) break;
    1dd0:	f894 3020 	ldrb.w	r3, [r4, #32]
    1dd4:	b913      	cbnz	r3, 1ddc <sukima1275+0x76>
ARRAY_DEF(
    1dd6:	3501      	adds	r5, #1
    1dd8:	9502      	str	r5, [sp, #8]
    1dda:	e7da      	b.n	1d92 <sukima1275+0x2c>
        request_type = NfcCliProtocolRequestTypeAbort;
    1ddc:	2301      	movs	r3, #1
    1dde:	f88d 3007 	strb.w	r3, [sp, #7]
        furi_message_queue_put(instance->input_queue, &request_type, FuriWaitForever);
    1de2:	f04f 32ff 	mov.w	r2, #4294967295	@ 0xffffffff
    1de6:	f10d 0107 	add.w	r1, sp, #7
    1dea:	6aa0      	ldr	r0, [r4, #40]	@ 0x28
    1dec:	4b0b      	ldr	r3, [pc, #44]	@ (1e1c <sukima1275+0xb6>)
    1dee:	4798      	blx	r3
        nfc_poller_stop(poller);
    1df0:	4638      	mov	r0, r7
    1df2:	4b0d      	ldr	r3, [pc, #52]	@ (1e28 <sukima1275+0xc2>)
    1df4:	4798      	blx	r3
        nfc_poller_free(poller);
    1df6:	4638      	mov	r0, r7
    1df8:	4b0c      	ldr	r3, [pc, #48]	@ (1e2c <sukima1275+0xc6>)
    1dfa:	4798      	blx	r3
}
    1dfc:	e7af      	b.n	1d5e <nfc_cli_apdu_execute+0x12>
    1dfe:	bf00      	nop
	...

00001e30 <nfc_cli_command_apdu_callback>:
};

const NfcCliActionDescriptor* apdu_actions_collection[] = {&apdu_action};

//Command descriptor
ADD_NFC_CLI_COMMAND(apdu, "", apdu_actions_collection);
    1e30:	b510      	push	{r4, lr}
    1e32:	4613      	mov	r3, r2
    1e34:	460a      	mov	r2, r1
    1e36:	4601      	mov	r1, r0
    1e38:	4801      	ldr	r0, [pc, #4]	@ (1e40 <nfc_cli_command_apdu_callback+0x10>)
    1e3a:	4c02      	ldr	r4, [pc, #8]	@ (1e44 <nfc_cli_command_apdu_callback+0x14>)
    1e3c:	47a0      	blx	r4
    1e3e:	bd10      	pop	{r4, pc}
	...

00001e48 <nfc_cli_apdu_iso14443_4a_process_error>:
#define TAG "ISO14A_4A"

#define BIT_BUFFER_EMPTY(buffer) ((bit_buffer_get_size_bytes(buffer) == 0))

static NfcCliApduError nfc_cli_apdu_iso14443_4a_process_error(Iso14443_4aError error) {
    switch(error) {
    1e48:	2801      	cmp	r0, #1
    1e4a:	d005      	beq.n	1e58 <nfc_cli_apdu_iso14443_4a_process_error+0x10>
    1e4c:	2803      	cmp	r0, #3
    1e4e:	d005      	beq.n	1e5c <nfc_cli_apdu_iso14443_4a_process_error+0x14>
    1e50:	b108      	cbz	r0, 1e56 <nfc_cli_apdu_iso14443_4a_process_error+0xe>
    case Iso14443_4aErrorTimeout:
        return NfcCliApduErrorTimeout;
    case Iso14443_4aErrorNotPresent:
        return NfcCliApduErrorNotPresent;
    default:
        return NfcCliApduErrorProtocol;
    1e52:	2004      	movs	r0, #4
    }
}
    1e54:	4770      	bx	lr
    1e56:	4770      	bx	lr
        return NfcCliApduErrorNotPresent;
    1e58:	2002      	movs	r0, #2
    1e5a:	4770      	bx	lr
        return NfcCliApduErrorTimeout;
    1e5c:	2001      	movs	r0, #1
    1e5e:	4770      	bx	lr

00001e60 <nfc_cli_apdu_iso14443_4a_handler>:

NfcCommand
    nfc_cli_apdu_iso14443_4a_handler(NfcGenericEvent event, NfcCliApduRequestResponse* instance) {
    1e60:	b530      	push	{r4, r5, lr}
    1e62:	b085      	sub	sp, #20
    1e64:	ac04      	add	r4, sp, #16
    1e66:	e904 0007 	stmdb	r4, {r0, r1, r2}
    1e6a:	461c      	mov	r4, r3
    Iso14443_4aPollerEvent* iso14443_4a_event = event.event_data;
    NfcCommand command = NfcCommandContinue;

    if(iso14443_4a_event->type == Iso14443_4aPollerEventTypeReady) {
    1e6c:	7813      	ldrb	r3, [r2, #0]
    1e6e:	2b01      	cmp	r3, #1
    1e70:	d003      	beq.n	1e7a <nfc_cli_apdu_iso14443_4a_handler+0x1a>
    NfcCommand command = NfcCommandContinue;
    1e72:	2500      	movs	r5, #0
        instance->result = nfc_cli_apdu_iso14443_4a_process_error(err);
        if(err != Iso14443_4aErrorNone) command = NfcCommandStop;
    }

    return command;
}
    1e74:	4628      	mov	r0, r5
    1e76:	b005      	add	sp, #20
    1e78:	bd30      	pop	{r4, r5, pc}
        Iso14443_4aError err = iso14443_4a_poller_send_block(
    1e7a:	68a2      	ldr	r2, [r4, #8]
    1e7c:	6861      	ldr	r1, [r4, #4]
    1e7e:	9802      	ldr	r0, [sp, #8]
    1e80:	4b04      	ldr	r3, [pc, #16]	@ (1e94 <nfc_cli_apdu_iso14443_4a_handler+0x34>)
    1e82:	4798      	blx	r3
    1e84:	4605      	mov	r5, r0
        instance->result = nfc_cli_apdu_iso14443_4a_process_error(err);
    1e86:	4b04      	ldr	r3, [pc, #16]	@ (1e98 <nfc_cli_apdu_iso14443_4a_handler+0x38>)
    1e88:	4798      	blx	r3
    1e8a:	7320      	strb	r0, [r4, #12]
        if(err != Iso14443_4aErrorNone) command = NfcCommandStop;
    1e8c:	2d00      	cmp	r5, #0
    1e8e:	d0f1      	beq.n	1e74 <nfc_cli_apdu_iso14443_4a_handler+0x14>
    1e90:	2502      	movs	r5, #2
    1e92:	e7ef      	b.n	1e74 <nfc_cli_apdu_iso14443_4a_handler+0x14>
	...

00001e9c <nfc_cli_dump_parse_timeout>:
    } while(false);

    return result;
}

bool nfc_cli_dump_parse_timeout(FuriString* value, NfcCliActionContext* output) {
    1e9c:	b510      	push	{r4, lr}
    1e9e:	460c      	mov	r4, r1
    NfcCliDumpContext* ctx = output;

    StrintParseError err = strint_to_uint32(furi_string_get_cstr(value), NULL, &ctx->timeout, 10);
    1ea0:	4b05      	ldr	r3, [pc, #20]	@ (1eb8 <nfc_cli_dump_parse_timeout+0x1c>)
    1ea2:	4798      	blx	r3
    1ea4:	230a      	movs	r3, #10
    1ea6:	f104 0214 	add.w	r2, r4, #20
    1eaa:	2100      	movs	r1, #0
    1eac:	4c03      	ldr	r4, [pc, #12]	@ (1ebc <nfc_cli_dump_parse_timeout+0x20>)
    1eae:	47a0      	blx	r4
    return err == StrintParseNoError;
}
    1eb0:	fab0 f080 	clz	r0, r0
    1eb4:	0940      	lsrs	r0, r0, #5
    1eb6:	bd10      	pop	{r4, pc}
	...

00001ec0 <nfc_cli_dump_parse_filename_key>:
static bool nfc_cli_dump_parse_filename_key(FuriString* value, void* output) {
    1ec0:	b508      	push	{r3, lr}
    furi_assert(value);
    1ec2:	b138      	cbz	r0, 1ed4 <nfc_cli_dump_parse_filename_key+0x14>
    1ec4:	460b      	mov	r3, r1
    1ec6:	4601      	mov	r1, r0
    furi_assert(output);
    1ec8:	b143      	cbz	r3, 1edc <sukima106+0x4>
    furi_string_set(ctx->file_path, value);
    1eca:	6858      	ldr	r0, [r3, #4]
    1ecc:	4b05      	ldr	r3, [pc, #20]	@ (1ee4 <sukima123+0x4>)
    1ece:	4798      	blx	r3
}
    1ed0:	2001      	movs	r0, #1
    1ed2:	bd08      	pop	{r3, pc}
    furi_assert(value);
    1ed4:	f04f 0c01 	mov.w	ip, #1

00001ed8 <sukima106>:
    1ed8:	4b03      	ldr	r3, [pc, #12]	@ (1ee8 <sukima123+0x8>)
    1eda:	4798      	blx	r3
    furi_assert(output);
    1edc:	f04f 0c01 	mov.w	ip, #1

00001ee0 <sukima123>:
    1ee0:	4b01      	ldr	r3, [pc, #4]	@ (1ee8 <sukima123+0x8>)
    1ee2:	4798      	blx	r3
	...

00001eec <nfc_cli_dump_parse_protocol>:
static bool nfc_cli_dump_parse_protocol(FuriString* value, void* output) {
    1eec:	b570      	push	{r4, r5, r6, lr}
    furi_assert(value);
    1eee:	b190      	cbz	r0, 1f16 <nfc_cli_dump_parse_protocol+0x2a>
    1ef0:	460c      	mov	r4, r1
    1ef2:	4606      	mov	r6, r0
    furi_assert(output);
    1ef4:	b199      	cbz	r1, 1f1e <sukima216+0x4>
        nfc_cli_protocol_parser_alloc(supported_protocols, COUNT_OF(supported_protocols));
    1ef6:	210c      	movs	r1, #12
    1ef8:	480b      	ldr	r0, [pc, #44]	@ (1f28 <sukima233+0x6>)
    1efa:	4b0c      	ldr	r3, [pc, #48]	@ (1f2c <sukima233+0xa>)
    1efc:	4798      	blx	r3
    1efe:	4605      	mov	r5, r0
    bool result = nfc_cli_protocol_parser_get(parser, value, &ctx->desired_protocol);
    1f00:	f104 0210 	add.w	r2, r4, #16
    1f04:	4631      	mov	r1, r6
    1f06:	4b0a      	ldr	r3, [pc, #40]	@ (1f30 <sukima233+0xe>)
    1f08:	4798      	blx	r3
    1f0a:	4604      	mov	r4, r0
    nfc_cli_protocol_parser_free(parser);
    1f0c:	4628      	mov	r0, r5
    1f0e:	4b09      	ldr	r3, [pc, #36]	@ (1f34 <sukima233+0x12>)
    1f10:	4798      	blx	r3
}
    1f12:	4620      	mov	r0, r4
    1f14:	bd70      	pop	{r4, r5, r6, pc}
    furi_assert(value);
    1f16:	f04f 0c01 	mov.w	ip, #1

00001f1a <sukima216>:
    1f1a:	4b07      	ldr	r3, [pc, #28]	@ (1f38 <sukima233+0x16>)
    1f1c:	4798      	blx	r3
    furi_assert(output);
    1f1e:	f04f 0c01 	mov.w	ip, #1

00001f22 <sukima233>:
    1f22:	4b05      	ldr	r3, [pc, #20]	@ (1f38 <sukima233+0x16>)
    1f24:	4798      	blx	r3
    1f26:	bf00      	nop
    1f28:	000012c8 	.word	0x000012c8
	...

00001f3c <nfc_cli_dump_parse_key>:
static bool nfc_cli_dump_parse_key(FuriString* value, void* output) {
    1f3c:	b570      	push	{r4, r5, r6, lr}
    furi_assert(value);
    1f3e:	b1c8      	cbz	r0, 1f74 <nfc_cli_dump_parse_key+0x38>
    1f40:	460d      	mov	r5, r1
    1f42:	4606      	mov	r6, r0
    furi_assert(output);
    1f44:	b1d1      	cbz	r1, 1f7c <sukima347+0x4>
        size_t len = furi_string_size(value);
    1f46:	4b13      	ldr	r3, [pc, #76]	@ (1f94 <sukima364+0x14>)
    1f48:	4798      	blx	r3
        if(len % 2 != 0) break;
    1f4a:	f010 0f01 	tst.w	r0, #1
    1f4e:	d11e      	bne.n	1f8e <sukima364+0xe>
        size_t data_length = len / 2;
    1f50:	0844      	lsrs	r4, r0, #1
        if(data_length != MF_ULTRALIGHT_AUTH_PASSWORD_SIZE &&
    1f52:	2c04      	cmp	r4, #4
    1f54:	d001      	beq.n	1f5a <nfc_cli_dump_parse_key+0x1e>
    1f56:	2c10      	cmp	r4, #16
    1f58:	d114      	bne.n	1f84 <sukima364+0x4>
        if(!args_read_hex_bytes(value, auth_ctx->key.key, data_length)) break;
    1f5a:	4622      	mov	r2, r4
    1f5c:	f105 011d 	add.w	r1, r5, #29
    1f60:	4630      	mov	r0, r6
    1f62:	4b0d      	ldr	r3, [pc, #52]	@ (1f98 <sukima364+0x18>)
    1f64:	4798      	blx	r3
    1f66:	b198      	cbz	r0, 1f90 <sukima364+0x10>
        auth_ctx->key_size = data_length;
    1f68:	f885 402d 	strb.w	r4, [r5, #45]	@ 0x2d
        auth_ctx->skip_auth = false;
    1f6c:	2300      	movs	r3, #0
    1f6e:	f885 302e 	strb.w	r3, [r5, #46]	@ 0x2e
        result = true;
    1f72:	e00d      	b.n	1f90 <sukima364+0x10>
    furi_assert(value);
    1f74:	f04f 0c01 	mov.w	ip, #1

00001f78 <sukima347>:
    1f78:	4b08      	ldr	r3, [pc, #32]	@ (1f9c <sukima364+0x1c>)
    1f7a:	4798      	blx	r3
    furi_assert(output);
    1f7c:	f04f 0c01 	mov.w	ip, #1

00001f80 <sukima364>:
    1f80:	4b06      	ldr	r3, [pc, #24]	@ (1f9c <sukima364+0x1c>)
    1f82:	4798      	blx	r3
            printf(ANSI_FG_RED "Error: Wrong key size" ANSI_RESET);
    1f84:	4806      	ldr	r0, [pc, #24]	@ (1fa0 <sukima364+0x20>)
    1f86:	4b07      	ldr	r3, [pc, #28]	@ (1fa4 <sukima364+0x24>)
    1f88:	4798      	blx	r3
    bool result = false;
    1f8a:	2000      	movs	r0, #0
            break;
    1f8c:	e000      	b.n	1f90 <sukima364+0x10>
    bool result = false;
    1f8e:	2000      	movs	r0, #0
}
    1f90:	bd70      	pop	{r4, r5, r6, pc}
    1f92:	bf00      	nop
	...
    1fa0:	00000fd8 	.word	0x00000fd8
    1fa4:	00000000 	.word	0x00000000

00001fa8 <nfc_cli_dump_free_ctx>:
static void nfc_cli_dump_free_ctx(NfcCliActionContext* ctx) {
    1fa8:	b510      	push	{r4, lr}
    furi_assert(ctx);
    1faa:	b1d0      	cbz	r0, 1fe2 <nfc_cli_dump_free_ctx+0x3a>
    1fac:	4604      	mov	r4, r0
    instance->desired_protocol = NfcProtocolInvalid;
    1fae:	230d      	movs	r3, #13
    1fb0:	7403      	strb	r3, [r0, #16]
    furi_string_free(instance->file_path);
    1fb2:	6840      	ldr	r0, [r0, #4]
    1fb4:	4b0d      	ldr	r3, [pc, #52]	@ (1fec <sukima499+0x6>)
    1fb6:	4798      	blx	r3
    instance->nfc = NULL;
    1fb8:	2300      	movs	r3, #0
    1fba:	6023      	str	r3, [r4, #0]
    furi_record_close(RECORD_STORAGE);
    1fbc:	480c      	ldr	r0, [pc, #48]	@ (1ff0 <sukima499+0xa>)
    1fbe:	4b0d      	ldr	r3, [pc, #52]	@ (1ff4 <sukima499+0xe>)
    1fc0:	4798      	blx	r3
    furi_semaphore_free(instance->sem_done);
    1fc2:	69a0      	ldr	r0, [r4, #24]
    1fc4:	4b0c      	ldr	r3, [pc, #48]	@ (1ff8 <sukima499+0x12>)
    1fc6:	4798      	blx	r3
    nfc_device_free(instance->nfc_device);
    1fc8:	6ba0      	ldr	r0, [r4, #56]	@ 0x38
    1fca:	4b0c      	ldr	r3, [pc, #48]	@ (1ffc <sukima499+0x16>)
    1fcc:	4798      	blx	r3
    mf_classic_key_cache_free(instance->mfc_key_cache);
    1fce:	6b20      	ldr	r0, [r4, #48]	@ 0x30
    1fd0:	4b0b      	ldr	r3, [pc, #44]	@ (2000 <sukima499+0x1a>)
    1fd2:	4798      	blx	r3
    nfc_cli_scanner_free(instance->scanner);
    1fd4:	68e0      	ldr	r0, [r4, #12]
    1fd6:	4b0b      	ldr	r3, [pc, #44]	@ (2004 <sukima499+0x1e>)
    1fd8:	4798      	blx	r3
    free(instance);
    1fda:	4620      	mov	r0, r4
    1fdc:	4b0a      	ldr	r3, [pc, #40]	@ (2008 <sukima499+0x22>)
    1fde:	4798      	blx	r3
}
    1fe0:	bd10      	pop	{r4, pc}
    furi_assert(ctx);
    1fe2:	f04f 0c01 	mov.w	ip, #1

00001fe6 <sukima499>:
    1fe6:	4b09      	ldr	r3, [pc, #36]	@ (200c <sukima499+0x26>)
    1fe8:	4798      	blx	r3
    1fea:	bf00      	nop
    1fec:	00000000 	.word	0x00000000
    1ff0:	00000ff8 	.word	0x00000ff8
	...

00002010 <nfc_cli_dump_alloc_ctx>:
static NfcCliActionContext* nfc_cli_dump_alloc_ctx(Nfc* nfc) {
    2010:	b538      	push	{r3, r4, r5, lr}
    furi_assert(nfc);
    2012:	b340      	cbz	r0, 2066 <nfc_cli_dump_alloc_ctx+0x56>
    2014:	4605      	mov	r5, r0
    NfcCliDumpContext* instance = malloc(sizeof(NfcCliDumpContext));
    2016:	203c      	movs	r0, #60	@ 0x3c
    2018:	4b15      	ldr	r3, [pc, #84]	@ (2070 <sukima614+0x6>)
    201a:	4798      	blx	r3
    201c:	4604      	mov	r4, r0
    instance->nfc = nfc;
    201e:	6005      	str	r5, [r0, #0]
    instance->file_path = furi_string_alloc();
    2020:	4b14      	ldr	r3, [pc, #80]	@ (2074 <sukima614+0xa>)
    2022:	4798      	blx	r3
    2024:	6060      	str	r0, [r4, #4]
    instance->storage = furi_record_open(RECORD_STORAGE);
    2026:	4814      	ldr	r0, [pc, #80]	@ (2078 <sukima614+0xe>)
    2028:	4b14      	ldr	r3, [pc, #80]	@ (207c <sukima614+0x12>)
    202a:	4798      	blx	r3
    202c:	60a0      	str	r0, [r4, #8]
    instance->sem_done = furi_semaphore_alloc(1, 0);
    202e:	2100      	movs	r1, #0
    2030:	2001      	movs	r0, #1
    2032:	4b13      	ldr	r3, [pc, #76]	@ (2080 <sukima614+0x16>)
    2034:	4798      	blx	r3
    2036:	61a0      	str	r0, [r4, #24]
    instance->nfc_device = nfc_device_alloc();
    2038:	4b12      	ldr	r3, [pc, #72]	@ (2084 <sukima614+0x1a>)
    203a:	4798      	blx	r3
    203c:	63a0      	str	r0, [r4, #56]	@ 0x38
    instance->desired_protocol = NfcProtocolInvalid;
    203e:	230d      	movs	r3, #13
    2040:	7423      	strb	r3, [r4, #16]
    instance->auth_ctx.skip_auth = true;
    2042:	2301      	movs	r3, #1
    2044:	f884 302e 	strb.w	r3, [r4, #46]	@ 0x2e
    instance->auth_ctx.key_size = 0;
    2048:	2300      	movs	r3, #0
    204a:	f884 302d 	strb.w	r3, [r4, #45]	@ 0x2d
    instance->timeout = NFC_CLI_DUMP_DEFAULT_TIMEOUT;
    204e:	f241 3388 	movw	r3, #5000	@ 0x1388
    2052:	6163      	str	r3, [r4, #20]
    instance->mfc_key_cache = mf_classic_key_cache_alloc();
    2054:	4b0c      	ldr	r3, [pc, #48]	@ (2088 <sukima614+0x1e>)
    2056:	4798      	blx	r3
    2058:	6320      	str	r0, [r4, #48]	@ 0x30
    instance->scanner = nfc_cli_scanner_alloc(nfc);
    205a:	4628      	mov	r0, r5
    205c:	4b0b      	ldr	r3, [pc, #44]	@ (208c <sukima614+0x22>)
    205e:	4798      	blx	r3
    2060:	60e0      	str	r0, [r4, #12]
}
    2062:	4620      	mov	r0, r4
    2064:	bd38      	pop	{r3, r4, r5, pc}
    furi_assert(nfc);
    2066:	f04f 0c01 	mov.w	ip, #1

0000206a <sukima614>:
    206a:	4b09      	ldr	r3, [pc, #36]	@ (2090 <sukima614+0x26>)
    206c:	4798      	blx	r3
    206e:	bf00      	nop
	...
    2078:	00000ff8 	.word	0x00000ff8
	...

00002094 <nfc_cli_dump_generate_filename>:
static void nfc_cli_dump_generate_filename(FuriString* file_path) {
    2094:	b570      	push	{r4, r5, r6, lr}
    2096:	b08a      	sub	sp, #40	@ 0x28
    2098:	4604      	mov	r4, r0
    furi_string_set_str(file_path, NFC_DEFAULT_FOLDER);
    209a:	4910      	ldr	r1, [pc, #64]	@ (20dc <nfc_cli_dump_generate_filename+0x48>)
    209c:	4b10      	ldr	r3, [pc, #64]	@ (20e0 <nfc_cli_dump_generate_filename+0x4c>)
    209e:	4798      	blx	r3
    furi_hal_rtc_get_datetime(&dt);
    20a0:	a807      	add	r0, sp, #28
    20a2:	4b10      	ldr	r3, [pc, #64]	@ (20e4 <nfc_cli_dump_generate_filename+0x50>)
    20a4:	4798      	blx	r3
        dt.month,
    20a6:	f89d 3020 	ldrb.w	r3, [sp, #32]
        dt.day,
    20aa:	f89d 201f 	ldrb.w	r2, [sp, #31]
        dt.hour,
    20ae:	f89d 101c 	ldrb.w	r1, [sp, #28]
        dt.minute,
    20b2:	f89d 001d 	ldrb.w	r0, [sp, #29]
        dt.second,
    20b6:	f89d 501e 	ldrb.w	r5, [sp, #30]
    furi_string_cat_printf(
    20ba:	4e0b      	ldr	r6, [pc, #44]	@ (20e8 <nfc_cli_dump_generate_filename+0x54>)
    20bc:	9605      	str	r6, [sp, #20]
    20be:	9504      	str	r5, [sp, #16]
    20c0:	9003      	str	r0, [sp, #12]
    20c2:	9102      	str	r1, [sp, #8]
    20c4:	9201      	str	r2, [sp, #4]
    20c6:	9300      	str	r3, [sp, #0]
    20c8:	f8bd 3022 	ldrh.w	r3, [sp, #34]	@ 0x22
    20cc:	4a07      	ldr	r2, [pc, #28]	@ (20ec <nfc_cli_dump_generate_filename+0x58>)
    20ce:	4908      	ldr	r1, [pc, #32]	@ (20f0 <nfc_cli_dump_generate_filename+0x5c>)
    20d0:	4620      	mov	r0, r4
    20d2:	4c08      	ldr	r4, [pc, #32]	@ (20f4 <nfc_cli_dump_generate_filename+0x60>)
    20d4:	47a0      	blx	r4
}
    20d6:	b00a      	add	sp, #40	@ 0x28
    20d8:	bd70      	pop	{r4, r5, r6, pc}
    20da:	bf00      	nop
    20dc:	00001000 	.word	0x00001000
	...
    20e8:	00001034 	.word	0x00001034
    20ec:	0000100c 	.word	0x0000100c
    20f0:	00001014 	.word	0x00001014
    20f4:	00000000 	.word	0x00000000

000020f8 <nfc_cli_dump_check_filepath_valid>:
static bool nfc_cli_dump_check_filepath_valid(FuriString* file_path, Storage* storage) {
    20f8:	e92d 41f0 	stmdb	sp!, {r4, r5, r6, r7, r8, lr}
    20fc:	4606      	mov	r6, r0
    20fe:	460f      	mov	r7, r1
    FuriString* buf = furi_string_alloc();
    2100:	4b17      	ldr	r3, [pc, #92]	@ (2160 <nfc_cli_dump_check_filepath_valid+0x68>)
    2102:	4798      	blx	r3
    2104:	4604      	mov	r4, r0
    path_extract_dirname(furi_string_get_cstr(file_path), buf);
    2106:	4630      	mov	r0, r6
    2108:	f8df 8070 	ldr.w	r8, [pc, #112]	@ 217c <nfc_cli_dump_check_filepath_valid+0x84>
    210c:	47c0      	blx	r8
    210e:	4621      	mov	r1, r4
    2110:	4b14      	ldr	r3, [pc, #80]	@ (2164 <nfc_cli_dump_check_filepath_valid+0x6c>)
    2112:	4798      	blx	r3
    dir_exists = storage_dir_exists(storage, furi_string_get_cstr(buf));
    2114:	4620      	mov	r0, r4
    2116:	47c0      	blx	r8
    2118:	4601      	mov	r1, r0
    211a:	4638      	mov	r0, r7
    211c:	4b12      	ldr	r3, [pc, #72]	@ (2168 <nfc_cli_dump_check_filepath_valid+0x70>)
    211e:	4798      	blx	r3
    2120:	4605      	mov	r5, r0
    file_exists = storage_file_exists(storage, furi_string_get_cstr(file_path));
    2122:	4630      	mov	r0, r6
    2124:	47c0      	blx	r8
    2126:	4601      	mov	r1, r0
    2128:	4638      	mov	r0, r7
    212a:	4b10      	ldr	r3, [pc, #64]	@ (216c <nfc_cli_dump_check_filepath_valid+0x74>)
    212c:	4798      	blx	r3
    if(!dir_exists) {
    212e:	b135      	cbz	r5, 213e <nfc_cli_dump_check_filepath_valid+0x46>
    } else if(file_exists) {
    2130:	b960      	cbnz	r0, 214c <nfc_cli_dump_check_filepath_valid+0x54>
    furi_string_free(buf);
    2132:	4620      	mov	r0, r4
    2134:	4b0e      	ldr	r3, [pc, #56]	@ (2170 <nfc_cli_dump_check_filepath_valid+0x78>)
    2136:	4798      	blx	r3
}
    2138:	4628      	mov	r0, r5
    213a:	e8bd 81f0 	ldmia.w	sp!, {r4, r5, r6, r7, r8, pc}
        printf(ANSI_FG_RED "Path \'%s\' doesn't exist\r\n" ANSI_RESET, furi_string_get_cstr(buf));
    213e:	4620      	mov	r0, r4
    2140:	47c0      	blx	r8
    2142:	4601      	mov	r1, r0
    2144:	480b      	ldr	r0, [pc, #44]	@ (2174 <nfc_cli_dump_check_filepath_valid+0x7c>)
    2146:	4b0c      	ldr	r3, [pc, #48]	@ (2178 <nfc_cli_dump_check_filepath_valid+0x80>)
    2148:	4798      	blx	r3
        result = false;
    214a:	e7f2      	b.n	2132 <nfc_cli_dump_check_filepath_valid+0x3a>
        printf(
    214c:	4630      	mov	r0, r6
    214e:	4b0b      	ldr	r3, [pc, #44]	@ (217c <nfc_cli_dump_check_filepath_valid+0x84>)
    2150:	4798      	blx	r3
    2152:	4601      	mov	r1, r0
    2154:	480a      	ldr	r0, [pc, #40]	@ (2180 <nfc_cli_dump_check_filepath_valid+0x88>)
    2156:	4b08      	ldr	r3, [pc, #32]	@ (2178 <nfc_cli_dump_check_filepath_valid+0x80>)
    2158:	4798      	blx	r3
        result = false;
    215a:	2500      	movs	r5, #0
    215c:	e7e9      	b.n	2132 <nfc_cli_dump_check_filepath_valid+0x3a>
    215e:	bf00      	nop
	...
    2174:	0000103c 	.word	0x0000103c
	...
    2180:	00001060 	.word	0x00001060

00002184 <nfc_cli_dump_process_filename>:
static bool nfc_cli_dump_process_filename(NfcCliDumpContext* instance) {
    2184:	b538      	push	{r3, r4, r5, lr}
    2186:	4604      	mov	r4, r0
    if(furi_string_empty(instance->file_path)) {
    2188:	6840      	ldr	r0, [r0, #4]
    218a:	4b07      	ldr	r3, [pc, #28]	@ (21a8 <nfc_cli_dump_process_filename+0x24>)
    218c:	4798      	blx	r3
    218e:	b128      	cbz	r0, 219c <nfc_cli_dump_process_filename+0x18>
    2190:	4605      	mov	r5, r0
        nfc_cli_dump_generate_filename(instance->file_path);
    2192:	6860      	ldr	r0, [r4, #4]
    2194:	4b05      	ldr	r3, [pc, #20]	@ (21ac <nfc_cli_dump_process_filename+0x28>)
    2196:	4798      	blx	r3
}
    2198:	4628      	mov	r0, r5
    219a:	bd38      	pop	{r3, r4, r5, pc}
        result = nfc_cli_dump_check_filepath_valid(instance->file_path, instance->storage);
    219c:	68a1      	ldr	r1, [r4, #8]
    219e:	6860      	ldr	r0, [r4, #4]
    21a0:	4b03      	ldr	r3, [pc, #12]	@ (21b0 <nfc_cli_dump_process_filename+0x2c>)
    21a2:	4798      	blx	r3
    21a4:	4605      	mov	r5, r0
    21a6:	e7f7      	b.n	2198 <nfc_cli_dump_process_filename+0x14>
	...

000021b4 <nfc_cli_dump_set_protocol>:
static size_t nfc_cli_dump_set_protocol(NfcCliDumpContext* instance) {
    21b4:	b538      	push	{r3, r4, r5, lr}
    if(instance->desired_protocol != NfcProtocolInvalid) {
    21b6:	7c03      	ldrb	r3, [r0, #16]
    21b8:	2b0d      	cmp	r3, #13
    21ba:	d002      	beq.n	21c2 <nfc_cli_dump_set_protocol+0xe>
        protocol_count = 1;
    21bc:	2501      	movs	r5, #1
}
    21be:	4628      	mov	r0, r5
    21c0:	bd38      	pop	{r3, r4, r5, pc}
    21c2:	4604      	mov	r4, r0
        if(!nfc_cli_scanner_detect_protocol(instance->scanner, instance->timeout)) {
    21c4:	6941      	ldr	r1, [r0, #20]
    21c6:	68c0      	ldr	r0, [r0, #12]
    21c8:	4b0a      	ldr	r3, [pc, #40]	@ (21f4 <nfc_cli_dump_set_protocol+0x40>)
    21ca:	4798      	blx	r3
    21cc:	b928      	cbnz	r0, 21da <nfc_cli_dump_set_protocol+0x26>
            printf(ANSI_FG_RED "Error: %s\r\n" ANSI_RESET, nfc_cli_dump_error_names[error]);
    21ce:	490a      	ldr	r1, [pc, #40]	@ (21f8 <nfc_cli_dump_set_protocol+0x44>)
    21d0:	480a      	ldr	r0, [pc, #40]	@ (21fc <nfc_cli_dump_set_protocol+0x48>)
    21d2:	4b0b      	ldr	r3, [pc, #44]	@ (2200 <nfc_cli_dump_set_protocol+0x4c>)
    21d4:	4798      	blx	r3
    size_t protocol_count = 0;
    21d6:	2500      	movs	r5, #0
    21d8:	e7f1      	b.n	21be <nfc_cli_dump_set_protocol+0xa>
            nfc_cli_scanner_list_detected_protocols(instance->scanner);
    21da:	68e0      	ldr	r0, [r4, #12]
    21dc:	4b09      	ldr	r3, [pc, #36]	@ (2204 <nfc_cli_dump_set_protocol+0x50>)
    21de:	4798      	blx	r3
            protocol_count = nfc_cli_scanner_detected_protocol_num(instance->scanner);
    21e0:	68e0      	ldr	r0, [r4, #12]
    21e2:	4b09      	ldr	r3, [pc, #36]	@ (2208 <nfc_cli_dump_set_protocol+0x54>)
    21e4:	4798      	blx	r3
    21e6:	4605      	mov	r5, r0
            instance->desired_protocol = nfc_cli_scanner_get_protocol(instance->scanner, 0);
    21e8:	2100      	movs	r1, #0
    21ea:	68e0      	ldr	r0, [r4, #12]
    21ec:	4b07      	ldr	r3, [pc, #28]	@ (220c <nfc_cli_dump_set_protocol+0x58>)
    21ee:	4798      	blx	r3
    21f0:	7420      	strb	r0, [r4, #16]
    21f2:	e7e4      	b.n	21be <nfc_cli_dump_set_protocol+0xa>
    21f4:	00000000 	.word	0x00000000
    21f8:	00001084 	.word	0x00001084
    21fc:	0000108c 	.word	0x0000108c
	...

00002210 <nfc_cli_dump_card>:
static bool nfc_cli_dump_card(NfcCliDumpContext* instance) {
    2210:	b510      	push	{r4, lr}
    2212:	4604      	mov	r4, r0
    instance->poller = nfc_poller_alloc(instance->nfc, instance->desired_protocol);
    2214:	7c01      	ldrb	r1, [r0, #16]
    2216:	6800      	ldr	r0, [r0, #0]
    2218:	4b0f      	ldr	r3, [pc, #60]	@ (2258 <nfc_cli_dump_card+0x48>)
    221a:	4798      	blx	r3
    221c:	6360      	str	r0, [r4, #52]	@ 0x34
    NfcGenericCallback callback = protocol_poller_callbacks[instance->desired_protocol];
    221e:	7c22      	ldrb	r2, [r4, #16]
    2220:	4b0e      	ldr	r3, [pc, #56]	@ (225c <nfc_cli_dump_card+0x4c>)
    2222:	f853 1022 	ldr.w	r1, [r3, r2, lsl #2]
    if(callback) {
    2226:	b161      	cbz	r1, 2242 <nfc_cli_dump_card+0x32>
        nfc_poller_start(instance->poller, callback, instance);
    2228:	4622      	mov	r2, r4
    222a:	4b0d      	ldr	r3, [pc, #52]	@ (2260 <nfc_cli_dump_card+0x50>)
    222c:	4798      	blx	r3
        FuriStatus status = furi_semaphore_acquire(instance->sem_done, instance->timeout);
    222e:	6961      	ldr	r1, [r4, #20]
    2230:	69a0      	ldr	r0, [r4, #24]
    2232:	4b0c      	ldr	r3, [pc, #48]	@ (2264 <nfc_cli_dump_card+0x54>)
    2234:	4798      	blx	r3
        if(status == FuriStatusErrorTimeout) instance->result = NfcCliDumpErrorTimeout;
    2236:	f110 0f02 	cmn.w	r0, #2
    223a:	d00a      	beq.n	2252 <nfc_cli_dump_card+0x42>
        nfc_poller_stop(instance->poller);
    223c:	6b60      	ldr	r0, [r4, #52]	@ 0x34
    223e:	4b0a      	ldr	r3, [pc, #40]	@ (2268 <nfc_cli_dump_card+0x58>)
    2240:	4798      	blx	r3
    nfc_poller_free(instance->poller);
    2242:	6b60      	ldr	r0, [r4, #52]	@ 0x34
    2244:	4b09      	ldr	r3, [pc, #36]	@ (226c <nfc_cli_dump_card+0x5c>)
    2246:	4798      	blx	r3
    return instance->result == NfcCliDumpErrorNone;
    2248:	7f20      	ldrb	r0, [r4, #28]
}
    224a:	fab0 f080 	clz	r0, r0
    224e:	0940      	lsrs	r0, r0, #5
    2250:	bd10      	pop	{r4, pc}
        if(status == FuriStatusErrorTimeout) instance->result = NfcCliDumpErrorTimeout;
    2252:	2301      	movs	r3, #1
    2254:	7723      	strb	r3, [r4, #28]
    2256:	e7f1      	b.n	223c <nfc_cli_dump_card+0x2c>
	...

00002270 <nfc_cli_dump_execute>:
static void nfc_cli_dump_execute(PipeSide* pipe, NfcCliActionContext* context) {
    2270:	b538      	push	{r3, r4, r5, lr}
    furi_assert(context);
    2272:	b129      	cbz	r1, 2280 <nfc_cli_dump_execute+0x10>
    2274:	460c      	mov	r4, r1
        if(!nfc_cli_dump_process_filename(instance)) break;
    2276:	4608      	mov	r0, r1
    2278:	4b1a      	ldr	r3, [pc, #104]	@ (22e4 <sukima1168+0x60>)
    227a:	4798      	blx	r3
    227c:	b920      	cbnz	r0, 2288 <sukima1168+0x4>
}
    227e:	bd38      	pop	{r3, r4, r5, pc}
    furi_assert(context);
    2280:	f04f 0c01 	mov.w	ip, #1

00002284 <sukima1168>:
    2284:	4b18      	ldr	r3, [pc, #96]	@ (22e8 <sukima1168+0x64>)
    2286:	4798      	blx	r3
        size_t protocol_count = nfc_cli_dump_set_protocol(instance);
    2288:	4620      	mov	r0, r4
    228a:	4b18      	ldr	r3, [pc, #96]	@ (22ec <sukima1168+0x68>)
    228c:	4798      	blx	r3
    228e:	4605      	mov	r5, r0
        if(instance->desired_protocol == NfcProtocolInvalid) break;
    2290:	7c20      	ldrb	r0, [r4, #16]
    2292:	280d      	cmp	r0, #13
    2294:	d0f3      	beq.n	227e <nfc_cli_dump_execute+0xe>
        printf("Dumping as \"%s\"\r\n", nfc_cli_get_protocol_name(instance->desired_protocol));
    2296:	4b16      	ldr	r3, [pc, #88]	@ (22f0 <sukima1168+0x6c>)
    2298:	4798      	blx	r3
    229a:	4601      	mov	r1, r0
    229c:	4815      	ldr	r0, [pc, #84]	@ (22f4 <sukima1168+0x70>)
    229e:	4b16      	ldr	r3, [pc, #88]	@ (22f8 <sukima1168+0x74>)
    22a0:	4798      	blx	r3
        if(protocol_count > 1) printf("Use \'-p\' key to specify another protocol\r\n");
    22a2:	2d01      	cmp	r5, #1
    22a4:	d812      	bhi.n	22cc <sukima1168+0x48>
        if(nfc_cli_dump_card(instance)) {
    22a6:	4620      	mov	r0, r4
    22a8:	4b14      	ldr	r3, [pc, #80]	@ (22fc <sukima1168+0x78>)
    22aa:	4798      	blx	r3
    22ac:	b190      	cbz	r0, 22d4 <sukima1168+0x50>
            const char* path = furi_string_get_cstr(instance->file_path);
    22ae:	6860      	ldr	r0, [r4, #4]
    22b0:	4b13      	ldr	r3, [pc, #76]	@ (2300 <sukima1168+0x7c>)
    22b2:	4798      	blx	r3
    22b4:	4605      	mov	r5, r0
            if(nfc_device_save(instance->nfc_device, path)) {
    22b6:	4601      	mov	r1, r0
    22b8:	6ba0      	ldr	r0, [r4, #56]	@ 0x38
    22ba:	4b12      	ldr	r3, [pc, #72]	@ (2304 <sukima1168+0x80>)
    22bc:	4798      	blx	r3
    22be:	2800      	cmp	r0, #0
    22c0:	d0dd      	beq.n	227e <nfc_cli_dump_execute+0xe>
                printf("Dump saved to \'%s\'\r\n", path);
    22c2:	4629      	mov	r1, r5
    22c4:	4810      	ldr	r0, [pc, #64]	@ (2308 <sukima1168+0x84>)
    22c6:	4b0c      	ldr	r3, [pc, #48]	@ (22f8 <sukima1168+0x74>)
    22c8:	4798      	blx	r3
    22ca:	e7d8      	b.n	227e <nfc_cli_dump_execute+0xe>
        if(protocol_count > 1) printf("Use \'-p\' key to specify another protocol\r\n");
    22cc:	480f      	ldr	r0, [pc, #60]	@ (230c <sukima1168+0x88>)
    22ce:	4b10      	ldr	r3, [pc, #64]	@ (2310 <sukima1168+0x8c>)
    22d0:	4798      	blx	r3
    22d2:	e7e8      	b.n	22a6 <sukima1168+0x22>
                nfc_cli_dump_error_names[instance->result]);
    22d4:	7f22      	ldrb	r2, [r4, #28]
            printf(
    22d6:	4b0f      	ldr	r3, [pc, #60]	@ (2314 <sukima1168+0x90>)
    22d8:	f853 1022 	ldr.w	r1, [r3, r2, lsl #2]
    22dc:	480e      	ldr	r0, [pc, #56]	@ (2318 <sukima1168+0x94>)
    22de:	4b06      	ldr	r3, [pc, #24]	@ (22f8 <sukima1168+0x74>)
    22e0:	4798      	blx	r3
}
    22e2:	e7cc      	b.n	227e <nfc_cli_dump_execute+0xe>
	...
    22f4:	000010a4 	.word	0x000010a4
	...
    2308:	000010e4 	.word	0x000010e4
    230c:	000010b8 	.word	0x000010b8
    2310:	00000000 	.word	0x00000000
    2314:	00001328 	.word	0x00001328
    2318:	0000108c 	.word	0x0000108c

0000231c <nfc_cli_command_dump_callback>:
};

const NfcCliActionDescriptor* dump_actions_collection[] = {&dump_action};

//Command descriptor
ADD_NFC_CLI_COMMAND(dump, "", dump_actions_collection);
    231c:	b510      	push	{r4, lr}
    231e:	4613      	mov	r3, r2
    2320:	460a      	mov	r2, r1
    2322:	4601      	mov	r1, r0
    2324:	4801      	ldr	r0, [pc, #4]	@ (232c <nfc_cli_command_dump_callback+0x10>)
    2326:	4c02      	ldr	r4, [pc, #8]	@ (2330 <nfc_cli_command_dump_callback+0x14>)
    2328:	47a0      	blx	r4
    232a:	bd10      	pop	{r4, pc}
	...

00002334 <nfc_cli_mfu_wrbl_alloc_ctx>:
    Nfc* nfc;
    uint16_t block;
    MfUltralightPage page;
} NfcCliMfuWrblContext;

NfcCliActionContext* nfc_cli_mfu_wrbl_alloc_ctx(Nfc* nfc) {
    2334:	b510      	push	{r4, lr}
    furi_assert(nfc);
    2336:	b128      	cbz	r0, 2344 <nfc_cli_mfu_wrbl_alloc_ctx+0x10>
    2338:	4604      	mov	r4, r0
    NfcCliMfuWrblContext* instance = malloc(sizeof(NfcCliMfuWrblContext));
    233a:	200c      	movs	r0, #12
    233c:	4b03      	ldr	r3, [pc, #12]	@ (234c <sukima42+0x4>)
    233e:	4798      	blx	r3
    instance->nfc = nfc;
    2340:	6004      	str	r4, [r0, #0]
    return instance;
}
    2342:	bd10      	pop	{r4, pc}
    furi_assert(nfc);
    2344:	f04f 0c01 	mov.w	ip, #1

00002348 <sukima42>:
    2348:	4b01      	ldr	r3, [pc, #4]	@ (2350 <sukima42+0x8>)
    234a:	4798      	blx	r3
	...

00002354 <nfc_cli_mfu_wrbl_free_ctx>:

void nfc_cli_mfu_wrbl_free_ctx(NfcCliActionContext* ctx) {
    2354:	b508      	push	{r3, lr}
    furi_assert(ctx);
    2356:	b110      	cbz	r0, 235e <nfc_cli_mfu_wrbl_free_ctx+0xa>
    NfcCliMfuWrblContext* instance = ctx;
    free(instance);
    2358:	4b03      	ldr	r3, [pc, #12]	@ (2368 <sukima92+0x6>)
    235a:	4798      	blx	r3
}
    235c:	bd08      	pop	{r3, pc}
    furi_assert(ctx);
    235e:	f04f 0c01 	mov.w	ip, #1

00002362 <sukima92>:
    2362:	4b02      	ldr	r3, [pc, #8]	@ (236c <sukima92+0xa>)
    2364:	4798      	blx	r3
    2366:	bf00      	nop
	...

00002370 <nfc_cli_mfu_wrbl_execute>:

void nfc_cli_mfu_wrbl_execute(PipeSide* pipe, NfcCliActionContext* ctx) {
    2370:	b538      	push	{r3, r4, r5, lr}
    furi_assert(pipe);
    2372:	b1a8      	cbz	r0, 23a0 <nfc_cli_mfu_wrbl_execute+0x30>
    2374:	460c      	mov	r4, r1

    NfcCliMfuWrblContext* instance = ctx;

    MfUltralightError error =
        mf_ultralight_poller_sync_write_page(instance->nfc, instance->block, &instance->page);
    2376:	1d8a      	adds	r2, r1, #6
    2378:	8889      	ldrh	r1, [r1, #4]
    237a:	6820      	ldr	r0, [r4, #0]
    237c:	4b0e      	ldr	r3, [pc, #56]	@ (23b8 <sukima190+0x14>)
    237e:	4798      	blx	r3

    if(error == MfUltralightErrorNone) {
    2380:	b990      	cbnz	r0, 23a8 <sukima190+0x4>
        printf(ANSI_FG_BR_GREEN "\r\nSuccess\r\n" ANSI_RESET);
    2382:	480e      	ldr	r0, [pc, #56]	@ (23bc <sukima190+0x18>)
    2384:	4d0e      	ldr	r5, [pc, #56]	@ (23c0 <sukima190+0x1c>)
    2386:	47a8      	blx	r5
        printf("Block: %d ", instance->block);
    2388:	88a1      	ldrh	r1, [r4, #4]
    238a:	480e      	ldr	r0, [pc, #56]	@ (23c4 <sukima190+0x20>)
    238c:	47a8      	blx	r5
        nfc_cli_printf_array(instance->page.data, sizeof(MfUltralightPage), "Data: ");
    238e:	4a0e      	ldr	r2, [pc, #56]	@ (23c8 <sukima190+0x24>)
    2390:	2104      	movs	r1, #4
    2392:	1da0      	adds	r0, r4, #6
    2394:	4b0d      	ldr	r3, [pc, #52]	@ (23cc <sukima190+0x28>)
    2396:	4798      	blx	r3
        printf("\r\n");
    2398:	480d      	ldr	r0, [pc, #52]	@ (23d0 <sukima190+0x2c>)
    239a:	4b0e      	ldr	r3, [pc, #56]	@ (23d4 <sukima190+0x30>)
    239c:	4798      	blx	r3
    } else {
        printf(ANSI_FG_RED "Error: %s" ANSI_RESET, nfc_cli_mf_ultralight_get_error(error));
    }
}
    239e:	bd38      	pop	{r3, r4, r5, pc}
    furi_assert(pipe);
    23a0:	f04f 0c01 	mov.w	ip, #1

000023a4 <sukima190>:
    23a4:	4b0c      	ldr	r3, [pc, #48]	@ (23d8 <sukima190+0x34>)
    23a6:	4798      	blx	r3
        printf(ANSI_FG_RED "Error: %s" ANSI_RESET, nfc_cli_mf_ultralight_get_error(error));
    23a8:	4b0c      	ldr	r3, [pc, #48]	@ (23dc <sukima190+0x38>)
    23aa:	4798      	blx	r3
    23ac:	4601      	mov	r1, r0
    23ae:	480c      	ldr	r0, [pc, #48]	@ (23e0 <sukima190+0x3c>)
    23b0:	4b03      	ldr	r3, [pc, #12]	@ (23c0 <sukima190+0x1c>)
    23b2:	4798      	blx	r3
}
    23b4:	e7f3      	b.n	239e <nfc_cli_mfu_wrbl_execute+0x2e>
    23b6:	bf00      	nop
    23b8:	00000000 	.word	0x00000000
    23bc:	0000133c 	.word	0x0000133c
    23c0:	00000000 	.word	0x00000000
    23c4:	00001354 	.word	0x00001354
    23c8:	00001360 	.word	0x00001360
    23cc:	00000000 	.word	0x00000000
    23d0:	00001368 	.word	0x00001368
	...
    23e0:	0000136c 	.word	0x0000136c

000023e4 <nfc_cli_mfu_wrbl_parse_block>:

bool nfc_cli_mfu_wrbl_parse_block(FuriString* value, NfcCliActionContext* output) {
    23e4:	b510      	push	{r4, lr}
    23e6:	460c      	mov	r4, r1
    NfcCliMfuWrblContext* ctx = output;

    StrintParseError err = strint_to_uint16(furi_string_get_cstr(value), NULL, &ctx->block, 10);
    23e8:	4b05      	ldr	r3, [pc, #20]	@ (2400 <nfc_cli_mfu_wrbl_parse_block+0x1c>)
    23ea:	4798      	blx	r3
    23ec:	230a      	movs	r3, #10
    23ee:	1d22      	adds	r2, r4, #4
    23f0:	2100      	movs	r1, #0
    23f2:	4c04      	ldr	r4, [pc, #16]	@ (2404 <nfc_cli_mfu_wrbl_parse_block+0x20>)
    23f4:	47a0      	blx	r4
    return err == StrintParseNoError;
}
    23f6:	fab0 f080 	clz	r0, r0
    23fa:	0940      	lsrs	r0, r0, #5
    23fc:	bd10      	pop	{r4, pc}
    23fe:	bf00      	nop
	...

00002408 <nfc_cli_mfu_wrbl_parse_data>:

bool nfc_cli_mfu_wrbl_parse_data(FuriString* value, void* output) {
    2408:	b538      	push	{r3, r4, r5, lr}
    240a:	4604      	mov	r4, r0
    240c:	460d      	mov	r5, r1
    NfcCliMfuWrblContext* ctx = output;

    bool result = false;
    do {
        size_t len = furi_string_size(value);
    240e:	4b08      	ldr	r3, [pc, #32]	@ (2430 <nfc_cli_mfu_wrbl_parse_data+0x28>)
    2410:	4798      	blx	r3
        if(len % 2 != 0) break;
    2412:	f010 0f01 	tst.w	r0, #1
    2416:	d109      	bne.n	242c <nfc_cli_mfu_wrbl_parse_data+0x24>

        size_t data_length = len / 2;
    2418:	0842      	lsrs	r2, r0, #1
        if(data_length != MF_ULTRALIGHT_PAGE_SIZE) break;
    241a:	2a04      	cmp	r2, #4
    241c:	d001      	beq.n	2422 <nfc_cli_mfu_wrbl_parse_data+0x1a>
    bool result = false;
    241e:	2000      	movs	r0, #0
    2420:	e005      	b.n	242e <nfc_cli_mfu_wrbl_parse_data+0x26>

        result = args_read_hex_bytes(value, ctx->page.data, data_length);
    2422:	1da9      	adds	r1, r5, #6
    2424:	4620      	mov	r0, r4
    2426:	4b03      	ldr	r3, [pc, #12]	@ (2434 <nfc_cli_mfu_wrbl_parse_data+0x2c>)
    2428:	4798      	blx	r3
    242a:	e000      	b.n	242e <nfc_cli_mfu_wrbl_parse_data+0x26>
    bool result = false;
    242c:	2000      	movs	r0, #0
    } while(false);

    return result;
}
    242e:	bd38      	pop	{r3, r4, r5, pc}
	...

00002438 <nfc_cli_dump_poller_callback_mf_ultralight>:
#include "nfc_cli_dump_mf_ultralight.h"
#include <nfc/protocols/mf_ultralight/mf_ultralight_poller.h>

#define TAG "MFU"

NfcCommand nfc_cli_dump_poller_callback_mf_ultralight(NfcGenericEvent event, void* context) {
    2438:	b570      	push	{r4, r5, r6, lr}
    243a:	b084      	sub	sp, #16
    243c:	ac04      	add	r4, sp, #16
    243e:	e904 0007 	stmdb	r4, {r0, r1, r2}
    2442:	461c      	mov	r4, r3
    furi_assert(event.protocol == NfcProtocolMfUltralight);
    2444:	f89d 3004 	ldrb.w	r3, [sp, #4]
    2448:	2b06      	cmp	r3, #6
    244a:	d10c      	bne.n	2466 <nfc_cli_dump_poller_callback_mf_ultralight+0x2e>
    NfcCliDumpContext* instance = context;
    const MfUltralightPollerEvent* mf_ultralight_event = event.event_data;
    244c:	9d03      	ldr	r5, [sp, #12]
    NfcCommand command = NfcCommandContinue;

    if(mf_ultralight_event->type == MfUltralightPollerEventTypeReadSuccess) {
    244e:	782b      	ldrb	r3, [r5, #0]
    2450:	2b04      	cmp	r3, #4
    2452:	d00c      	beq.n	246e <sukima80+0x4>
        nfc_device_set_data(
            instance->nfc_device, NfcProtocolMfUltralight, nfc_poller_get_data(instance->poller));

        instance->result = NfcCliDumpErrorNone;
        command = NfcCommandStop;
    } else if(mf_ultralight_event->type == MfUltralightPollerEventTypeAuthRequest) {
    2454:	2b01      	cmp	r3, #1
    2456:	d016      	beq.n	2486 <sukima80+0x1c>

        const NfcCliDumpAuthContext* auth_ctx = &instance->auth_ctx;
        mf_ultralight_event->data->auth_context.skip_auth = auth_ctx->skip_auth;
        mf_ultralight_event->data->auth_context.password = auth_ctx->key.password;
        mf_ultralight_event->data->auth_context.tdes_key = auth_ctx->key.tdes_key;
    } else if(mf_ultralight_event->type == MfUltralightPollerEventTypeAuthFailed) {
    2458:	2b03      	cmp	r3, #3
    245a:	d032      	beq.n	24c2 <sukima80+0x58>
        instance->result = NfcCliDumpErrorAuthFailed;
        command = NfcCommandStop;
    } else if(mf_ultralight_event->type == MfUltralightPollerEventTypeReadFailed) {
    245c:	2b05      	cmp	r3, #5
    245e:	d037      	beq.n	24d0 <sukima80+0x66>
    NfcCommand command = NfcCommandContinue;
    2460:	2000      	movs	r0, #0
    if(command == NfcCommandStop) {
        furi_semaphore_release(instance->sem_done);
    }

    return command;
}
    2462:	b004      	add	sp, #16
    2464:	bd70      	pop	{r4, r5, r6, pc}
    furi_assert(event.protocol == NfcProtocolMfUltralight);
    2466:	f04f 0c01 	mov.w	ip, #1

0000246a <sukima80>:
    246a:	4b1b      	ldr	r3, [pc, #108]	@ (24d8 <sukima80+0x6e>)
    246c:	4798      	blx	r3
        nfc_device_set_data(
    246e:	6ba5      	ldr	r5, [r4, #56]	@ 0x38
    2470:	6b60      	ldr	r0, [r4, #52]	@ 0x34
    2472:	4b1a      	ldr	r3, [pc, #104]	@ (24dc <sukima80+0x72>)
    2474:	4798      	blx	r3
    2476:	4602      	mov	r2, r0
    2478:	2106      	movs	r1, #6
    247a:	4628      	mov	r0, r5
    247c:	4b18      	ldr	r3, [pc, #96]	@ (24e0 <sukima80+0x76>)
    247e:	4798      	blx	r3
        instance->result = NfcCliDumpErrorNone;
    2480:	2300      	movs	r3, #0
    2482:	7723      	strb	r3, [r4, #28]
    if(command == NfcCommandStop) {
    2484:	e01f      	b.n	24c6 <sukima80+0x5c>
        nfc_device_set_data(
    2486:	6ba6      	ldr	r6, [r4, #56]	@ 0x38
    2488:	6b60      	ldr	r0, [r4, #52]	@ 0x34
    248a:	4b14      	ldr	r3, [pc, #80]	@ (24dc <sukima80+0x72>)
    248c:	4798      	blx	r3
    248e:	4602      	mov	r2, r0
    2490:	2106      	movs	r1, #6
    2492:	4630      	mov	r0, r6
    2494:	4b12      	ldr	r3, [pc, #72]	@ (24e0 <sukima80+0x76>)
    2496:	4798      	blx	r3
        mf_ultralight_event->data->auth_context.skip_auth = auth_ctx->skip_auth;
    2498:	686b      	ldr	r3, [r5, #4]
    249a:	f894 202e 	ldrb.w	r2, [r4, #46]	@ 0x2e
    249e:	75da      	strb	r2, [r3, #23]
        mf_ultralight_event->data->auth_context.password = auth_ctx->key.password;
    24a0:	686b      	ldr	r3, [r5, #4]
    24a2:	f8d4 001d 	ldr.w	r0, [r4, #29]
    24a6:	6018      	str	r0, [r3, #0]
        mf_ultralight_event->data->auth_context.tdes_key = auth_ctx->key.tdes_key;
    24a8:	686d      	ldr	r5, [r5, #4]
    24aa:	3504      	adds	r5, #4
    24ac:	f8d4 001d 	ldr.w	r0, [r4, #29]
    24b0:	f8d4 1021 	ldr.w	r1, [r4, #33]	@ 0x21
    24b4:	f8d4 2025 	ldr.w	r2, [r4, #37]	@ 0x25
    24b8:	f8d4 3029 	ldr.w	r3, [r4, #41]	@ 0x29
    24bc:	c50f      	stmia	r5!, {r0, r1, r2, r3}
    NfcCommand command = NfcCommandContinue;
    24be:	2000      	movs	r0, #0
    24c0:	e7cf      	b.n	2462 <nfc_cli_dump_poller_callback_mf_ultralight+0x2a>
        instance->result = NfcCliDumpErrorAuthFailed;
    24c2:	2304      	movs	r3, #4
    24c4:	7723      	strb	r3, [r4, #28]
        furi_semaphore_release(instance->sem_done);
    24c6:	69a0      	ldr	r0, [r4, #24]
    24c8:	4b06      	ldr	r3, [pc, #24]	@ (24e4 <sukima80+0x7a>)
    24ca:	4798      	blx	r3
    24cc:	2002      	movs	r0, #2
    24ce:	e7c8      	b.n	2462 <nfc_cli_dump_poller_callback_mf_ultralight+0x2a>
        instance->result = NfcCliDumpErrorAuthFailed;
    24d0:	2304      	movs	r3, #4
    24d2:	7723      	strb	r3, [r4, #28]
    if(command == NfcCommandStop) {
    24d4:	e7f7      	b.n	24c6 <sukima80+0x5c>
    24d6:	bf00      	nop
	...

000024e8 <nfc_cli_raw_parse_select>:
}

static bool nfc_cli_raw_parse_select(FuriString* value, void* output) {
    UNUSED(value);
    NfcCliRawCmdContext* ctx = output;
    ctx->request.select = true;
    24e8:	2001      	movs	r0, #1
    24ea:	7108      	strb	r0, [r1, #4]
    return true;
}
    24ec:	4770      	bx	lr

000024ee <nfc_cli_raw_parse_crc>:

static bool nfc_cli_raw_parse_crc(FuriString* value, void* output) {
    UNUSED(value);
    NfcCliRawCmdContext* ctx = output;
    ctx->request.append_crc = true;
    24ee:	2001      	movs	r0, #1
    24f0:	7188      	strb	r0, [r1, #6]
    return true;
}
    24f2:	4770      	bx	lr

000024f4 <nfc_cli_raw_parse_keep>:

static bool nfc_cli_raw_parse_keep(FuriString* value, void* output) {
    UNUSED(value);
    NfcCliRawCmdContext* ctx = output;
    ctx->request.keep_field = true;
    24f4:	2001      	movs	r0, #1
    24f6:	7148      	strb	r0, [r1, #5]
    return true;
}
    24f8:	4770      	bx	lr
	...

000024fc <nfc_cli_raw_parse_data>:
static bool nfc_cli_raw_parse_data(FuriString* value, void* output) {
    24fc:	b5f8      	push	{r3, r4, r5, r6, r7, lr}
    24fe:	4605      	mov	r5, r0
    2500:	460e      	mov	r6, r1
        size_t len = furi_string_size(value);
    2502:	4b10      	ldr	r3, [pc, #64]	@ (2544 <nfc_cli_raw_parse_data+0x48>)
    2504:	4798      	blx	r3
        if(len % 2 != 0) break;
    2506:	f010 0f01 	tst.w	r0, #1
    250a:	d002      	beq.n	2512 <nfc_cli_raw_parse_data+0x16>
    bool result = false;
    250c:	2500      	movs	r5, #0
}
    250e:	4628      	mov	r0, r5
    2510:	bdf8      	pop	{r3, r4, r5, r6, r7, pc}
        size_t data_length = len / 2;
    2512:	0844      	lsrs	r4, r0, #1
        uint8_t* data = malloc(data_length);
    2514:	4620      	mov	r0, r4
    2516:	4b0c      	ldr	r3, [pc, #48]	@ (2548 <nfc_cli_raw_parse_data+0x4c>)
    2518:	4798      	blx	r3
    251a:	4607      	mov	r7, r0
        if(args_read_hex_bytes(value, data, data_length)) {
    251c:	4622      	mov	r2, r4
    251e:	4601      	mov	r1, r0
    2520:	4628      	mov	r0, r5
    2522:	4b0a      	ldr	r3, [pc, #40]	@ (254c <nfc_cli_raw_parse_data+0x50>)
    2524:	4798      	blx	r3
    2526:	4605      	mov	r5, r0
    2528:	b918      	cbnz	r0, 2532 <nfc_cli_raw_parse_data+0x36>
        free(data);
    252a:	4638      	mov	r0, r7
    252c:	4b08      	ldr	r3, [pc, #32]	@ (2550 <nfc_cli_raw_parse_data+0x54>)
    252e:	4798      	blx	r3
    2530:	e7ed      	b.n	250e <nfc_cli_raw_parse_data+0x12>
            bit_buffer_reset(ctx->request.tx_buffer);
    2532:	68b0      	ldr	r0, [r6, #8]
    2534:	4b07      	ldr	r3, [pc, #28]	@ (2554 <nfc_cli_raw_parse_data+0x58>)
    2536:	4798      	blx	r3
            bit_buffer_copy_bytes(ctx->request.tx_buffer, data, data_length);
    2538:	4622      	mov	r2, r4
    253a:	4639      	mov	r1, r7
    253c:	68b0      	ldr	r0, [r6, #8]
    253e:	4b06      	ldr	r3, [pc, #24]	@ (2558 <nfc_cli_raw_parse_data+0x5c>)
    2540:	4798      	blx	r3
            result = true;
    2542:	e7f2      	b.n	252a <nfc_cli_raw_parse_data+0x2e>
	...

0000255c <nfc_cli_raw_parse_protocol>:
static bool nfc_cli_raw_parse_protocol(FuriString* value, void* output) {
    255c:	b570      	push	{r4, r5, r6, lr}
    255e:	b082      	sub	sp, #8
    2560:	4604      	mov	r4, r0
    2562:	460e      	mov	r6, r1
    NfcProtocol new_protocol = NfcProtocolInvalid;
    2564:	230d      	movs	r3, #13
    2566:	f88d 3007 	strb.w	r3, [sp, #7]
        nfc_cli_protocol_parser_alloc(supported_protocols, COUNT_OF(supported_protocols));
    256a:	2106      	movs	r1, #6
    256c:	4813      	ldr	r0, [pc, #76]	@ (25bc <nfc_cli_raw_parse_protocol+0x60>)
    256e:	4b14      	ldr	r3, [pc, #80]	@ (25c0 <nfc_cli_raw_parse_protocol+0x64>)
    2570:	4798      	blx	r3
    2572:	4605      	mov	r5, r0
    bool result = nfc_cli_protocol_parser_get(parser, value, &new_protocol);
    2574:	f10d 0207 	add.w	r2, sp, #7
    2578:	4621      	mov	r1, r4
    257a:	4b12      	ldr	r3, [pc, #72]	@ (25c4 <nfc_cli_raw_parse_protocol+0x68>)
    257c:	4798      	blx	r3
    257e:	4604      	mov	r4, r0
    nfc_cli_protocol_parser_free(parser);
    2580:	4628      	mov	r0, r5
    2582:	4b11      	ldr	r3, [pc, #68]	@ (25c8 <nfc_cli_raw_parse_protocol+0x6c>)
    2584:	4798      	blx	r3
    if(result && ctx->request.protocol != NfcProtocolInvalid &&
    2586:	b14c      	cbz	r4, 259c <nfc_cli_raw_parse_protocol+0x40>
    2588:	79f0      	ldrb	r0, [r6, #7]
    258a:	280d      	cmp	r0, #13
    258c:	d003      	beq.n	2596 <nfc_cli_raw_parse_protocol+0x3a>
       ctx->request.protocol != new_protocol) {
    258e:	f89d 3007 	ldrb.w	r3, [sp, #7]
    if(result && ctx->request.protocol != NfcProtocolInvalid &&
    2592:	4298      	cmp	r0, r3
    2594:	d105      	bne.n	25a2 <nfc_cli_raw_parse_protocol+0x46>
        ctx->request.protocol = new_protocol;
    2596:	f89d 3007 	ldrb.w	r3, [sp, #7]
    259a:	71f3      	strb	r3, [r6, #7]
}
    259c:	4620      	mov	r0, r4
    259e:	b002      	add	sp, #8
    25a0:	bd70      	pop	{r4, r5, r6, pc}
        printf(
    25a2:	4d0a      	ldr	r5, [pc, #40]	@ (25cc <nfc_cli_raw_parse_protocol+0x70>)
    25a4:	47a8      	blx	r5
    25a6:	4604      	mov	r4, r0
    25a8:	f89d 0007 	ldrb.w	r0, [sp, #7]
    25ac:	47a8      	blx	r5
    25ae:	4602      	mov	r2, r0
    25b0:	4621      	mov	r1, r4
    25b2:	4807      	ldr	r0, [pc, #28]	@ (25d0 <nfc_cli_raw_parse_protocol+0x74>)
    25b4:	4b07      	ldr	r3, [pc, #28]	@ (25d4 <nfc_cli_raw_parse_protocol+0x78>)
    25b6:	4798      	blx	r3
        result = false;
    25b8:	2400      	movs	r4, #0
    25ba:	e7ef      	b.n	259c <nfc_cli_raw_parse_protocol+0x40>
    25bc:	00001648 	.word	0x00001648
	...
    25d0:	00001380 	.word	0x00001380
    25d4:	00000000 	.word	0x00000000

000025d8 <nfc_cli_raw_can_reuse_ctx>:
static bool nfc_cli_raw_can_reuse_ctx(NfcCliActionContext* ctx) {
    25d8:	b508      	push	{r3, lr}
    furi_assert(ctx);
    25da:	b138      	cbz	r0, 25ec <nfc_cli_raw_can_reuse_ctx+0x14>
    25dc:	4603      	mov	r3, r0
    bool result = request->keep_field;
    25de:	7940      	ldrb	r0, [r0, #5]
    request->keep_field = false;
    25e0:	2200      	movs	r2, #0
    25e2:	715a      	strb	r2, [r3, #5]
    request->append_crc = false;
    25e4:	719a      	strb	r2, [r3, #6]
    request->select = false;
    25e6:	711a      	strb	r2, [r3, #4]
    instance->request.timeout = 0;
    25e8:	60da      	str	r2, [r3, #12]
}
    25ea:	bd08      	pop	{r3, pc}
    furi_assert(ctx);
    25ec:	f04f 0c01 	mov.w	ip, #1

000025f0 <sukima367>:
    25f0:	4b00      	ldr	r3, [pc, #0]	@ (25f4 <sukima367+0x4>)
    25f2:	4798      	blx	r3
    25f4:	00000000 	.word	0x00000000

000025f8 <nfc_cli_raw_parse_timeout>:
static bool nfc_cli_raw_parse_timeout(FuriString* value, void* output) {
    25f8:	b510      	push	{r4, lr}
    25fa:	b082      	sub	sp, #8
    furi_assert(value);
    25fc:	b158      	cbz	r0, 2616 <nfc_cli_raw_parse_timeout+0x1e>
    25fe:	460c      	mov	r4, r1
    furi_assert(output);
    2600:	b169      	cbz	r1, 261e <sukima459+0x4>
    int timeout = 0;
    2602:	2200      	movs	r2, #0
    2604:	9201      	str	r2, [sp, #4]
    if(args_read_int_and_trim(value, &timeout)) {
    2606:	a901      	add	r1, sp, #4
    2608:	4b07      	ldr	r3, [pc, #28]	@ (2628 <sukima476+0x6>)
    260a:	4798      	blx	r3
    260c:	b108      	cbz	r0, 2612 <nfc_cli_raw_parse_timeout+0x1a>
        ctx->request.timeout = timeout;
    260e:	9b01      	ldr	r3, [sp, #4]
    2610:	60e3      	str	r3, [r4, #12]
}
    2612:	b002      	add	sp, #8
    2614:	bd10      	pop	{r4, pc}
    furi_assert(value);
    2616:	f04f 0c01 	mov.w	ip, #1

0000261a <sukima459>:
    261a:	4b04      	ldr	r3, [pc, #16]	@ (262c <sukima476+0xa>)
    261c:	4798      	blx	r3
    furi_assert(output);
    261e:	f04f 0c01 	mov.w	ip, #1

00002622 <sukima476>:
    2622:	4b02      	ldr	r3, [pc, #8]	@ (262c <sukima476+0xa>)
    2624:	4798      	blx	r3
    2626:	bf00      	nop
	...

00002630 <nfc_cli_raw_abort_nfc_thread>:
static void nfc_cli_raw_abort_nfc_thread(NfcCliRawCmdContext* instance) {
    2630:	b510      	push	{r4, lr}
    2632:	4604      	mov	r4, r0
    if(instance->poller_state == NfcPollerStateStarted) {
    2634:	f890 3020 	ldrb.w	r3, [r0, #32]
    2638:	2b01      	cmp	r3, #1
    263a:	d004      	beq.n	2646 <nfc_cli_raw_abort_nfc_thread+0x16>
    if(instance->poller) nfc_poller_stop(instance->poller);
    263c:	69e0      	ldr	r0, [r4, #28]
    263e:	b108      	cbz	r0, 2644 <nfc_cli_raw_abort_nfc_thread+0x14>
    2640:	4b09      	ldr	r3, [pc, #36]	@ (2668 <nfc_cli_raw_abort_nfc_thread+0x38>)
    2642:	4798      	blx	r3
}
    2644:	bd10      	pop	{r4, pc}
        instance->request_type = NfcCliProtocolRequestTypeAbort;
    2646:	4601      	mov	r1, r0
    2648:	f801 3f21 	strb.w	r3, [r1, #33]!
        furi_message_queue_put(instance->input_queue, &instance->request_type, FuriWaitForever);
    264c:	f04f 32ff 	mov.w	r2, #4294967295	@ 0xffffffff
    2650:	6a40      	ldr	r0, [r0, #36]	@ 0x24
    2652:	4b06      	ldr	r3, [pc, #24]	@ (266c <nfc_cli_raw_abort_nfc_thread+0x3c>)
    2654:	4798      	blx	r3
        furi_semaphore_acquire(instance->sem_done, FuriWaitForever);
    2656:	f04f 31ff 	mov.w	r1, #4294967295	@ 0xffffffff
    265a:	6aa0      	ldr	r0, [r4, #40]	@ 0x28
    265c:	4b04      	ldr	r3, [pc, #16]	@ (2670 <nfc_cli_raw_abort_nfc_thread+0x40>)
    265e:	4798      	blx	r3
        instance->poller_state = NfcPollerStateStopped;
    2660:	2300      	movs	r3, #0
    2662:	f884 3020 	strb.w	r3, [r4, #32]
    2666:	e7e9      	b.n	263c <nfc_cli_raw_abort_nfc_thread+0xc>
	...

00002674 <nfc_cli_raw_free_ctx>:
static void nfc_cli_raw_free_ctx(NfcCliActionContext* ctx) {
    2674:	b538      	push	{r3, r4, r5, lr}
    furi_assert(ctx);
    2676:	b1d0      	cbz	r0, 26ae <nfc_cli_raw_free_ctx+0x3a>
    2678:	4604      	mov	r4, r0
    nfc_cli_raw_abort_nfc_thread(instance);
    267a:	4b0f      	ldr	r3, [pc, #60]	@ (26b8 <sukima637+0x6>)
    267c:	4798      	blx	r3
    if(instance->poller) nfc_poller_free(instance->poller);
    267e:	69e0      	ldr	r0, [r4, #28]
    2680:	b108      	cbz	r0, 2686 <nfc_cli_raw_free_ctx+0x12>
    2682:	4b0e      	ldr	r3, [pc, #56]	@ (26bc <sukima637+0xa>)
    2684:	4798      	blx	r3
    furi_message_queue_free(instance->input_queue);
    2686:	6a60      	ldr	r0, [r4, #36]	@ 0x24
    2688:	4b0d      	ldr	r3, [pc, #52]	@ (26c0 <sukima637+0xe>)
    268a:	4798      	blx	r3
    furi_semaphore_free(instance->sem_done);
    268c:	6aa0      	ldr	r0, [r4, #40]	@ 0x28
    268e:	4b0d      	ldr	r3, [pc, #52]	@ (26c4 <sukima637+0x12>)
    2690:	4798      	blx	r3
    furi_string_free(instance->response.activation_string);
    2692:	69a0      	ldr	r0, [r4, #24]
    2694:	4b0c      	ldr	r3, [pc, #48]	@ (26c8 <sukima637+0x16>)
    2696:	4798      	blx	r3
    bit_buffer_free(instance->response.rx_buffer);
    2698:	6960      	ldr	r0, [r4, #20]
    269a:	4d0c      	ldr	r5, [pc, #48]	@ (26cc <sukima637+0x1a>)
    269c:	47a8      	blx	r5
    bit_buffer_free(instance->request.tx_buffer);
    269e:	68a0      	ldr	r0, [r4, #8]
    26a0:	47a8      	blx	r5
    instance->nfc = NULL;
    26a2:	2300      	movs	r3, #0
    26a4:	6023      	str	r3, [r4, #0]
    free(instance);
    26a6:	4620      	mov	r0, r4
    26a8:	4b09      	ldr	r3, [pc, #36]	@ (26d0 <sukima637+0x1e>)
    26aa:	4798      	blx	r3
}
    26ac:	bd38      	pop	{r3, r4, r5, pc}
    furi_assert(ctx);
    26ae:	f04f 0c01 	mov.w	ip, #1

000026b2 <sukima637>:
    26b2:	4b08      	ldr	r3, [pc, #32]	@ (26d4 <sukima637+0x22>)
    26b4:	4798      	blx	r3
    26b6:	bf00      	nop
	...

000026d8 <nfc_cli_raw_alloc_ctx>:
static NfcCliActionContext* nfc_cli_raw_alloc_ctx(Nfc* nfc) {
    26d8:	b538      	push	{r3, r4, r5, lr}
    furi_assert(nfc);
    26da:	b308      	cbz	r0, 2720 <nfc_cli_raw_alloc_ctx+0x48>
    26dc:	4605      	mov	r5, r0
    NfcCliRawCmdContext* instance = malloc(sizeof(NfcCliRawCmdContext));
    26de:	202c      	movs	r0, #44	@ 0x2c
    26e0:	4b11      	ldr	r3, [pc, #68]	@ (2728 <sukima741+0x4>)
    26e2:	4798      	blx	r3
    26e4:	4604      	mov	r4, r0
    instance->nfc = nfc;
    26e6:	6005      	str	r5, [r0, #0]
    instance->request.protocol = NfcProtocolInvalid;
    26e8:	230d      	movs	r3, #13
    26ea:	71c3      	strb	r3, [r0, #7]
    instance->request.tx_buffer = bit_buffer_alloc(NFC_CLI_PROTOCOL_SUPPORT_MAX_BUFFER_SIZE);
    26ec:	f44f 7080 	mov.w	r0, #256	@ 0x100
    26f0:	4d0e      	ldr	r5, [pc, #56]	@ (272c <sukima741+0x8>)
    26f2:	47a8      	blx	r5
    26f4:	60a0      	str	r0, [r4, #8]
    instance->response.rx_buffer = bit_buffer_alloc(NFC_CLI_PROTOCOL_SUPPORT_MAX_BUFFER_SIZE);
    26f6:	f44f 7080 	mov.w	r0, #256	@ 0x100
    26fa:	47a8      	blx	r5
    26fc:	6160      	str	r0, [r4, #20]
    instance->input_queue = furi_message_queue_alloc(5, sizeof(NfcCliProtocolRequestType));
    26fe:	2101      	movs	r1, #1
    2700:	2005      	movs	r0, #5
    2702:	4b0b      	ldr	r3, [pc, #44]	@ (2730 <sukima741+0xc>)
    2704:	4798      	blx	r3
    2706:	6260      	str	r0, [r4, #36]	@ 0x24
    instance->sem_done = furi_semaphore_alloc(1, 0);
    2708:	2100      	movs	r1, #0
    270a:	2001      	movs	r0, #1
    270c:	4b09      	ldr	r3, [pc, #36]	@ (2734 <sukima741+0x10>)
    270e:	4798      	blx	r3
    2710:	62a0      	str	r0, [r4, #40]	@ 0x28
    instance->response.activation_string = furi_string_alloc();
    2712:	4b09      	ldr	r3, [pc, #36]	@ (2738 <sukima741+0x14>)
    2714:	4798      	blx	r3
    2716:	61a0      	str	r0, [r4, #24]
    instance->request.timeout = 0;
    2718:	2300      	movs	r3, #0
    271a:	60e3      	str	r3, [r4, #12]
}
    271c:	4620      	mov	r0, r4
    271e:	bd38      	pop	{r3, r4, r5, pc}
    furi_assert(nfc);
    2720:	f04f 0c01 	mov.w	ip, #1

00002724 <sukima741>:
    2724:	4b05      	ldr	r3, [pc, #20]	@ (273c <sukima741+0x18>)
    2726:	4798      	blx	r3
	...

00002740 <nfc_cli_raw_poller_callback>:
static NfcCommand nfc_cli_raw_poller_callback(NfcGenericEventEx event, void* context) {
    2740:	b530      	push	{r4, r5, lr}
    2742:	b085      	sub	sp, #20
    2744:	466b      	mov	r3, sp
    2746:	e883 0003 	stmia.w	r3, {r0, r1}
    274a:	4614      	mov	r4, r2
    if(nfc_event->type == NfcEventTypePollerReady) {
    274c:	780b      	ldrb	r3, [r1, #0]
    274e:	2b08      	cmp	r3, #8
    2750:	d007      	beq.n	2762 <nfc_cli_raw_poller_callback+0x22>
    NfcCommand command = NfcCommandContinue;
    2752:	2500      	movs	r5, #0
    furi_semaphore_release(instance->sem_done);
    2754:	6aa0      	ldr	r0, [r4, #40]	@ 0x28
    2756:	4b19      	ldr	r3, [pc, #100]	@ (27bc <nfc_cli_raw_poller_callback+0x7c>)
    2758:	4798      	blx	r3
    if(command == NfcCommandStop) {
    275a:	bb2d      	cbnz	r5, 27a8 <nfc_cli_raw_poller_callback+0x68>
}
    275c:	4628      	mov	r0, r5
    275e:	b005      	add	sp, #20
    2760:	bd30      	pop	{r4, r5, pc}
        FURI_LOG_D(TAG, "Poller callback");
    2762:	4a17      	ldr	r2, [pc, #92]	@ (27c0 <nfc_cli_raw_poller_callback+0x80>)
    2764:	4917      	ldr	r1, [pc, #92]	@ (27c4 <nfc_cli_raw_poller_callback+0x84>)
    2766:	2005      	movs	r0, #5
    2768:	4b17      	ldr	r3, [pc, #92]	@ (27c8 <nfc_cli_raw_poller_callback+0x88>)
    276a:	4798      	blx	r3
        NfcCliProtocolRequestType request_type = NfcCliProtocolRequestTypeAbort;
    276c:	2301      	movs	r3, #1
    276e:	f88d 300f 	strb.w	r3, [sp, #15]
        furi_message_queue_get(instance->input_queue, &request_type, FuriWaitForever);
    2772:	f04f 32ff 	mov.w	r2, #4294967295	@ 0xffffffff
    2776:	f10d 010f 	add.w	r1, sp, #15
    277a:	6a60      	ldr	r0, [r4, #36]	@ 0x24
    277c:	4b13      	ldr	r3, [pc, #76]	@ (27cc <nfc_cli_raw_poller_callback+0x8c>)
    277e:	4798      	blx	r3
        if(request_type == NfcCliProtocolRequestTypeAbort) {
    2780:	f89d 300f 	ldrb.w	r3, [sp, #15]
    2784:	2b01      	cmp	r3, #1
    2786:	d00b      	beq.n	27a0 <nfc_cli_raw_poller_callback+0x60>
                nfc_cli_raw_protocol_handlers[instance->request.protocol];
    2788:	79e2      	ldrb	r2, [r4, #7]
            const NfcCliRawProtocolSpecificHandler handler =
    278a:	4b11      	ldr	r3, [pc, #68]	@ (27d0 <nfc_cli_raw_poller_callback+0x90>)
    278c:	f853 3022 	ldr.w	r3, [r3, r2, lsl #2]
            if(handler) handler(event.poller, &instance->request, &instance->response);
    2790:	b143      	cbz	r3, 27a4 <nfc_cli_raw_poller_callback+0x64>
    2792:	f104 0210 	add.w	r2, r4, #16
    2796:	1d21      	adds	r1, r4, #4
    2798:	9800      	ldr	r0, [sp, #0]
    279a:	4798      	blx	r3
    NfcCommand command = NfcCommandContinue;
    279c:	2500      	movs	r5, #0
    279e:	e7d9      	b.n	2754 <nfc_cli_raw_poller_callback+0x14>
            command = NfcCommandStop;
    27a0:	2502      	movs	r5, #2
    27a2:	e7d7      	b.n	2754 <nfc_cli_raw_poller_callback+0x14>
    NfcCommand command = NfcCommandContinue;
    27a4:	2500      	movs	r5, #0
    27a6:	e7d5      	b.n	2754 <nfc_cli_raw_poller_callback+0x14>
        FURI_LOG_D(TAG, "Aborting poller callback");
    27a8:	4a0a      	ldr	r2, [pc, #40]	@ (27d4 <nfc_cli_raw_poller_callback+0x94>)
    27aa:	4906      	ldr	r1, [pc, #24]	@ (27c4 <nfc_cli_raw_poller_callback+0x84>)
    27ac:	2005      	movs	r0, #5
    27ae:	4b06      	ldr	r3, [pc, #24]	@ (27c8 <nfc_cli_raw_poller_callback+0x88>)
    27b0:	4798      	blx	r3
        instance->poller_state = NfcPollerStateStopped;
    27b2:	2300      	movs	r3, #0
    27b4:	f884 3020 	strb.w	r3, [r4, #32]
    27b8:	e7d0      	b.n	275c <nfc_cli_raw_poller_callback+0x1c>
    27ba:	bf00      	nop
    27bc:	00000000 	.word	0x00000000
    27c0:	000013bc 	.word	0x000013bc
    27c4:	000013cc 	.word	0x000013cc
	...
    27d4:	000013d0 	.word	0x000013d0

000027d8 <nfc_cli_raw_print_result>:
static inline void nfc_cli_raw_print_result(const NfcCliRawCmdContext* instance) {
    27d8:	b538      	push	{r3, r4, r5, lr}
    27da:	4604      	mov	r4, r0
    if(!furi_string_empty(instance->response.activation_string))
    27dc:	6980      	ldr	r0, [r0, #24]
    27de:	4b19      	ldr	r3, [pc, #100]	@ (2844 <nfc_cli_raw_print_result+0x6c>)
    27e0:	4798      	blx	r3
    27e2:	b190      	cbz	r0, 280a <nfc_cli_raw_print_result+0x32>
    nfc_cli_printf_array(
    27e4:	68a0      	ldr	r0, [r4, #8]
    27e6:	4b18      	ldr	r3, [pc, #96]	@ (2848 <nfc_cli_raw_print_result+0x70>)
    27e8:	4798      	blx	r3
    27ea:	4605      	mov	r5, r0
    27ec:	68a0      	ldr	r0, [r4, #8]
    27ee:	4b17      	ldr	r3, [pc, #92]	@ (284c <nfc_cli_raw_print_result+0x74>)
    27f0:	4798      	blx	r3
    27f2:	4601      	mov	r1, r0
    27f4:	4a16      	ldr	r2, [pc, #88]	@ (2850 <nfc_cli_raw_print_result+0x78>)
    27f6:	4628      	mov	r0, r5
    27f8:	4b16      	ldr	r3, [pc, #88]	@ (2854 <nfc_cli_raw_print_result+0x7c>)
    27fa:	4798      	blx	r3
    if(instance->response.result != NfcCliRawErrorNone)
    27fc:	7c23      	ldrb	r3, [r4, #16]
    27fe:	b963      	cbnz	r3, 281a <nfc_cli_raw_print_result+0x42>
    size_t rx_size = bit_buffer_get_size_bytes(instance->response.rx_buffer);
    2800:	6960      	ldr	r0, [r4, #20]
    2802:	4b12      	ldr	r3, [pc, #72]	@ (284c <nfc_cli_raw_print_result+0x74>)
    2804:	4798      	blx	r3
    if(rx_size > 0) {
    2806:	b978      	cbnz	r0, 2828 <nfc_cli_raw_print_result+0x50>
}
    2808:	bd38      	pop	{r3, r4, r5, pc}
        printf("%s\r\n", furi_string_get_cstr(instance->response.activation_string));
    280a:	69a0      	ldr	r0, [r4, #24]
    280c:	4b12      	ldr	r3, [pc, #72]	@ (2858 <nfc_cli_raw_print_result+0x80>)
    280e:	4798      	blx	r3
    2810:	4601      	mov	r1, r0
    2812:	4812      	ldr	r0, [pc, #72]	@ (285c <nfc_cli_raw_print_result+0x84>)
    2814:	4b12      	ldr	r3, [pc, #72]	@ (2860 <nfc_cli_raw_print_result+0x88>)
    2816:	4798      	blx	r3
    2818:	e7e4      	b.n	27e4 <nfc_cli_raw_print_result+0xc>
        printf("\r\nError: \"%s\"\r\n", raw_error_names[instance->response.result]);
    281a:	4a12      	ldr	r2, [pc, #72]	@ (2864 <nfc_cli_raw_print_result+0x8c>)
    281c:	f852 1023 	ldr.w	r1, [r2, r3, lsl #2]
    2820:	4811      	ldr	r0, [pc, #68]	@ (2868 <nfc_cli_raw_print_result+0x90>)
    2822:	4b0f      	ldr	r3, [pc, #60]	@ (2860 <nfc_cli_raw_print_result+0x88>)
    2824:	4798      	blx	r3
    2826:	e7eb      	b.n	2800 <nfc_cli_raw_print_result+0x28>
        nfc_cli_printf_array(
    2828:	6960      	ldr	r0, [r4, #20]
    282a:	4b07      	ldr	r3, [pc, #28]	@ (2848 <nfc_cli_raw_print_result+0x70>)
    282c:	4798      	blx	r3
    282e:	4605      	mov	r5, r0
    2830:	6960      	ldr	r0, [r4, #20]
    2832:	4b06      	ldr	r3, [pc, #24]	@ (284c <nfc_cli_raw_print_result+0x74>)
    2834:	4798      	blx	r3
    2836:	4601      	mov	r1, r0
    2838:	4a0c      	ldr	r2, [pc, #48]	@ (286c <nfc_cli_raw_print_result+0x94>)
    283a:	4628      	mov	r0, r5
    283c:	4b05      	ldr	r3, [pc, #20]	@ (2854 <nfc_cli_raw_print_result+0x7c>)
    283e:	4798      	blx	r3
}
    2840:	e7e2      	b.n	2808 <nfc_cli_raw_print_result+0x30>
    2842:	bf00      	nop
	...
    2850:	000013f4 	.word	0x000013f4
	...
    285c:	000013ec 	.word	0x000013ec
    2860:	00000000 	.word	0x00000000
    2864:	000016a8 	.word	0x000016a8
    2868:	000013fc 	.word	0x000013fc
    286c:	0000140c 	.word	0x0000140c

00002870 <nfc_cli_raw_execute>:
static void nfc_cli_raw_execute(PipeSide* pipe, void* context) {
    2870:	b510      	push	{r4, lr}
    furi_assert(context);
    2872:	b311      	cbz	r1, 28ba <nfc_cli_raw_execute+0x4a>
    2874:	460c      	mov	r4, r1
    furi_string_reset(instance->response.activation_string);
    2876:	6988      	ldr	r0, [r1, #24]
    2878:	4b15      	ldr	r3, [pc, #84]	@ (28d0 <sukima1148+0x12>)
    287a:	4798      	blx	r3
    if(instance->poller_state == NfcPollerStateStopped) {
    287c:	f894 3020 	ldrb.w	r3, [r4, #32]
    2880:	b94b      	cbnz	r3, 2896 <nfc_cli_raw_execute+0x26>
        if(instance->poller == NULL)
    2882:	69e3      	ldr	r3, [r4, #28]
    2884:	b1eb      	cbz	r3, 28c2 <sukima1148+0x4>
        nfc_poller_start_ex(instance->poller, nfc_cli_raw_poller_callback, instance);
    2886:	4622      	mov	r2, r4
    2888:	4912      	ldr	r1, [pc, #72]	@ (28d4 <sukima1148+0x16>)
    288a:	69e0      	ldr	r0, [r4, #28]
    288c:	4b12      	ldr	r3, [pc, #72]	@ (28d8 <sukima1148+0x1a>)
    288e:	4798      	blx	r3
        instance->poller_state = NfcPollerStateStarted;
    2890:	2301      	movs	r3, #1
    2892:	f884 3020 	strb.w	r3, [r4, #32]
    instance->request_type = NfcCliProtocolRequestTypeNormalExecute;
    2896:	4621      	mov	r1, r4
    2898:	2300      	movs	r3, #0
    289a:	f801 3f21 	strb.w	r3, [r1, #33]!
    furi_message_queue_put(instance->input_queue, &instance->request_type, FuriWaitForever);
    289e:	f04f 32ff 	mov.w	r2, #4294967295	@ 0xffffffff
    28a2:	6a60      	ldr	r0, [r4, #36]	@ 0x24
    28a4:	4b0d      	ldr	r3, [pc, #52]	@ (28dc <sukima1148+0x1e>)
    28a6:	4798      	blx	r3
    furi_semaphore_acquire(instance->sem_done, FuriWaitForever);
    28a8:	f04f 31ff 	mov.w	r1, #4294967295	@ 0xffffffff
    28ac:	6aa0      	ldr	r0, [r4, #40]	@ 0x28
    28ae:	4b0c      	ldr	r3, [pc, #48]	@ (28e0 <sukima1148+0x22>)
    28b0:	4798      	blx	r3
    nfc_cli_raw_print_result(instance);
    28b2:	4620      	mov	r0, r4
    28b4:	4b0b      	ldr	r3, [pc, #44]	@ (28e4 <sukima1148+0x26>)
    28b6:	4798      	blx	r3
}
    28b8:	bd10      	pop	{r4, pc}
    furi_assert(context);
    28ba:	f04f 0c01 	mov.w	ip, #1

000028be <sukima1148>:
    28be:	4b0a      	ldr	r3, [pc, #40]	@ (28e8 <sukima1148+0x2a>)
    28c0:	4798      	blx	r3
            instance->poller = nfc_poller_alloc(instance->nfc, instance->request.protocol);
    28c2:	79e1      	ldrb	r1, [r4, #7]
    28c4:	6820      	ldr	r0, [r4, #0]
    28c6:	4b09      	ldr	r3, [pc, #36]	@ (28ec <sukima1148+0x2e>)
    28c8:	4798      	blx	r3
    28ca:	61e0      	str	r0, [r4, #28]
    28cc:	e7db      	b.n	2886 <nfc_cli_raw_execute+0x16>
    28ce:	bf00      	nop
	...

000028f0 <nfc_cli_command_raw_callback>:
    .can_reuse = nfc_cli_raw_can_reuse_ctx,
};

const NfcCliActionDescriptor* raw_actions_collection[] = {&raw_action};

ADD_NFC_CLI_COMMAND(raw, "", raw_actions_collection);
    28f0:	b510      	push	{r4, lr}
    28f2:	4613      	mov	r3, r2
    28f4:	460a      	mov	r2, r1
    28f6:	4601      	mov	r1, r0
    28f8:	4801      	ldr	r0, [pc, #4]	@ (2900 <nfc_cli_command_raw_callback+0x10>)
    28fa:	4c02      	ldr	r4, [pc, #8]	@ (2904 <nfc_cli_command_raw_callback+0x14>)
    28fc:	47a0      	blx	r4
    28fe:	bd10      	pop	{r4, pc}
	...

00002908 <nfc_cli_emulate_protocol_supports_emulation>:
    NfcProtocolSlix,
    NfcProtocolFelica,
};

static bool nfc_cli_emulate_protocol_supports_emulation(NfcProtocol protocol) {
    for(size_t i = 0; i < COUNT_OF(supported_protocols); i++) {
    2908:	2300      	movs	r3, #0
    290a:	e000      	b.n	290e <nfc_cli_emulate_protocol_supports_emulation+0x6>
    290c:	3301      	adds	r3, #1
    290e:	2b06      	cmp	r3, #6
    2910:	d805      	bhi.n	291e <nfc_cli_emulate_protocol_supports_emulation+0x16>
        if(supported_protocols[i] == protocol) return true;
    2912:	4a04      	ldr	r2, [pc, #16]	@ (2924 <nfc_cli_emulate_protocol_supports_emulation+0x1c>)
    2914:	5cd2      	ldrb	r2, [r2, r3]
    2916:	4282      	cmp	r2, r0
    2918:	d1f8      	bne.n	290c <nfc_cli_emulate_protocol_supports_emulation+0x4>
    291a:	2001      	movs	r0, #1
    }
    return false;
}
    291c:	4770      	bx	lr
    return false;
    291e:	2000      	movs	r0, #0
    2920:	4770      	bx	lr
    2922:	bf00      	nop
    2924:	000017e8 	.word	0x000017e8

00002928 <nfc_cli_emulate_parse_filename_key>:
        nfc_listener_stop(listener);
        nfc_listener_free(listener);
    } while(false);
}

static bool nfc_cli_emulate_parse_filename_key(FuriString* value, void* output) {
    2928:	b508      	push	{r3, lr}
    furi_assert(value);
    292a:	b138      	cbz	r0, 293c <nfc_cli_emulate_parse_filename_key+0x14>
    292c:	460b      	mov	r3, r1
    292e:	4601      	mov	r1, r0
    furi_assert(output);
    2930:	b143      	cbz	r3, 2944 <sukima113+0x4>
    NfcCliEmulateContext* ctx = output;
    furi_string_set(ctx->file_path, value);
    2932:	6898      	ldr	r0, [r3, #8]
    2934:	4b05      	ldr	r3, [pc, #20]	@ (294c <sukima130+0x4>)
    2936:	4798      	blx	r3
    return true;
}
    2938:	2001      	movs	r0, #1
    293a:	bd08      	pop	{r3, pc}
    furi_assert(value);
    293c:	f04f 0c01 	mov.w	ip, #1

00002940 <sukima113>:
    2940:	4b03      	ldr	r3, [pc, #12]	@ (2950 <sukima130+0x8>)
    2942:	4798      	blx	r3
    furi_assert(output);
    2944:	f04f 0c01 	mov.w	ip, #1

00002948 <sukima130>:
    2948:	4b01      	ldr	r3, [pc, #4]	@ (2950 <sukima130+0x8>)
    294a:	4798      	blx	r3
	...

00002954 <nfc_cli_emulate_free_ctx>:
static void nfc_cli_emulate_free_ctx(NfcCliActionContext* ctx) {
    2954:	b510      	push	{r4, lr}
    furi_assert(ctx);
    2956:	b168      	cbz	r0, 2974 <nfc_cli_emulate_free_ctx+0x20>
    2958:	4604      	mov	r4, r0
    furi_record_close(RECORD_STORAGE);
    295a:	4808      	ldr	r0, [pc, #32]	@ (297c <sukima200+0x4>)
    295c:	4b08      	ldr	r3, [pc, #32]	@ (2980 <sukima200+0x8>)
    295e:	4798      	blx	r3
    furi_string_free(instance->file_path);
    2960:	68a0      	ldr	r0, [r4, #8]
    2962:	4b08      	ldr	r3, [pc, #32]	@ (2984 <sukima200+0xc>)
    2964:	4798      	blx	r3
    nfc_device_free(instance->nfc_device);
    2966:	6860      	ldr	r0, [r4, #4]
    2968:	4b07      	ldr	r3, [pc, #28]	@ (2988 <sukima200+0x10>)
    296a:	4798      	blx	r3
    free(instance);
    296c:	4620      	mov	r0, r4
    296e:	4b07      	ldr	r3, [pc, #28]	@ (298c <sukima200+0x14>)
    2970:	4798      	blx	r3
}
    2972:	bd10      	pop	{r4, pc}
    furi_assert(ctx);
    2974:	f04f 0c01 	mov.w	ip, #1

00002978 <sukima200>:
    2978:	4b05      	ldr	r3, [pc, #20]	@ (2990 <sukima200+0x18>)
    297a:	4798      	blx	r3
    297c:	000016bc 	.word	0x000016bc
	...

00002994 <nfc_cli_emulate_alloc_ctx>:
static NfcCliActionContext* nfc_cli_emulate_alloc_ctx(Nfc* nfc) {
    2994:	b538      	push	{r3, r4, r5, lr}
    furi_assert(nfc);
    2996:	b188      	cbz	r0, 29bc <nfc_cli_emulate_alloc_ctx+0x28>
    2998:	4605      	mov	r5, r0
    NfcCliEmulateContext* instance = malloc(sizeof(NfcCliEmulateContext));
    299a:	2010      	movs	r0, #16
    299c:	4b09      	ldr	r3, [pc, #36]	@ (29c4 <sukima282+0x4>)
    299e:	4798      	blx	r3
    29a0:	4604      	mov	r4, r0
    instance->nfc = nfc;
    29a2:	6005      	str	r5, [r0, #0]
    instance->file_path = furi_string_alloc();
    29a4:	4b08      	ldr	r3, [pc, #32]	@ (29c8 <sukima282+0x8>)
    29a6:	4798      	blx	r3
    29a8:	60a0      	str	r0, [r4, #8]
    instance->nfc_device = nfc_device_alloc();
    29aa:	4b08      	ldr	r3, [pc, #32]	@ (29cc <sukima282+0xc>)
    29ac:	4798      	blx	r3
    29ae:	6060      	str	r0, [r4, #4]
    instance->storage = furi_record_open(RECORD_STORAGE);
    29b0:	4807      	ldr	r0, [pc, #28]	@ (29d0 <sukima282+0x10>)
    29b2:	4b08      	ldr	r3, [pc, #32]	@ (29d4 <sukima282+0x14>)
    29b4:	4798      	blx	r3
    29b6:	60e0      	str	r0, [r4, #12]
}
    29b8:	4620      	mov	r0, r4
    29ba:	bd38      	pop	{r3, r4, r5, pc}
    furi_assert(nfc);
    29bc:	f04f 0c01 	mov.w	ip, #1

000029c0 <sukima282>:
    29c0:	4b05      	ldr	r3, [pc, #20]	@ (29d8 <sukima282+0x18>)
    29c2:	4798      	blx	r3
	...
    29d0:	000016bc 	.word	0x000016bc
	...

000029dc <nfc_cli_emulate_execute>:
static void nfc_cli_emulate_execute(PipeSide* pipe, NfcCliActionContext* context) {
    29dc:	b570      	push	{r4, r5, r6, lr}
    furi_assert(context);
    29de:	b179      	cbz	r1, 2a00 <nfc_cli_emulate_execute+0x24>
    29e0:	4605      	mov	r5, r0
    29e2:	460e      	mov	r6, r1
        const char* path = furi_string_get_cstr(instance->file_path);
    29e4:	6888      	ldr	r0, [r1, #8]
    29e6:	4b25      	ldr	r3, [pc, #148]	@ (2a7c <sukima377+0x78>)
    29e8:	4798      	blx	r3
    29ea:	4604      	mov	r4, r0
        if(!storage_common_exists(instance->storage, path)) {
    29ec:	4601      	mov	r1, r0
    29ee:	68f0      	ldr	r0, [r6, #12]
    29f0:	4b23      	ldr	r3, [pc, #140]	@ (2a80 <sukima377+0x7c>)
    29f2:	4798      	blx	r3
    29f4:	b940      	cbnz	r0, 2a08 <sukima377+0x4>
            printf(ANSI_FG_RED "Wrong path \'%s\'.\r\n" ANSI_RESET, path);
    29f6:	4621      	mov	r1, r4
    29f8:	4822      	ldr	r0, [pc, #136]	@ (2a84 <sukima377+0x80>)
    29fa:	4b23      	ldr	r3, [pc, #140]	@ (2a88 <sukima377+0x84>)
    29fc:	4798      	blx	r3
}
    29fe:	bd70      	pop	{r4, r5, r6, pc}
    furi_assert(context);
    2a00:	f04f 0c01 	mov.w	ip, #1

00002a04 <sukima377>:
    2a04:	4b21      	ldr	r3, [pc, #132]	@ (2a8c <sukima377+0x88>)
    2a06:	4798      	blx	r3
        if(!nfc_device_load(instance->nfc_device, path)) {
    2a08:	4621      	mov	r1, r4
    2a0a:	6870      	ldr	r0, [r6, #4]
    2a0c:	4b20      	ldr	r3, [pc, #128]	@ (2a90 <sukima377+0x8c>)
    2a0e:	4798      	blx	r3
    2a10:	b920      	cbnz	r0, 2a1c <sukima377+0x18>
            printf(ANSI_FG_RED "Failed to load \'%s\'.\r\n" ANSI_RESET, path);
    2a12:	4621      	mov	r1, r4
    2a14:	481f      	ldr	r0, [pc, #124]	@ (2a94 <sukima377+0x90>)
    2a16:	4b1c      	ldr	r3, [pc, #112]	@ (2a88 <sukima377+0x84>)
    2a18:	4798      	blx	r3
            break;
    2a1a:	e7f0      	b.n	29fe <nfc_cli_emulate_execute+0x22>
        const NfcProtocol protocol = nfc_device_get_protocol(instance->nfc_device);
    2a1c:	6870      	ldr	r0, [r6, #4]
    2a1e:	4b1e      	ldr	r3, [pc, #120]	@ (2a98 <sukima377+0x94>)
    2a20:	4798      	blx	r3
    2a22:	4604      	mov	r4, r0
        if(!nfc_cli_emulate_protocol_supports_emulation(protocol)) {
    2a24:	4b1d      	ldr	r3, [pc, #116]	@ (2a9c <sukima377+0x98>)
    2a26:	4798      	blx	r3
    2a28:	b938      	cbnz	r0, 2a3a <sukima377+0x36>
            printf(
    2a2a:	4620      	mov	r0, r4
    2a2c:	4b1c      	ldr	r3, [pc, #112]	@ (2aa0 <sukima377+0x9c>)
    2a2e:	4798      	blx	r3
    2a30:	4601      	mov	r1, r0
    2a32:	481c      	ldr	r0, [pc, #112]	@ (2aa4 <sukima377+0xa0>)
    2a34:	4b14      	ldr	r3, [pc, #80]	@ (2a88 <sukima377+0x84>)
    2a36:	4798      	blx	r3
            break;
    2a38:	e7e1      	b.n	29fe <nfc_cli_emulate_execute+0x22>
        const NfcDeviceData* data = nfc_device_get_data(instance->nfc_device, protocol);
    2a3a:	4621      	mov	r1, r4
    2a3c:	6870      	ldr	r0, [r6, #4]
    2a3e:	4b1a      	ldr	r3, [pc, #104]	@ (2aa8 <sukima377+0xa4>)
    2a40:	4798      	blx	r3
    2a42:	4602      	mov	r2, r0
        NfcListener* listener = nfc_listener_alloc(instance->nfc, protocol, data);
    2a44:	4621      	mov	r1, r4
    2a46:	6830      	ldr	r0, [r6, #0]
    2a48:	4b18      	ldr	r3, [pc, #96]	@ (2aac <sukima377+0xa8>)
    2a4a:	4798      	blx	r3
    2a4c:	4604      	mov	r4, r0
        nfc_listener_start(listener, NULL, NULL);
    2a4e:	2200      	movs	r2, #0
    2a50:	4611      	mov	r1, r2
    2a52:	4b17      	ldr	r3, [pc, #92]	@ (2ab0 <sukima377+0xac>)
    2a54:	4798      	blx	r3
        printf("\r\nEmulating. Press Ctrl+C to abort\r\n");
    2a56:	4817      	ldr	r0, [pc, #92]	@ (2ab4 <sukima377+0xb0>)
    2a58:	4b17      	ldr	r3, [pc, #92]	@ (2ab8 <sukima377+0xb4>)
    2a5a:	4798      	blx	r3
        while(!cli_is_pipe_broken_or_is_etx_next_char(pipe)) {
    2a5c:	e002      	b.n	2a64 <sukima377+0x60>
            furi_delay_ms(100);
    2a5e:	2064      	movs	r0, #100	@ 0x64
    2a60:	4b16      	ldr	r3, [pc, #88]	@ (2abc <sukima377+0xb8>)
    2a62:	4798      	blx	r3
        while(!cli_is_pipe_broken_or_is_etx_next_char(pipe)) {
    2a64:	4628      	mov	r0, r5
    2a66:	4b16      	ldr	r3, [pc, #88]	@ (2ac0 <sukima377+0xbc>)
    2a68:	4798      	blx	r3
    2a6a:	2800      	cmp	r0, #0
    2a6c:	d0f7      	beq.n	2a5e <sukima377+0x5a>
        nfc_listener_stop(listener);
    2a6e:	4620      	mov	r0, r4
    2a70:	4b14      	ldr	r3, [pc, #80]	@ (2ac4 <sukima377+0xc0>)
    2a72:	4798      	blx	r3
        nfc_listener_free(listener);
    2a74:	4620      	mov	r0, r4
    2a76:	4b14      	ldr	r3, [pc, #80]	@ (2ac8 <sukima377+0xc4>)
    2a78:	4798      	blx	r3
}
    2a7a:	e7c0      	b.n	29fe <nfc_cli_emulate_execute+0x22>
	...
    2a84:	000016c4 	.word	0x000016c4
	...
    2a94:	000016e0 	.word	0x000016e0
	...
    2aa4:	00001700 	.word	0x00001700
	...
    2ab4:	00001734 	.word	0x00001734
	...

00002acc <nfc_cli_command_emulate_callback>:
};

const NfcCliActionDescriptor* emulate_actions_collection[] = {&emulate_action};

//Command descriptor
ADD_NFC_CLI_COMMAND(emulate, "", emulate_actions_collection);
    2acc:	b510      	push	{r4, lr}
    2ace:	4613      	mov	r3, r2
    2ad0:	460a      	mov	r2, r1
    2ad2:	4601      	mov	r1, r0
    2ad4:	4801      	ldr	r0, [pc, #4]	@ (2adc <nfc_cli_command_emulate_callback+0x10>)
    2ad6:	4c02      	ldr	r4, [pc, #8]	@ (2ae0 <nfc_cli_command_emulate_callback+0x14>)
    2ad8:	47a0      	blx	r4
    2ada:	bd10      	pop	{r4, pc}
	...

00002ae4 <nfc_cli_raw_iso14443_3a_process_error>:
#define TAG "ISO14A"

#define BIT_BUFFER_EMPTY(buffer) ((bit_buffer_get_size_bytes(buffer) == 0))

static NfcCliRawError nfc_cli_raw_iso14443_3a_process_error(Iso14443_3aError error) {
    switch(error) {
    2ae4:	2807      	cmp	r0, #7
    2ae6:	d809      	bhi.n	2afc <nfc_cli_raw_iso14443_3a_process_error+0x18>
    2ae8:	e8df f000 	tbb	[pc, r0]
    2aec:	0808060b 	.word	0x0808060b
    2af0:	0a040808 	.word	0x0a040808
    case Iso14443_3aErrorNone:
        return NfcCliRawErrorNone;
    case Iso14443_3aErrorTimeout:
        return NfcCliRawErrorTimeout;
    case Iso14443_3aErrorWrongCrc:
        return NfcCliRawErrorWrongCrc;
    2af4:	2003      	movs	r0, #3
    2af6:	4770      	bx	lr
    case Iso14443_3aErrorNotPresent:
        return NfcCliRawErrorNotPresent;
    2af8:	2002      	movs	r0, #2
    2afa:	4770      	bx	lr
    default:
        return NfcCliRawErrorProtocol;
    2afc:	2004      	movs	r0, #4
    2afe:	4770      	bx	lr
        return NfcCliRawErrorTimeout;
    2b00:	2001      	movs	r0, #1
    }
}
    2b02:	4770      	bx	lr

00002b04 <iso14443_3a_format_activation_data>:

static void iso14443_3a_format_activation_data(const Iso14443_3aData* data, FuriString* output) {
    2b04:	b570      	push	{r4, r5, r6, lr}
    2b06:	b082      	sub	sp, #8
    2b08:	4604      	mov	r4, r0
    2b0a:	460d      	mov	r5, r1
    nfc_cli_format_array(data->uid, data->uid_len, "UID: ", output);
    2b0c:	460b      	mov	r3, r1
    2b0e:	4a07      	ldr	r2, [pc, #28]	@ (2b2c <iso14443_3a_format_activation_data+0x28>)
    2b10:	7a81      	ldrb	r1, [r0, #10]
    2b12:	4e07      	ldr	r6, [pc, #28]	@ (2b30 <iso14443_3a_format_activation_data+0x2c>)
    2b14:	47b0      	blx	r6
    furi_string_cat_printf(
        output, " ATQA: %02X%02X SAK: %02X", data->atqa[0], data->atqa[1], data->sak);
    2b16:	7b63      	ldrb	r3, [r4, #13]
    furi_string_cat_printf(
    2b18:	9300      	str	r3, [sp, #0]
    2b1a:	7b23      	ldrb	r3, [r4, #12]
    2b1c:	7ae2      	ldrb	r2, [r4, #11]
    2b1e:	4905      	ldr	r1, [pc, #20]	@ (2b34 <iso14443_3a_format_activation_data+0x30>)
    2b20:	4628      	mov	r0, r5
    2b22:	4c05      	ldr	r4, [pc, #20]	@ (2b38 <iso14443_3a_format_activation_data+0x34>)
    2b24:	47a0      	blx	r4
}
    2b26:	b002      	add	sp, #8
    2b28:	bd70      	pop	{r4, r5, r6, pc}
    2b2a:	bf00      	nop
    2b2c:	000017f0 	.word	0x000017f0
    2b30:	00000000 	.word	0x00000000
    2b34:	000017f8 	.word	0x000017f8
    2b38:	00000000 	.word	0x00000000

00002b3c <nfc_cli_raw_iso14443_3a_activate>:

static inline NfcCliRawError
    nfc_cli_raw_iso14443_3a_activate(NfcGenericInstance* poller, FuriString* activation_string) {
    2b3c:	b530      	push	{r4, r5, lr}
    2b3e:	b085      	sub	sp, #20
    2b40:	4604      	mov	r4, r0
    2b42:	460d      	mov	r5, r1
    Iso14443_3aData iso3_data = {};
    2b44:	2300      	movs	r3, #0
    2b46:	9300      	str	r3, [sp, #0]
    2b48:	9301      	str	r3, [sp, #4]
    2b4a:	9302      	str	r3, [sp, #8]
    2b4c:	f8ad 300c 	strh.w	r3, [sp, #12]
    FURI_LOG_D(TAG, "Activating...");
    2b50:	4a0a      	ldr	r2, [pc, #40]	@ (2b7c <nfc_cli_raw_iso14443_3a_activate+0x40>)
    2b52:	490b      	ldr	r1, [pc, #44]	@ (2b80 <nfc_cli_raw_iso14443_3a_activate+0x44>)
    2b54:	2005      	movs	r0, #5
    2b56:	4b0b      	ldr	r3, [pc, #44]	@ (2b84 <nfc_cli_raw_iso14443_3a_activate+0x48>)
    2b58:	4798      	blx	r3

    Iso14443_3aError error = iso14443_3a_poller_activate(poller, &iso3_data);
    2b5a:	4669      	mov	r1, sp
    2b5c:	4620      	mov	r0, r4
    2b5e:	4b0a      	ldr	r3, [pc, #40]	@ (2b88 <nfc_cli_raw_iso14443_3a_activate+0x4c>)
    2b60:	4798      	blx	r3
    if(error == Iso14443_3aErrorNone)
    2b62:	4604      	mov	r4, r0
    2b64:	b120      	cbz	r0, 2b70 <nfc_cli_raw_iso14443_3a_activate+0x34>
        iso14443_3a_format_activation_data(&iso3_data, activation_string);

    return nfc_cli_raw_iso14443_3a_process_error(error);
    2b66:	4620      	mov	r0, r4
    2b68:	4b08      	ldr	r3, [pc, #32]	@ (2b8c <nfc_cli_raw_iso14443_3a_activate+0x50>)
    2b6a:	4798      	blx	r3
}
    2b6c:	b005      	add	sp, #20
    2b6e:	bd30      	pop	{r4, r5, pc}
        iso14443_3a_format_activation_data(&iso3_data, activation_string);
    2b70:	4629      	mov	r1, r5
    2b72:	4668      	mov	r0, sp
    2b74:	4b06      	ldr	r3, [pc, #24]	@ (2b90 <nfc_cli_raw_iso14443_3a_activate+0x54>)
    2b76:	4798      	blx	r3
    2b78:	e7f5      	b.n	2b66 <nfc_cli_raw_iso14443_3a_activate+0x2a>
    2b7a:	bf00      	nop
    2b7c:	00001814 	.word	0x00001814
    2b80:	00001824 	.word	0x00001824
	...

00002b94 <nfc_cli_raw_iso14443_3a_txrx>:

static inline NfcCliRawError nfc_cli_raw_iso14443_3a_txrx(
    NfcGenericInstance* poller,
    BitBuffer* tx_buffer,
    BitBuffer* rx_buffer,
    uint32_t timeout) {
    2b94:	b5f8      	push	{r3, r4, r5, r6, r7, lr}
    2b96:	4605      	mov	r5, r0
    2b98:	460e      	mov	r6, r1
    2b9a:	4614      	mov	r4, r2
    2b9c:	461f      	mov	r7, r3
    FURI_LOG_D(TAG, "TxRx");
    2b9e:	4a08      	ldr	r2, [pc, #32]	@ (2bc0 <nfc_cli_raw_iso14443_3a_txrx+0x2c>)
    2ba0:	4908      	ldr	r1, [pc, #32]	@ (2bc4 <nfc_cli_raw_iso14443_3a_txrx+0x30>)
    2ba2:	2005      	movs	r0, #5
    2ba4:	4b08      	ldr	r3, [pc, #32]	@ (2bc8 <nfc_cli_raw_iso14443_3a_txrx+0x34>)
    2ba6:	4798      	blx	r3
    bit_buffer_reset(rx_buffer);
    2ba8:	4620      	mov	r0, r4
    2baa:	4b08      	ldr	r3, [pc, #32]	@ (2bcc <nfc_cli_raw_iso14443_3a_txrx+0x38>)
    2bac:	4798      	blx	r3
    Iso14443_3aError error = iso14443_3a_poller_txrx(poller, tx_buffer, rx_buffer, timeout);
    2bae:	463b      	mov	r3, r7
    2bb0:	4622      	mov	r2, r4
    2bb2:	4631      	mov	r1, r6
    2bb4:	4628      	mov	r0, r5
    2bb6:	4c06      	ldr	r4, [pc, #24]	@ (2bd0 <nfc_cli_raw_iso14443_3a_txrx+0x3c>)
    2bb8:	47a0      	blx	r4
    return nfc_cli_raw_iso14443_3a_process_error(error);
    2bba:	4b06      	ldr	r3, [pc, #24]	@ (2bd4 <nfc_cli_raw_iso14443_3a_txrx+0x40>)
    2bbc:	4798      	blx	r3
}
    2bbe:	bdf8      	pop	{r3, r4, r5, r6, r7, pc}
    2bc0:	0000182c 	.word	0x0000182c
    2bc4:	00001824 	.word	0x00001824
	...

00002bd8 <nfc_cli_raw_iso14443_3a_handler>:

NfcCommand nfc_cli_raw_iso14443_3a_handler(
    NfcGenericInstance* poller,
    const NfcCliRawRequest* request,
    NfcCliRawResponse* const response) {
    2bd8:	b570      	push	{r4, r5, r6, lr}
    2bda:	4606      	mov	r6, r0
    2bdc:	460d      	mov	r5, r1
    2bde:	4614      	mov	r4, r2
    do {
        response->result = NfcCliRawErrorNone;
    2be0:	2300      	movs	r3, #0
    2be2:	7013      	strb	r3, [r2, #0]
        if(request->select) {
    2be4:	780b      	ldrb	r3, [r1, #0]
    2be6:	b92b      	cbnz	r3, 2bf4 <nfc_cli_raw_iso14443_3a_handler+0x1c>
            response->result =
                nfc_cli_raw_iso14443_3a_activate(poller, response->activation_string);
        }

        if(response->result != NfcCliRawErrorNone) break;
    2be8:	7823      	ldrb	r3, [r4, #0]
    2bea:	b143      	cbz	r3, 2bfe <nfc_cli_raw_iso14443_3a_handler+0x26>
        uint32_t timeout = request->timeout > 0 ? request->timeout : ISO14443_3A_FDT_LISTEN_FC;
        response->result =
            nfc_cli_raw_iso14443_3a_txrx(poller, request->tx_buffer, response->rx_buffer, timeout);
    } while(false);

    return request->keep_field ? NfcCommandContinue : NfcCommandStop;
    2bec:	786b      	ldrb	r3, [r5, #1]
    2bee:	b313      	cbz	r3, 2c36 <nfc_cli_raw_iso14443_3a_handler+0x5e>
    2bf0:	2000      	movs	r0, #0
}
    2bf2:	bd70      	pop	{r4, r5, r6, pc}
                nfc_cli_raw_iso14443_3a_activate(poller, response->activation_string);
    2bf4:	6891      	ldr	r1, [r2, #8]
    2bf6:	4b11      	ldr	r3, [pc, #68]	@ (2c3c <nfc_cli_raw_iso14443_3a_handler+0x64>)
    2bf8:	4798      	blx	r3
            response->result =
    2bfa:	7020      	strb	r0, [r4, #0]
    2bfc:	e7f4      	b.n	2be8 <nfc_cli_raw_iso14443_3a_handler+0x10>
        if(BIT_BUFFER_EMPTY(request->tx_buffer)) break;
    2bfe:	6868      	ldr	r0, [r5, #4]
    2c00:	4b0f      	ldr	r3, [pc, #60]	@ (2c40 <nfc_cli_raw_iso14443_3a_handler+0x68>)
    2c02:	4798      	blx	r3
    2c04:	2800      	cmp	r0, #0
    2c06:	d0f1      	beq.n	2bec <nfc_cli_raw_iso14443_3a_handler+0x14>
        if(request->append_crc) {
    2c08:	78ab      	ldrb	r3, [r5, #2]
    2c0a:	b953      	cbnz	r3, 2c22 <nfc_cli_raw_iso14443_3a_handler+0x4a>
        uint32_t timeout = request->timeout > 0 ? request->timeout : ISO14443_3A_FDT_LISTEN_FC;
    2c0c:	68ab      	ldr	r3, [r5, #8]
    2c0e:	b90b      	cbnz	r3, 2c14 <nfc_cli_raw_iso14443_3a_handler+0x3c>
    2c10:	f240 4394 	movw	r3, #1172	@ 0x494
            nfc_cli_raw_iso14443_3a_txrx(poller, request->tx_buffer, response->rx_buffer, timeout);
    2c14:	6862      	ldr	r2, [r4, #4]
    2c16:	6869      	ldr	r1, [r5, #4]
    2c18:	4630      	mov	r0, r6
    2c1a:	4e0a      	ldr	r6, [pc, #40]	@ (2c44 <nfc_cli_raw_iso14443_3a_handler+0x6c>)
    2c1c:	47b0      	blx	r6
        response->result =
    2c1e:	7020      	strb	r0, [r4, #0]
    2c20:	e7e4      	b.n	2bec <nfc_cli_raw_iso14443_3a_handler+0x14>
            FURI_LOG_D(TAG, "Add CRC");
    2c22:	4a09      	ldr	r2, [pc, #36]	@ (2c48 <nfc_cli_raw_iso14443_3a_handler+0x70>)
    2c24:	4909      	ldr	r1, [pc, #36]	@ (2c4c <nfc_cli_raw_iso14443_3a_handler+0x74>)
    2c26:	2005      	movs	r0, #5
    2c28:	4b09      	ldr	r3, [pc, #36]	@ (2c50 <nfc_cli_raw_iso14443_3a_handler+0x78>)
    2c2a:	4798      	blx	r3
            iso14443_crc_append(Iso14443CrcTypeA, request->tx_buffer);
    2c2c:	6869      	ldr	r1, [r5, #4]
    2c2e:	2000      	movs	r0, #0
    2c30:	4b08      	ldr	r3, [pc, #32]	@ (2c54 <nfc_cli_raw_iso14443_3a_handler+0x7c>)
    2c32:	4798      	blx	r3
    2c34:	e7ea      	b.n	2c0c <nfc_cli_raw_iso14443_3a_handler+0x34>
    return request->keep_field ? NfcCommandContinue : NfcCommandStop;
    2c36:	2002      	movs	r0, #2
    2c38:	e7db      	b.n	2bf2 <nfc_cli_raw_iso14443_3a_handler+0x1a>
    2c3a:	bf00      	nop
	...
    2c48:	00001834 	.word	0x00001834
    2c4c:	00001824 	.word	0x00001824
	...

00002c58 <nfc_cli_dump_poller_callback_mf_desfire>:
#include "nfc_cli_dump_mf_desfire.h"
#include <nfc/protocols/mf_desfire/mf_desfire_poller.h>

#define TAG "MFDES"

NfcCommand nfc_cli_dump_poller_callback_mf_desfire(NfcGenericEvent event, void* context) {
    2c58:	b530      	push	{r4, r5, lr}
    2c5a:	b085      	sub	sp, #20
    2c5c:	ac04      	add	r4, sp, #16
    2c5e:	e904 0007 	stmdb	r4, {r0, r1, r2}
    2c62:	461d      	mov	r5, r3
    furi_assert(event.protocol == NfcProtocolMfDesfire);
    2c64:	f89d 3004 	ldrb.w	r3, [sp, #4]
    2c68:	2b09      	cmp	r3, #9
    2c6a:	d108      	bne.n	2c7e <nfc_cli_dump_poller_callback_mf_desfire+0x26>

    NfcCommand command = NfcCommandContinue;

    NfcCliDumpContext* instance = context;
    const MfDesfirePollerEvent* mf_desfire_event = event.event_data;
    2c6c:	9b03      	ldr	r3, [sp, #12]

    if(mf_desfire_event->type == MfDesfirePollerEventTypeReadSuccess) {
    2c6e:	781c      	ldrb	r4, [r3, #0]
    2c70:	b14c      	cbz	r4, 2c86 <sukima75+0x4>
        nfc_device_set_data(
            instance->nfc_device, NfcProtocolMfDesfire, nfc_poller_get_data(instance->poller));
        instance->result = NfcCliDumpErrorNone;
        furi_semaphore_release(instance->sem_done);
        command = NfcCommandStop;
    } else if(mf_desfire_event->type == MfDesfirePollerEventTypeReadFailed) {
    2c72:	2c01      	cmp	r4, #1
    2c74:	d017      	beq.n	2ca6 <sukima75+0x24>
    NfcCommand command = NfcCommandContinue;
    2c76:	2400      	movs	r4, #0
        command = NfcCommandReset;
        furi_semaphore_release(instance->sem_done);
    }

    return command;
}
    2c78:	4620      	mov	r0, r4
    2c7a:	b005      	add	sp, #20
    2c7c:	bd30      	pop	{r4, r5, pc}
    furi_assert(event.protocol == NfcProtocolMfDesfire);
    2c7e:	f04f 0c01 	mov.w	ip, #1

00002c82 <sukima75>:
    2c82:	4b0c      	ldr	r3, [pc, #48]	@ (2cb4 <sukima75+0x32>)
    2c84:	4798      	blx	r3
        nfc_device_set_data(
    2c86:	6bac      	ldr	r4, [r5, #56]	@ 0x38
    2c88:	6b68      	ldr	r0, [r5, #52]	@ 0x34
    2c8a:	4b0b      	ldr	r3, [pc, #44]	@ (2cb8 <sukima75+0x36>)
    2c8c:	4798      	blx	r3
    2c8e:	4602      	mov	r2, r0
    2c90:	2109      	movs	r1, #9
    2c92:	4620      	mov	r0, r4
    2c94:	4b09      	ldr	r3, [pc, #36]	@ (2cbc <sukima75+0x3a>)
    2c96:	4798      	blx	r3
        instance->result = NfcCliDumpErrorNone;
    2c98:	2300      	movs	r3, #0
    2c9a:	772b      	strb	r3, [r5, #28]
        furi_semaphore_release(instance->sem_done);
    2c9c:	69a8      	ldr	r0, [r5, #24]
    2c9e:	4b08      	ldr	r3, [pc, #32]	@ (2cc0 <sukima75+0x3e>)
    2ca0:	4798      	blx	r3
        command = NfcCommandStop;
    2ca2:	2402      	movs	r4, #2
    2ca4:	e7e8      	b.n	2c78 <nfc_cli_dump_poller_callback_mf_desfire+0x20>
        instance->result = NfcCliDumpErrorFailedToRead;
    2ca6:	2303      	movs	r3, #3
    2ca8:	772b      	strb	r3, [r5, #28]
        furi_semaphore_release(instance->sem_done);
    2caa:	69a8      	ldr	r0, [r5, #24]
    2cac:	4b04      	ldr	r3, [pc, #16]	@ (2cc0 <sukima75+0x3e>)
    2cae:	4798      	blx	r3
    2cb0:	e7e2      	b.n	2c78 <nfc_cli_dump_poller_callback_mf_desfire+0x20>
    2cb2:	bf00      	nop
	...

00002cc4 <nfc_cli_action_can_reuse_context>:
    return action;
}

static bool nfc_cli_action_can_reuse_context(
    NfcCliProcessorContext* instance,
    const NfcCliActionDescriptor* new_action) {
    2cc4:	b508      	push	{r3, lr}
    bool result = false;
    do {
        if(instance->action != new_action) break;
    2cc6:	6843      	ldr	r3, [r0, #4]
    2cc8:	428b      	cmp	r3, r1
    2cca:	d001      	beq.n	2cd0 <nfc_cli_action_can_reuse_context+0xc>
    bool result = false;
    2ccc:	2000      	movs	r0, #0
        if(new_action->can_reuse == NULL) break;
        result = new_action->can_reuse(instance->action_context);
    } while(false);
    return result;
}
    2cce:	bd08      	pop	{r3, pc}
        if(new_action->can_reuse == NULL) break;
    2cd0:	69cb      	ldr	r3, [r1, #28]
    2cd2:	b113      	cbz	r3, 2cda <nfc_cli_action_can_reuse_context+0x16>
        result = new_action->can_reuse(instance->action_context);
    2cd4:	6940      	ldr	r0, [r0, #20]
    2cd6:	4798      	blx	r3
    2cd8:	e7f9      	b.n	2cce <nfc_cli_action_can_reuse_context+0xa>
    bool result = false;
    2cda:	2000      	movs	r0, #0
    2cdc:	e7f7      	b.n	2cce <nfc_cli_action_can_reuse_context+0xa>

00002cde <nfc_cli_check_duplicate_keys>:
}

static bool
    nfc_cli_check_duplicate_keys(NfcCliProcessorContext* instance, const NfcCliKeyDescriptor* key) {
    bool result = false;
    for(size_t i = 0; i < instance->total_keys_found; i++) {
    2cde:	2300      	movs	r3, #0
    2ce0:	e000      	b.n	2ce4 <nfc_cli_check_duplicate_keys+0x6>
    2ce2:	3301      	adds	r3, #1
    2ce4:	7b02      	ldrb	r2, [r0, #12]
    2ce6:	429a      	cmp	r2, r3
    2ce8:	d906      	bls.n	2cf8 <nfc_cli_check_duplicate_keys+0x1a>
        const NfcCliKeyDescriptor* buf = instance->keys_found[i];
    2cea:	6882      	ldr	r2, [r0, #8]
    2cec:	f852 2023 	ldr.w	r2, [r2, r3, lsl #2]
        if(buf != key) continue;
    2cf0:	428a      	cmp	r2, r1
    2cf2:	d1f6      	bne.n	2ce2 <nfc_cli_check_duplicate_keys+0x4>
        result = true;
    2cf4:	2001      	movs	r0, #1
        break;
    }

    return result;
}
    2cf6:	4770      	bx	lr
    bool result = false;
    2cf8:	2000      	movs	r0, #0
    2cfa:	4770      	bx	lr

00002cfc <nfc_cli_action_free>:
static void nfc_cli_action_free(NfcCliProcessorContext* instance) {
    2cfc:	b538      	push	{r3, r4, r5, lr}
    2cfe:	4604      	mov	r4, r0
    if(instance->action && instance->action->free) {
    2d00:	6843      	ldr	r3, [r0, #4]
    2d02:	b15b      	cbz	r3, 2d1c <nfc_cli_action_free+0x20>
    2d04:	699a      	ldr	r2, [r3, #24]
    2d06:	b14a      	cbz	r2, 2d1c <nfc_cli_action_free+0x20>
        FURI_LOG_D(TAG, "Free previous \"%s\" action context", instance->action->name);
    2d08:	681b      	ldr	r3, [r3, #0]
    2d0a:	4a06      	ldr	r2, [pc, #24]	@ (2d24 <nfc_cli_action_free+0x28>)
    2d0c:	4906      	ldr	r1, [pc, #24]	@ (2d28 <nfc_cli_action_free+0x2c>)
    2d0e:	2005      	movs	r0, #5
    2d10:	4d06      	ldr	r5, [pc, #24]	@ (2d2c <nfc_cli_action_free+0x30>)
    2d12:	47a8      	blx	r5
        instance->action->free(instance->action_context);
    2d14:	6863      	ldr	r3, [r4, #4]
    2d16:	699b      	ldr	r3, [r3, #24]
    2d18:	6960      	ldr	r0, [r4, #20]
    2d1a:	4798      	blx	r3
    instance->action = NULL;
    2d1c:	2300      	movs	r3, #0
    2d1e:	6063      	str	r3, [r4, #4]
}
    2d20:	bd38      	pop	{r3, r4, r5, pc}
    2d22:	bf00      	nop
    2d24:	0000183c 	.word	0x0000183c
    2d28:	00001860 	.word	0x00001860
    2d2c:	00000000 	.word	0x00000000

00002d30 <nfc_cli_get_action_from_args>:
    nfc_cli_get_action_from_args(const NfcCliCommandDescriptor* cmd, FuriString* args) {
    2d30:	b5f8      	push	{r3, r4, r5, r6, r7, lr}
    2d32:	4604      	mov	r4, r0
    2d34:	460e      	mov	r6, r1
    const NfcCliActionDescriptor* action = cmd->actions[0];
    2d36:	68c3      	ldr	r3, [r0, #12]
    2d38:	681d      	ldr	r5, [r3, #0]
    bool multiple_action_cmd = nfc_cli_command_has_multiple_actions(cmd);
    2d3a:	4b0c      	ldr	r3, [pc, #48]	@ (2d6c <nfc_cli_get_action_from_args+0x3c>)
    2d3c:	4798      	blx	r3
    if(multiple_action_cmd) {
    2d3e:	b908      	cbnz	r0, 2d44 <nfc_cli_get_action_from_args+0x14>
}
    2d40:	4628      	mov	r0, r5
    2d42:	bdf8      	pop	{r3, r4, r5, r6, r7, pc}
        FuriString* arg_str = furi_string_alloc();
    2d44:	4b0a      	ldr	r3, [pc, #40]	@ (2d70 <nfc_cli_get_action_from_args+0x40>)
    2d46:	4798      	blx	r3
    2d48:	4607      	mov	r7, r0
        if(args_read_string_and_trim(args, arg_str)) {
    2d4a:	4601      	mov	r1, r0
    2d4c:	4630      	mov	r0, r6
    2d4e:	4b09      	ldr	r3, [pc, #36]	@ (2d74 <nfc_cli_get_action_from_args+0x44>)
    2d50:	4798      	blx	r3
    2d52:	b920      	cbnz	r0, 2d5e <nfc_cli_get_action_from_args+0x2e>
        action = NULL;
    2d54:	2500      	movs	r5, #0
        furi_string_free(arg_str);
    2d56:	4638      	mov	r0, r7
    2d58:	4b07      	ldr	r3, [pc, #28]	@ (2d78 <nfc_cli_get_action_from_args+0x48>)
    2d5a:	4798      	blx	r3
    return action;
    2d5c:	e7f0      	b.n	2d40 <nfc_cli_get_action_from_args+0x10>
            action = nfc_cli_command_get_action_by_name(cmd, arg_str);
    2d5e:	4639      	mov	r1, r7
    2d60:	4620      	mov	r0, r4
    2d62:	4b06      	ldr	r3, [pc, #24]	@ (2d7c <nfc_cli_get_action_from_args+0x4c>)
    2d64:	4798      	blx	r3
    2d66:	4605      	mov	r5, r0
    2d68:	e7f5      	b.n	2d56 <nfc_cli_get_action_from_args+0x26>
    2d6a:	bf00      	nop
	...

00002d80 <nfc_cli_action_alloc>:
    nfc_cli_action_alloc(NfcCliProcessorContext* instance, FuriString* args) {
    2d80:	b570      	push	{r4, r5, r6, lr}
    2d82:	4604      	mov	r4, r0
        const NfcCliActionDescriptor* action = nfc_cli_get_action_from_args(cmd, args);
    2d84:	6800      	ldr	r0, [r0, #0]
    2d86:	4b26      	ldr	r3, [pc, #152]	@ (2e20 <nfc_cli_action_alloc+0xa0>)
    2d88:	4798      	blx	r3
        if(action == NULL) {
    2d8a:	b1d0      	cbz	r0, 2dc2 <nfc_cli_action_alloc+0x42>
    2d8c:	4605      	mov	r5, r0
        if(!nfc_cli_action_can_reuse_context(instance, action)) {
    2d8e:	4601      	mov	r1, r0
    2d90:	4620      	mov	r0, r4
    2d92:	4b24      	ldr	r3, [pc, #144]	@ (2e24 <nfc_cli_action_alloc+0xa4>)
    2d94:	4798      	blx	r3
    2d96:	2800      	cmp	r0, #0
    2d98:	d12e      	bne.n	2df8 <nfc_cli_action_alloc+0x78>
            nfc_cli_action_free(instance);
    2d9a:	4620      	mov	r0, r4
    2d9c:	4b22      	ldr	r3, [pc, #136]	@ (2e28 <nfc_cli_action_alloc+0xa8>)
    2d9e:	4798      	blx	r3
            instance->action = action;
    2da0:	6065      	str	r5, [r4, #4]
            if(action->alloc && action->free) {
    2da2:	696b      	ldr	r3, [r5, #20]
    2da4:	b19b      	cbz	r3, 2dce <nfc_cli_action_alloc+0x4e>
    2da6:	69aa      	ldr	r2, [r5, #24]
    2da8:	b18a      	cbz	r2, 2dce <nfc_cli_action_alloc+0x4e>
                FURI_LOG_D(TAG, "Allocating context for action \"%s\"", action->name);
    2daa:	682b      	ldr	r3, [r5, #0]
    2dac:	4a1f      	ldr	r2, [pc, #124]	@ (2e2c <nfc_cli_action_alloc+0xac>)
    2dae:	4920      	ldr	r1, [pc, #128]	@ (2e30 <nfc_cli_action_alloc+0xb0>)
    2db0:	2005      	movs	r0, #5
    2db2:	4e20      	ldr	r6, [pc, #128]	@ (2e34 <nfc_cli_action_alloc+0xb4>)
    2db4:	47b0      	blx	r6
                instance->action_context = instance->action->alloc(instance->nfc);
    2db6:	6863      	ldr	r3, [r4, #4]
    2db8:	695b      	ldr	r3, [r3, #20]
    2dba:	6920      	ldr	r0, [r4, #16]
    2dbc:	4798      	blx	r3
    2dbe:	6160      	str	r0, [r4, #20]
    2dc0:	e020      	b.n	2e04 <nfc_cli_action_alloc+0x84>
            furi_string_printf(instance->error_message, "Action not found");
    2dc2:	491d      	ldr	r1, [pc, #116]	@ (2e38 <nfc_cli_action_alloc+0xb8>)
    2dc4:	69a0      	ldr	r0, [r4, #24]
    2dc6:	4b1d      	ldr	r3, [pc, #116]	@ (2e3c <nfc_cli_action_alloc+0xbc>)
    2dc8:	4798      	blx	r3
            result = NfcCliProcessorErrorActionNotFound;
    2dca:	2002      	movs	r0, #2
            break;
    2dcc:	e026      	b.n	2e1c <nfc_cli_action_alloc+0x9c>
            } else if(action->alloc && (action->free == NULL)) {
    2dce:	b10b      	cbz	r3, 2dd4 <nfc_cli_action_alloc+0x54>
    2dd0:	69ab      	ldr	r3, [r5, #24]
    2dd2:	b143      	cbz	r3, 2de6 <nfc_cli_action_alloc+0x66>
                FURI_LOG_D(TAG, "No alloc context callback for action \"%s\"", action->name);
    2dd4:	682b      	ldr	r3, [r5, #0]
    2dd6:	4a1a      	ldr	r2, [pc, #104]	@ (2e40 <nfc_cli_action_alloc+0xc0>)
    2dd8:	4915      	ldr	r1, [pc, #84]	@ (2e30 <nfc_cli_action_alloc+0xb0>)
    2dda:	2005      	movs	r0, #5
    2ddc:	4e15      	ldr	r6, [pc, #84]	@ (2e34 <nfc_cli_action_alloc+0xb4>)
    2dde:	47b0      	blx	r6
                instance->action_context = NULL;
    2de0:	2300      	movs	r3, #0
    2de2:	6163      	str	r3, [r4, #20]
    2de4:	e00e      	b.n	2e04 <nfc_cli_action_alloc+0x84>
                FURI_LOG_W(
    2de6:	682b      	ldr	r3, [r5, #0]
    2de8:	4a16      	ldr	r2, [pc, #88]	@ (2e44 <nfc_cli_action_alloc+0xc4>)
    2dea:	4911      	ldr	r1, [pc, #68]	@ (2e30 <nfc_cli_action_alloc+0xb0>)
    2dec:	2003      	movs	r0, #3
    2dee:	4e11      	ldr	r6, [pc, #68]	@ (2e34 <nfc_cli_action_alloc+0xb4>)
    2df0:	47b0      	blx	r6
                instance->action_context = NULL;
    2df2:	2300      	movs	r3, #0
    2df4:	6163      	str	r3, [r4, #20]
    2df6:	e005      	b.n	2e04 <nfc_cli_action_alloc+0x84>
            FURI_LOG_D(TAG, "Reusing context from previous \"%s\" action", action->name);
    2df8:	682b      	ldr	r3, [r5, #0]
    2dfa:	4a13      	ldr	r2, [pc, #76]	@ (2e48 <nfc_cli_action_alloc+0xc8>)
    2dfc:	490c      	ldr	r1, [pc, #48]	@ (2e30 <nfc_cli_action_alloc+0xb0>)
    2dfe:	2005      	movs	r0, #5
    2e00:	4e0c      	ldr	r6, [pc, #48]	@ (2e34 <nfc_cli_action_alloc+0xb4>)
    2e02:	47b0      	blx	r6
        memset(instance->keys_found, 0, NFC_CLI_KEYS_FOUND_SIZE_BYTES);
    2e04:	2228      	movs	r2, #40	@ 0x28
    2e06:	2100      	movs	r1, #0
    2e08:	68a0      	ldr	r0, [r4, #8]
    2e0a:	4b10      	ldr	r3, [pc, #64]	@ (2e4c <nfc_cli_action_alloc+0xcc>)
    2e0c:	4798      	blx	r3
        instance->required_keys_expected = nfc_cli_action_get_required_keys_count(action);
    2e0e:	4628      	mov	r0, r5
    2e10:	4b0f      	ldr	r3, [pc, #60]	@ (2e50 <nfc_cli_action_alloc+0xd0>)
    2e12:	4798      	blx	r3
    2e14:	7360      	strb	r0, [r4, #13]
        instance->required_keys_found = 0;
    2e16:	2000      	movs	r0, #0
    2e18:	73a0      	strb	r0, [r4, #14]
        instance->total_keys_found = 0;
    2e1a:	7320      	strb	r0, [r4, #12]
}
    2e1c:	bd70      	pop	{r4, r5, r6, pc}
    2e1e:	bf00      	nop
	...
    2e2c:	00001884 	.word	0x00001884
    2e30:	00001860 	.word	0x00001860
    2e34:	00000000 	.word	0x00000000
    2e38:	00001870 	.word	0x00001870
    2e3c:	00000000 	.word	0x00000000
    2e40:	000018fc 	.word	0x000018fc
    2e44:	000018a8 	.word	0x000018a8
    2e48:	00001928 	.word	0x00001928
	...

00002e54 <nfc_cli_get_argument_type>:
static NfcCliArgumentType nfc_cli_get_argument_type(FuriString* argument) {
    2e54:	b570      	push	{r4, r5, r6, lr}
    2e56:	4604      	mov	r4, r0
    size_t arg_len = furi_string_size(argument);
    2e58:	4b11      	ldr	r3, [pc, #68]	@ (2ea0 <nfc_cli_get_argument_type+0x4c>)
    2e5a:	4798      	blx	r3
    if(arg_len > 2) {
    2e5c:	2802      	cmp	r0, #2
    2e5e:	d803      	bhi.n	2e68 <nfc_cli_get_argument_type+0x14>
    } else if(arg_len == 2) {
    2e60:	2802      	cmp	r0, #2
    2e62:	d013      	beq.n	2e8c <nfc_cli_get_argument_type+0x38>
    NfcCliArgumentType type = NfcCliArgumentTypeUnknown;
    2e64:	2003      	movs	r0, #3
}
    2e66:	bd70      	pop	{r4, r5, r6, pc}
        char ch1 = furi_string_get_char(argument, 0);
    2e68:	2100      	movs	r1, #0
    2e6a:	4620      	mov	r0, r4
    2e6c:	4e0d      	ldr	r6, [pc, #52]	@ (2ea4 <nfc_cli_get_argument_type+0x50>)
    2e6e:	47b0      	blx	r6
    2e70:	4605      	mov	r5, r0
        char ch2 = furi_string_get_char(argument, 1);
    2e72:	2101      	movs	r1, #1
    2e74:	4620      	mov	r0, r4
    2e76:	47b0      	blx	r6
        if(ch1 == '-') {
    2e78:	2d2d      	cmp	r5, #45	@ 0x2d
    2e7a:	d001      	beq.n	2e80 <nfc_cli_get_argument_type+0x2c>
    NfcCliArgumentType type = NfcCliArgumentTypeUnknown;
    2e7c:	2003      	movs	r0, #3
    2e7e:	e7f2      	b.n	2e66 <nfc_cli_get_argument_type+0x12>
            type = (ch2 == '-') ? NfcCliArgumentTypeLongNameKey :
    2e80:	282d      	cmp	r0, #45	@ 0x2d
    2e82:	d001      	beq.n	2e88 <nfc_cli_get_argument_type+0x34>
    2e84:	2001      	movs	r0, #1
    2e86:	e7ee      	b.n	2e66 <nfc_cli_get_argument_type+0x12>
    2e88:	2002      	movs	r0, #2
    2e8a:	e7ec      	b.n	2e66 <nfc_cli_get_argument_type+0x12>
        char ch1 = furi_string_get_char(argument, 0);
    2e8c:	2100      	movs	r1, #0
    2e8e:	4620      	mov	r0, r4
    2e90:	4b04      	ldr	r3, [pc, #16]	@ (2ea4 <nfc_cli_get_argument_type+0x50>)
    2e92:	4798      	blx	r3
        type = (ch1 == '-') ? NfcCliArgumentTypeShortNameKey : NfcCliArgumentTypeUnknown;
    2e94:	282d      	cmp	r0, #45	@ 0x2d
    2e96:	d001      	beq.n	2e9c <nfc_cli_get_argument_type+0x48>
    2e98:	2003      	movs	r0, #3
    2e9a:	e7e4      	b.n	2e66 <nfc_cli_get_argument_type+0x12>
    2e9c:	2000      	movs	r0, #0
    2e9e:	e7e2      	b.n	2e66 <nfc_cli_get_argument_type+0x12>
	...

00002ea8 <nfc_cli_trim_multivalue_arg>:

static void nfc_cli_trim_multivalue_arg(FuriString* args, FuriString* value) {
    2ea8:	b570      	push	{r4, r5, r6, lr}
    2eaa:	4606      	mov	r6, r0
    2eac:	460c      	mov	r4, r1
    furi_string_set(value, args);
    2eae:	4601      	mov	r1, r0
    2eb0:	4620      	mov	r0, r4
    2eb2:	4b0c      	ldr	r3, [pc, #48]	@ (2ee4 <nfc_cli_trim_multivalue_arg+0x3c>)
    2eb4:	4798      	blx	r3
    size_t index = furi_string_search_char(value, '-', 0);
    2eb6:	2200      	movs	r2, #0
    2eb8:	212d      	movs	r1, #45	@ 0x2d
    2eba:	4620      	mov	r0, r4
    2ebc:	4b0a      	ldr	r3, [pc, #40]	@ (2ee8 <nfc_cli_trim_multivalue_arg+0x40>)
    2ebe:	4798      	blx	r3
    if(index != STRING_FAILURE) {
    2ec0:	f1b0 3fff 	cmp.w	r0, #4294967295	@ 0xffffffff
    2ec4:	d009      	beq.n	2eda <nfc_cli_trim_multivalue_arg+0x32>
    2ec6:	4605      	mov	r5, r0
        furi_string_left(value, index);
    2ec8:	4601      	mov	r1, r0
    2eca:	4620      	mov	r0, r4
    2ecc:	4b07      	ldr	r3, [pc, #28]	@ (2eec <nfc_cli_trim_multivalue_arg+0x44>)
    2ece:	4798      	blx	r3
        furi_string_right(args, index);
    2ed0:	4629      	mov	r1, r5
    2ed2:	4630      	mov	r0, r6
    2ed4:	4b06      	ldr	r3, [pc, #24]	@ (2ef0 <nfc_cli_trim_multivalue_arg+0x48>)
    2ed6:	4798      	blx	r3
    } else {
        furi_string_reset(args);
    }
}
    2ed8:	bd70      	pop	{r4, r5, r6, pc}
        furi_string_reset(args);
    2eda:	4630      	mov	r0, r6
    2edc:	4b05      	ldr	r3, [pc, #20]	@ (2ef4 <nfc_cli_trim_multivalue_arg+0x4c>)
    2ede:	4798      	blx	r3
}
    2ee0:	e7fa      	b.n	2ed8 <nfc_cli_trim_multivalue_arg+0x30>
    2ee2:	bf00      	nop
	...

00002ef8 <nfc_cli_parse_single_key>:

static NfcCliProcessorError nfc_cli_parse_single_key(
    NfcCliProcessorContext* instance,
    FuriString* argument,
    FuriString* args,
    bool from_group) {
    2ef8:	e92d 4ff8 	stmdb	sp!, {r3, r4, r5, r6, r7, r8, r9, sl, fp, lr}
    2efc:	4604      	mov	r4, r0
    2efe:	460d      	mov	r5, r1
    2f00:	4691      	mov	r9, r2
    2f02:	469b      	mov	fp, r3
    FuriString* value_str = furi_string_alloc();
    2f04:	4b59      	ldr	r3, [pc, #356]	@ (306c <nfc_cli_parse_single_key+0x174>)
    2f06:	4798      	blx	r3
    2f08:	4606      	mov	r6, r0

    NfcCliProcessorError result = NfcCliProcessorErrorNone;
    do {
        const NfcCliKeyDescriptor* key =
            nfc_cli_action_get_key_descriptor(instance->action, argument);
    2f0a:	4629      	mov	r1, r5
    2f0c:	6860      	ldr	r0, [r4, #4]
    2f0e:	4b58      	ldr	r3, [pc, #352]	@ (3070 <nfc_cli_parse_single_key+0x178>)
    2f10:	4798      	blx	r3
        if(key == NULL) {
    2f12:	2800      	cmp	r0, #0
    2f14:	d040      	beq.n	2f98 <nfc_cli_parse_single_key+0xa0>
    2f16:	4680      	mov	r8, r0
                result = NfcCliProcessorErrorKeyNotSupported;
            }
            break;
        }

        if(key->features.parameter && from_group) {
    2f18:	7807      	ldrb	r7, [r0, #0]
    2f1a:	f017 0a02 	ands.w	sl, r7, #2
    2f1e:	d002      	beq.n	2f26 <nfc_cli_parse_single_key+0x2e>
    2f20:	f1bb 0f00 	cmp.w	fp, #0
    2f24:	d14a      	bne.n	2fbc <nfc_cli_parse_single_key+0xc4>
                furi_string_get_cstr(argument));
            result = NfcCliProcessorErrorKeyParameterInGroup;
            break;
        }

        if(nfc_cli_check_duplicate_keys(instance, key)) {
    2f26:	4641      	mov	r1, r8
    2f28:	4620      	mov	r0, r4
    2f2a:	4b52      	ldr	r3, [pc, #328]	@ (3074 <nfc_cli_parse_single_key+0x17c>)
    2f2c:	4798      	blx	r3
    2f2e:	2800      	cmp	r0, #0
    2f30:	d14f      	bne.n	2fd2 <nfc_cli_parse_single_key+0xda>
                instance->error_message, "Duplicated key \'%s\'", furi_string_get_cstr(argument));
            result = NfcCliProcessorErrorKeyDuplication;
            break;
        }

        if(key->features.multivalue && !key->features.parameter) break;
    2f32:	f017 0704 	ands.w	r7, r7, #4
    2f36:	d005      	beq.n	2f44 <nfc_cli_parse_single_key+0x4c>
    2f38:	f898 3000 	ldrb.w	r3, [r8]
    2f3c:	f013 0f02 	tst.w	r3, #2
    2f40:	f000 8091 	beq.w	3066 <nfc_cli_parse_single_key+0x16e>
        if(key->features.multivalue) {
    2f44:	2f00      	cmp	r7, #0
    2f46:	d154      	bne.n	2ff2 <nfc_cli_parse_single_key+0xfa>
            nfc_cli_trim_multivalue_arg(args, value_str);
            FURI_LOG_D(TAG, "Multivalue: %s", furi_string_get_cstr(value_str));
        } else if(key->features.parameter && !args_read_string_and_trim(args, value_str)) {
    2f48:	f1ba 0f00 	cmp.w	sl, #0
    2f4c:	d15f      	bne.n	300e <nfc_cli_parse_single_key+0x116>
                "Missing value for \'%s\'",
                furi_string_get_cstr(argument));
            break;
        }

        if(key->parse == NULL) {
    2f4e:	f8d8 3010 	ldr.w	r3, [r8, #16]
    2f52:	2b00      	cmp	r3, #0
    2f54:	d06c      	beq.n	3030 <nfc_cli_parse_single_key+0x138>
                furi_string_get_cstr(argument));
            result = NfcCliProcessorErrorKeyParseError;
            break;
        }

        FURI_LOG_D(TAG, "Parsing key \"%s\"", furi_string_get_cstr(argument));
    2f56:	4628      	mov	r0, r5
    2f58:	4b47      	ldr	r3, [pc, #284]	@ (3078 <nfc_cli_parse_single_key+0x180>)
    2f5a:	4798      	blx	r3
    2f5c:	4603      	mov	r3, r0
    2f5e:	4a47      	ldr	r2, [pc, #284]	@ (307c <nfc_cli_parse_single_key+0x184>)
    2f60:	4947      	ldr	r1, [pc, #284]	@ (3080 <nfc_cli_parse_single_key+0x188>)
    2f62:	2005      	movs	r0, #5
    2f64:	4f47      	ldr	r7, [pc, #284]	@ (3084 <nfc_cli_parse_single_key+0x18c>)
    2f66:	47b8      	blx	r7
        if(!key->parse(value_str, instance->action_context)) {
    2f68:	f8d8 3010 	ldr.w	r3, [r8, #16]
    2f6c:	6961      	ldr	r1, [r4, #20]
    2f6e:	4630      	mov	r0, r6
    2f70:	4798      	blx	r3
    2f72:	2800      	cmp	r0, #0
    2f74:	d067      	beq.n	3046 <nfc_cli_parse_single_key+0x14e>
                furi_string_get_cstr(argument));
            result = NfcCliProcessorErrorKeyParseError;
            break;
        }

        instance->keys_found[instance->total_keys_found] = key;
    2f76:	68a3      	ldr	r3, [r4, #8]
    2f78:	7b22      	ldrb	r2, [r4, #12]
    2f7a:	f843 8022 	str.w	r8, [r3, r2, lsl #2]
        instance->total_keys_found++;
    2f7e:	7b23      	ldrb	r3, [r4, #12]
    2f80:	3301      	adds	r3, #1
    2f82:	7323      	strb	r3, [r4, #12]
        if(key->features.required) instance->required_keys_found++;
    2f84:	f898 5000 	ldrb.w	r5, [r8]
    2f88:	f015 0501 	ands.w	r5, r5, #1
    2f8c:	d02b      	beq.n	2fe6 <nfc_cli_parse_single_key+0xee>
    2f8e:	7ba3      	ldrb	r3, [r4, #14]
    2f90:	3301      	adds	r3, #1
    2f92:	73a3      	strb	r3, [r4, #14]
    NfcCliProcessorError result = NfcCliProcessorErrorNone;
    2f94:	2500      	movs	r5, #0
    2f96:	e026      	b.n	2fe6 <nfc_cli_parse_single_key+0xee>
            if(furi_string_equal_str(argument, "h"))
    2f98:	493b      	ldr	r1, [pc, #236]	@ (3088 <nfc_cli_parse_single_key+0x190>)
    2f9a:	4628      	mov	r0, r5
    2f9c:	4b3b      	ldr	r3, [pc, #236]	@ (308c <nfc_cli_parse_single_key+0x194>)
    2f9e:	4798      	blx	r3
    2fa0:	b108      	cbz	r0, 2fa6 <nfc_cli_parse_single_key+0xae>
                result = NfcCliProcessorErrorNoneButHelp;
    2fa2:	2501      	movs	r5, #1
    2fa4:	e01f      	b.n	2fe6 <nfc_cli_parse_single_key+0xee>
                furi_string_printf(
    2fa6:	69a4      	ldr	r4, [r4, #24]
    2fa8:	4628      	mov	r0, r5
    2faa:	4b33      	ldr	r3, [pc, #204]	@ (3078 <nfc_cli_parse_single_key+0x180>)
    2fac:	4798      	blx	r3
    2fae:	4602      	mov	r2, r0
    2fb0:	4937      	ldr	r1, [pc, #220]	@ (3090 <nfc_cli_parse_single_key+0x198>)
    2fb2:	4620      	mov	r0, r4
    2fb4:	4b37      	ldr	r3, [pc, #220]	@ (3094 <nfc_cli_parse_single_key+0x19c>)
    2fb6:	4798      	blx	r3
                result = NfcCliProcessorErrorKeyNotSupported;
    2fb8:	2503      	movs	r5, #3
    2fba:	e014      	b.n	2fe6 <nfc_cli_parse_single_key+0xee>
            furi_string_printf(
    2fbc:	69a4      	ldr	r4, [r4, #24]
    2fbe:	4628      	mov	r0, r5
    2fc0:	4b2d      	ldr	r3, [pc, #180]	@ (3078 <nfc_cli_parse_single_key+0x180>)
    2fc2:	4798      	blx	r3
    2fc4:	4602      	mov	r2, r0
    2fc6:	4934      	ldr	r1, [pc, #208]	@ (3098 <nfc_cli_parse_single_key+0x1a0>)
    2fc8:	4620      	mov	r0, r4
    2fca:	4b32      	ldr	r3, [pc, #200]	@ (3094 <nfc_cli_parse_single_key+0x19c>)
    2fcc:	4798      	blx	r3
            result = NfcCliProcessorErrorKeyParameterInGroup;
    2fce:	2504      	movs	r5, #4
            break;
    2fd0:	e009      	b.n	2fe6 <nfc_cli_parse_single_key+0xee>
            furi_string_printf(
    2fd2:	69a4      	ldr	r4, [r4, #24]
    2fd4:	4628      	mov	r0, r5
    2fd6:	4b28      	ldr	r3, [pc, #160]	@ (3078 <nfc_cli_parse_single_key+0x180>)
    2fd8:	4798      	blx	r3
    2fda:	4602      	mov	r2, r0
    2fdc:	492f      	ldr	r1, [pc, #188]	@ (309c <nfc_cli_parse_single_key+0x1a4>)
    2fde:	4620      	mov	r0, r4
    2fe0:	4b2c      	ldr	r3, [pc, #176]	@ (3094 <nfc_cli_parse_single_key+0x19c>)
    2fe2:	4798      	blx	r3
            result = NfcCliProcessorErrorKeyDuplication;
    2fe4:	2506      	movs	r5, #6
    } while(false);
    furi_string_free(value_str);
    2fe6:	4630      	mov	r0, r6
    2fe8:	4b2d      	ldr	r3, [pc, #180]	@ (30a0 <nfc_cli_parse_single_key+0x1a8>)
    2fea:	4798      	blx	r3

    return result;
}
    2fec:	4628      	mov	r0, r5
    2fee:	e8bd 8ff8 	ldmia.w	sp!, {r3, r4, r5, r6, r7, r8, r9, sl, fp, pc}
            nfc_cli_trim_multivalue_arg(args, value_str);
    2ff2:	4631      	mov	r1, r6
    2ff4:	4648      	mov	r0, r9
    2ff6:	4b2b      	ldr	r3, [pc, #172]	@ (30a4 <nfc_cli_parse_single_key+0x1ac>)
    2ff8:	4798      	blx	r3
            FURI_LOG_D(TAG, "Multivalue: %s", furi_string_get_cstr(value_str));
    2ffa:	4630      	mov	r0, r6
    2ffc:	4b1e      	ldr	r3, [pc, #120]	@ (3078 <nfc_cli_parse_single_key+0x180>)
    2ffe:	4798      	blx	r3
    3000:	4603      	mov	r3, r0
    3002:	4a29      	ldr	r2, [pc, #164]	@ (30a8 <nfc_cli_parse_single_key+0x1b0>)
    3004:	491e      	ldr	r1, [pc, #120]	@ (3080 <nfc_cli_parse_single_key+0x188>)
    3006:	2005      	movs	r0, #5
    3008:	4f1e      	ldr	r7, [pc, #120]	@ (3084 <nfc_cli_parse_single_key+0x18c>)
    300a:	47b8      	blx	r7
    300c:	e79f      	b.n	2f4e <nfc_cli_parse_single_key+0x56>
        } else if(key->features.parameter && !args_read_string_and_trim(args, value_str)) {
    300e:	4631      	mov	r1, r6
    3010:	4648      	mov	r0, r9
    3012:	4b26      	ldr	r3, [pc, #152]	@ (30ac <nfc_cli_parse_single_key+0x1b4>)
    3014:	4798      	blx	r3
    3016:	2800      	cmp	r0, #0
    3018:	d199      	bne.n	2f4e <nfc_cli_parse_single_key+0x56>
            furi_string_printf(
    301a:	69a4      	ldr	r4, [r4, #24]
    301c:	4628      	mov	r0, r5
    301e:	4b16      	ldr	r3, [pc, #88]	@ (3078 <nfc_cli_parse_single_key+0x180>)
    3020:	4798      	blx	r3
    3022:	4602      	mov	r2, r0
    3024:	4922      	ldr	r1, [pc, #136]	@ (30b0 <nfc_cli_parse_single_key+0x1b8>)
    3026:	4620      	mov	r0, r4
    3028:	4b1a      	ldr	r3, [pc, #104]	@ (3094 <nfc_cli_parse_single_key+0x19c>)
    302a:	4798      	blx	r3
            result = NfcCliProcessorErrorKeyParameterValueMissing;
    302c:	2505      	movs	r5, #5
            break;
    302e:	e7da      	b.n	2fe6 <nfc_cli_parse_single_key+0xee>
            furi_string_printf(
    3030:	69a4      	ldr	r4, [r4, #24]
    3032:	4628      	mov	r0, r5
    3034:	4b10      	ldr	r3, [pc, #64]	@ (3078 <nfc_cli_parse_single_key+0x180>)
    3036:	4798      	blx	r3
    3038:	4602      	mov	r2, r0
    303a:	491e      	ldr	r1, [pc, #120]	@ (30b4 <nfc_cli_parse_single_key+0x1bc>)
    303c:	4620      	mov	r0, r4
    303e:	4b15      	ldr	r3, [pc, #84]	@ (3094 <nfc_cli_parse_single_key+0x19c>)
    3040:	4798      	blx	r3
            result = NfcCliProcessorErrorKeyParseError;
    3042:	2507      	movs	r5, #7
            break;
    3044:	e7cf      	b.n	2fe6 <nfc_cli_parse_single_key+0xee>
            furi_string_printf(
    3046:	f8d4 8018 	ldr.w	r8, [r4, #24]
    304a:	4630      	mov	r0, r6
    304c:	4f0a      	ldr	r7, [pc, #40]	@ (3078 <nfc_cli_parse_single_key+0x180>)
    304e:	47b8      	blx	r7
    3050:	4604      	mov	r4, r0
    3052:	4628      	mov	r0, r5
    3054:	47b8      	blx	r7
    3056:	4603      	mov	r3, r0
    3058:	4622      	mov	r2, r4
    305a:	4917      	ldr	r1, [pc, #92]	@ (30b8 <nfc_cli_parse_single_key+0x1c0>)
    305c:	4640      	mov	r0, r8
    305e:	4c0d      	ldr	r4, [pc, #52]	@ (3094 <nfc_cli_parse_single_key+0x19c>)
    3060:	47a0      	blx	r4
            result = NfcCliProcessorErrorKeyParseError;
    3062:	2507      	movs	r5, #7
            break;
    3064:	e7bf      	b.n	2fe6 <nfc_cli_parse_single_key+0xee>
    NfcCliProcessorError result = NfcCliProcessorErrorNone;
    3066:	2500      	movs	r5, #0
    3068:	e7bd      	b.n	2fe6 <nfc_cli_parse_single_key+0xee>
    306a:	bf00      	nop
	...
    307c:	000019fc 	.word	0x000019fc
    3080:	00001860 	.word	0x00001860
    3084:	00000000 	.word	0x00000000
    3088:	00001954 	.word	0x00001954
    308c:	00000000 	.word	0x00000000
    3090:	00001958 	.word	0x00001958
    3094:	00000000 	.word	0x00000000
    3098:	00001974 	.word	0x00001974
    309c:	00001998 	.word	0x00001998
	...
    30a8:	000019ac 	.word	0x000019ac
    30ac:	00000000 	.word	0x00000000
    30b0:	000019bc 	.word	0x000019bc
    30b4:	000019d4 	.word	0x000019d4
    30b8:	00001a10 	.word	0x00001a10

000030bc <nfc_cli_parse_group_key>:

static NfcCliProcessorError
    nfc_cli_parse_group_key(NfcCliProcessorContext* instance, FuriString* argument) {
    30bc:	e92d 41f0 	stmdb	sp!, {r4, r5, r6, r7, r8, lr}
    30c0:	4680      	mov	r8, r0
    30c2:	460d      	mov	r5, r1
    NfcCliProcessorError result = NfcCliProcessorErrorNone;
    FURI_LOG_D(TAG, "Parsing key group\"%s\"", furi_string_get_cstr(argument));
    30c4:	4608      	mov	r0, r1
    30c6:	4b14      	ldr	r3, [pc, #80]	@ (3118 <nfc_cli_parse_group_key+0x5c>)
    30c8:	4798      	blx	r3
    30ca:	4603      	mov	r3, r0
    30cc:	4a13      	ldr	r2, [pc, #76]	@ (311c <nfc_cli_parse_group_key+0x60>)
    30ce:	4914      	ldr	r1, [pc, #80]	@ (3120 <nfc_cli_parse_group_key+0x64>)
    30d0:	2005      	movs	r0, #5
    30d2:	4c14      	ldr	r4, [pc, #80]	@ (3124 <nfc_cli_parse_group_key+0x68>)
    30d4:	47a0      	blx	r4

    FuriString* arg_buf = furi_string_alloc();
    30d6:	4b14      	ldr	r3, [pc, #80]	@ (3128 <nfc_cli_parse_group_key+0x6c>)
    30d8:	4798      	blx	r3
    30da:	4606      	mov	r6, r0
    for(size_t i = 0; i < furi_string_size(argument); i++) {
    30dc:	2400      	movs	r4, #0
    NfcCliProcessorError result = NfcCliProcessorErrorNone;
    30de:	4627      	mov	r7, r4
    for(size_t i = 0; i < furi_string_size(argument); i++) {
    30e0:	e000      	b.n	30e4 <nfc_cli_parse_group_key+0x28>
    30e2:	3401      	adds	r4, #1
    30e4:	4628      	mov	r0, r5
    30e6:	4b11      	ldr	r3, [pc, #68]	@ (312c <nfc_cli_parse_group_key+0x70>)
    30e8:	4798      	blx	r3
    30ea:	42a0      	cmp	r0, r4
    30ec:	d90e      	bls.n	310c <nfc_cli_parse_group_key+0x50>
        furi_string_set_n(arg_buf, argument, i, 1);
    30ee:	2301      	movs	r3, #1
    30f0:	4622      	mov	r2, r4
    30f2:	4629      	mov	r1, r5
    30f4:	4630      	mov	r0, r6
    30f6:	4f0e      	ldr	r7, [pc, #56]	@ (3130 <nfc_cli_parse_group_key+0x74>)
    30f8:	47b8      	blx	r7
        result = nfc_cli_parse_single_key(instance, arg_buf, NULL, true);
    30fa:	2301      	movs	r3, #1
    30fc:	2200      	movs	r2, #0
    30fe:	4631      	mov	r1, r6
    3100:	4640      	mov	r0, r8
    3102:	4f0c      	ldr	r7, [pc, #48]	@ (3134 <nfc_cli_parse_group_key+0x78>)
    3104:	47b8      	blx	r7
        if(result != NfcCliProcessorErrorNone) break;
    3106:	4607      	mov	r7, r0
    3108:	2800      	cmp	r0, #0
    310a:	d0ea      	beq.n	30e2 <nfc_cli_parse_group_key+0x26>
    }
    furi_string_free(arg_buf);
    310c:	4630      	mov	r0, r6
    310e:	4b0a      	ldr	r3, [pc, #40]	@ (3138 <nfc_cli_parse_group_key+0x7c>)
    3110:	4798      	blx	r3

    return result;
}
    3112:	4638      	mov	r0, r7
    3114:	e8bd 81f0 	ldmia.w	sp!, {r4, r5, r6, r7, r8, pc}
    3118:	00000000 	.word	0x00000000
    311c:	00001a38 	.word	0x00001a38
    3120:	00001860 	.word	0x00001860
	...

0000313c <nfc_cli_parse_argument>:

static NfcCliProcessorError nfc_cli_parse_argument(
    NfcCliProcessorContext* instance,
    FuriString* argument,
    FuriString* args) {
    313c:	b5f8      	push	{r3, r4, r5, r6, r7, lr}
    313e:	4606      	mov	r6, r0
    3140:	460f      	mov	r7, r1
    3142:	4615      	mov	r5, r2
    NfcCliArgumentType type = nfc_cli_get_argument_type(argument);
    3144:	4608      	mov	r0, r1
    3146:	4b14      	ldr	r3, [pc, #80]	@ (3198 <nfc_cli_parse_argument+0x5c>)
    3148:	4798      	blx	r3
    314a:	4604      	mov	r4, r0

    furi_string_trim(argument, "-");
    314c:	4913      	ldr	r1, [pc, #76]	@ (319c <nfc_cli_parse_argument+0x60>)
    314e:	4638      	mov	r0, r7
    3150:	4b13      	ldr	r3, [pc, #76]	@ (31a0 <nfc_cli_parse_argument+0x64>)
    3152:	4798      	blx	r3

    NfcCliProcessorError result = NfcCliProcessorErrorNone;

    if(type == NfcCliArgumentTypeShortNameKeyGroup)
    3154:	2c01      	cmp	r4, #1
    3156:	d006      	beq.n	3166 <nfc_cli_parse_argument+0x2a>
        result = nfc_cli_parse_group_key(instance, argument);
    else if((type == NfcCliArgumentTypeShortNameKey) || (type == NfcCliArgumentTypeLongNameKey)) {
    3158:	b15c      	cbz	r4, 3172 <nfc_cli_parse_argument+0x36>
    315a:	2c02      	cmp	r4, #2
    315c:	d009      	beq.n	3172 <nfc_cli_parse_argument+0x36>
        result = nfc_cli_parse_single_key(instance, argument, args, false);
    } else if(type == NfcCliArgumentTypeUnknown) { //-V547
    315e:	2c03      	cmp	r4, #3
    3160:	d010      	beq.n	3184 <nfc_cli_parse_argument+0x48>
    NfcCliProcessorError result = NfcCliProcessorErrorNone;
    3162:	2400      	movs	r4, #0
    3164:	e00c      	b.n	3180 <nfc_cli_parse_argument+0x44>
        result = nfc_cli_parse_group_key(instance, argument);
    3166:	4639      	mov	r1, r7
    3168:	4630      	mov	r0, r6
    316a:	4b0e      	ldr	r3, [pc, #56]	@ (31a4 <nfc_cli_parse_argument+0x68>)
    316c:	4798      	blx	r3
    316e:	4604      	mov	r4, r0
    3170:	e006      	b.n	3180 <nfc_cli_parse_argument+0x44>
        result = nfc_cli_parse_single_key(instance, argument, args, false);
    3172:	2300      	movs	r3, #0
    3174:	462a      	mov	r2, r5
    3176:	4639      	mov	r1, r7
    3178:	4630      	mov	r0, r6
    317a:	4c0b      	ldr	r4, [pc, #44]	@ (31a8 <nfc_cli_parse_argument+0x6c>)
    317c:	47a0      	blx	r4
    317e:	4604      	mov	r4, r0
            "Key \'%s\' is not supported",
            furi_string_get_cstr(argument));
    }

    return result;
}
    3180:	4620      	mov	r0, r4
    3182:	bdf8      	pop	{r3, r4, r5, r6, r7, pc}
        furi_string_printf(
    3184:	69b5      	ldr	r5, [r6, #24]
    3186:	4638      	mov	r0, r7
    3188:	4b08      	ldr	r3, [pc, #32]	@ (31ac <nfc_cli_parse_argument+0x70>)
    318a:	4798      	blx	r3
    318c:	4602      	mov	r2, r0
    318e:	4908      	ldr	r1, [pc, #32]	@ (31b0 <nfc_cli_parse_argument+0x74>)
    3190:	4628      	mov	r0, r5
    3192:	4b08      	ldr	r3, [pc, #32]	@ (31b4 <nfc_cli_parse_argument+0x78>)
    3194:	4798      	blx	r3
    3196:	e7f3      	b.n	3180 <nfc_cli_parse_argument+0x44>
    3198:	00000000 	.word	0x00000000
    319c:	00001a50 	.word	0x00001a50
	...
    31b0:	00001958 	.word	0x00001958
    31b4:	00000000 	.word	0x00000000

000031b8 <nfc_cli_process_arguments>:

static NfcCliProcessorError
    nfc_cli_process_arguments(NfcCliProcessorContext* instance, FuriString* args) {
    31b8:	b5f8      	push	{r3, r4, r5, r6, r7, lr}
    31ba:	4606      	mov	r6, r0
    31bc:	460d      	mov	r5, r1
    NfcCliProcessorError result = NfcCliProcessorErrorNone;

    FuriString* argument = furi_string_alloc();
    31be:	4b10      	ldr	r3, [pc, #64]	@ (3200 <nfc_cli_process_arguments+0x48>)
    31c0:	4798      	blx	r3
    31c2:	4604      	mov	r4, r0
    NfcCliProcessorError result = NfcCliProcessorErrorNone;
    31c4:	2700      	movs	r7, #0
    while(args_read_string_and_trim(args, argument)) {
    31c6:	4621      	mov	r1, r4
    31c8:	4628      	mov	r0, r5
    31ca:	4b0e      	ldr	r3, [pc, #56]	@ (3204 <nfc_cli_process_arguments+0x4c>)
    31cc:	4798      	blx	r3
    31ce:	b138      	cbz	r0, 31e0 <nfc_cli_process_arguments+0x28>
        result = nfc_cli_parse_argument(instance, argument, args);
    31d0:	462a      	mov	r2, r5
    31d2:	4621      	mov	r1, r4
    31d4:	4630      	mov	r0, r6
    31d6:	4b0c      	ldr	r3, [pc, #48]	@ (3208 <nfc_cli_process_arguments+0x50>)
    31d8:	4798      	blx	r3
        if(result != NfcCliProcessorErrorNone) break;
    31da:	4607      	mov	r7, r0
    31dc:	2800      	cmp	r0, #0
    31de:	d0f2      	beq.n	31c6 <nfc_cli_process_arguments+0xe>
    }
    furi_string_free(argument);
    31e0:	4620      	mov	r0, r4
    31e2:	4b0a      	ldr	r3, [pc, #40]	@ (320c <nfc_cli_process_arguments+0x54>)
    31e4:	4798      	blx	r3

    if((result == NfcCliProcessorErrorNone) &&
    31e6:	b91f      	cbnz	r7, 31f0 <nfc_cli_process_arguments+0x38>
       (instance->required_keys_expected != instance->required_keys_found)) {
    31e8:	7b72      	ldrb	r2, [r6, #13]
    31ea:	7bb3      	ldrb	r3, [r6, #14]
    if((result == NfcCliProcessorErrorNone) &&
    31ec:	429a      	cmp	r2, r3
    31ee:	d101      	bne.n	31f4 <nfc_cli_process_arguments+0x3c>
        furi_string_printf(instance->error_message, "Some required keys missing");
        result = NfcCliProcessorErrorKeyRequiredMissing;
    }

    return result;
}
    31f0:	4638      	mov	r0, r7
    31f2:	bdf8      	pop	{r3, r4, r5, r6, r7, pc}
        furi_string_printf(instance->error_message, "Some required keys missing");
    31f4:	4906      	ldr	r1, [pc, #24]	@ (3210 <nfc_cli_process_arguments+0x58>)
    31f6:	69b0      	ldr	r0, [r6, #24]
    31f8:	4b06      	ldr	r3, [pc, #24]	@ (3214 <nfc_cli_process_arguments+0x5c>)
    31fa:	4798      	blx	r3
        result = NfcCliProcessorErrorKeyRequiredMissing;
    31fc:	2708      	movs	r7, #8
    31fe:	e7f7      	b.n	31f0 <nfc_cli_process_arguments+0x38>
	...
    3210:	00001a54 	.word	0x00001a54
    3214:	00000000 	.word	0x00000000

00003218 <nfc_cli_command_process_error>:

static inline void nfc_cli_command_process_error(
    const NfcCliProcessorContext* instance,
    NfcCliProcessorError error) {
    do {
        if(error == NfcCliProcessorErrorNone) break;
    3218:	b1f1      	cbz	r1, 3258 <nfc_cli_command_process_error+0x40>
    NfcCliProcessorError error) {
    321a:	b538      	push	{r3, r4, r5, lr}
    321c:	4604      	mov	r4, r0
    321e:	460d      	mov	r5, r1

        if(error != NfcCliProcessorErrorNoneButHelp)
    3220:	2901      	cmp	r1, #1
    3222:	d008      	beq.n	3236 <nfc_cli_command_process_error+0x1e>
            printf(
    3224:	6980      	ldr	r0, [r0, #24]
    3226:	4b0d      	ldr	r3, [pc, #52]	@ (325c <nfc_cli_command_process_error+0x44>)
    3228:	4798      	blx	r3
    322a:	4601      	mov	r1, r0
    322c:	480c      	ldr	r0, [pc, #48]	@ (3260 <nfc_cli_command_process_error+0x48>)
    322e:	4b0d      	ldr	r3, [pc, #52]	@ (3264 <nfc_cli_command_process_error+0x4c>)
    3230:	4798      	blx	r3
                ANSI_FG_RED "Error: %s\r\n" ANSI_RESET,
                furi_string_get_cstr(instance->error_message));

        if(error == NfcCliProcessorErrorActionNotFound)
    3232:	2d02      	cmp	r5, #2
    3234:	d00b      	beq.n	324e <nfc_cli_command_process_error+0x36>
            nfc_cli_command_format_info(instance->cmd, instance->error_message);
        else
            nfc_cli_action_format_info(instance->action, instance->error_message);
    3236:	69a1      	ldr	r1, [r4, #24]
    3238:	6860      	ldr	r0, [r4, #4]
    323a:	4b0b      	ldr	r3, [pc, #44]	@ (3268 <nfc_cli_command_process_error+0x50>)
    323c:	4798      	blx	r3

        printf("\n%s", furi_string_get_cstr(instance->error_message));
    323e:	69a0      	ldr	r0, [r4, #24]
    3240:	4b06      	ldr	r3, [pc, #24]	@ (325c <nfc_cli_command_process_error+0x44>)
    3242:	4798      	blx	r3
    3244:	4601      	mov	r1, r0
    3246:	4809      	ldr	r0, [pc, #36]	@ (326c <nfc_cli_command_process_error+0x54>)
    3248:	4b06      	ldr	r3, [pc, #24]	@ (3264 <nfc_cli_command_process_error+0x4c>)
    324a:	4798      	blx	r3
    } while(false);
}
    324c:	bd38      	pop	{r3, r4, r5, pc}
            nfc_cli_command_format_info(instance->cmd, instance->error_message);
    324e:	69a1      	ldr	r1, [r4, #24]
    3250:	6820      	ldr	r0, [r4, #0]
    3252:	4b07      	ldr	r3, [pc, #28]	@ (3270 <nfc_cli_command_process_error+0x58>)
    3254:	4798      	blx	r3
    3256:	e7f2      	b.n	323e <nfc_cli_command_process_error+0x26>
    3258:	4770      	bx	lr
    325a:	bf00      	nop
    325c:	00000000 	.word	0x00000000
    3260:	00001a70 	.word	0x00001a70
	...
    326c:	00001a88 	.word	0x00001a88
    3270:	00000000 	.word	0x00000000

00003274 <nfc_cli_command_processor_run>:

void nfc_cli_command_processor_run(
    const NfcCliCommandDescriptor* cmd,
    PipeSide* pipe,
    FuriString* args,
    void* context) {
    3274:	b5f8      	push	{r3, r4, r5, r6, r7, lr}
    furi_assert(pipe);
    3276:	b1a1      	cbz	r1, 32a2 <nfc_cli_command_processor_run+0x2e>
    3278:	4605      	mov	r5, r0
    327a:	4616      	mov	r6, r2
    327c:	461c      	mov	r4, r3
    327e:	460f      	mov	r7, r1
    furi_assert(cmd);
    3280:	b198      	cbz	r0, 32aa <sukima1721+0x4>
    furi_assert(args);
    3282:	b1b2      	cbz	r2, 32b2 <sukima1742+0x4>
    NfcCliProcessorContext* instance = context;
    furi_string_reset(instance->error_message);
    3284:	6998      	ldr	r0, [r3, #24]
    3286:	4b17      	ldr	r3, [pc, #92]	@ (32e4 <sukima1763+0x2e>)
    3288:	4798      	blx	r3

    NfcCliProcessorError error = NfcCliProcessorErrorNone;
    instance->cmd = cmd;
    328a:	6025      	str	r5, [r4, #0]
    do {
        error = nfc_cli_action_alloc(instance, args);
    328c:	4631      	mov	r1, r6
    328e:	4620      	mov	r0, r4
    3290:	4b15      	ldr	r3, [pc, #84]	@ (32e8 <sukima1763+0x32>)
    3292:	4798      	blx	r3
        if(error != NfcCliProcessorErrorNone) break;
    3294:	4605      	mov	r5, r0
    3296:	b180      	cbz	r0, 32ba <sukima1763+0x4>
        } else {
            FURI_LOG_W(TAG, "Action execute callback missing");
        }
    } while(false);

    nfc_cli_command_process_error(instance, error);
    3298:	4629      	mov	r1, r5
    329a:	4620      	mov	r0, r4
    329c:	4b13      	ldr	r3, [pc, #76]	@ (32ec <sukima1763+0x36>)
    329e:	4798      	blx	r3
}
    32a0:	bdf8      	pop	{r3, r4, r5, r6, r7, pc}
    furi_assert(pipe);
    32a2:	f04f 0c01 	mov.w	ip, #1

000032a6 <sukima1721>:
    32a6:	4b12      	ldr	r3, [pc, #72]	@ (32f0 <sukima1763+0x3a>)
    32a8:	4798      	blx	r3
    furi_assert(cmd);
    32aa:	f04f 0c01 	mov.w	ip, #1

000032ae <sukima1742>:
    32ae:	4b10      	ldr	r3, [pc, #64]	@ (32f0 <sukima1763+0x3a>)
    32b0:	4798      	blx	r3
    furi_assert(args);
    32b2:	f04f 0c01 	mov.w	ip, #1

000032b6 <sukima1763>:
    32b6:	4b0e      	ldr	r3, [pc, #56]	@ (32f0 <sukima1763+0x3a>)
    32b8:	4798      	blx	r3
        error = nfc_cli_process_arguments(instance, args);
    32ba:	4631      	mov	r1, r6
    32bc:	4620      	mov	r0, r4
    32be:	4b0d      	ldr	r3, [pc, #52]	@ (32f4 <sukima1763+0x3e>)
    32c0:	4798      	blx	r3
        if(error != NfcCliProcessorErrorNone) break;
    32c2:	4605      	mov	r5, r0
    32c4:	2800      	cmp	r0, #0
    32c6:	d1e7      	bne.n	3298 <nfc_cli_command_processor_run+0x24>
        if(instance->action && instance->action->execute) {
    32c8:	6863      	ldr	r3, [r4, #4]
    32ca:	b12b      	cbz	r3, 32d8 <sukima1763+0x22>
    32cc:	691b      	ldr	r3, [r3, #16]
    32ce:	b11b      	cbz	r3, 32d8 <sukima1763+0x22>
            instance->action->execute(pipe, instance->action_context);
    32d0:	6961      	ldr	r1, [r4, #20]
    32d2:	4638      	mov	r0, r7
    32d4:	4798      	blx	r3
    32d6:	e7df      	b.n	3298 <nfc_cli_command_processor_run+0x24>
            FURI_LOG_W(TAG, "Action execute callback missing");
    32d8:	4a07      	ldr	r2, [pc, #28]	@ (32f8 <sukima1763+0x42>)
    32da:	4908      	ldr	r1, [pc, #32]	@ (32fc <sukima1763+0x46>)
    32dc:	2003      	movs	r0, #3
    32de:	4b08      	ldr	r3, [pc, #32]	@ (3300 <sukima1763+0x4a>)
    32e0:	4798      	blx	r3
    32e2:	e7d9      	b.n	3298 <nfc_cli_command_processor_run+0x24>
	...
    32f8:	00001a8c 	.word	0x00001a8c
    32fc:	00001860 	.word	0x00001860
    3300:	00000000 	.word	0x00000000

00003304 <nfc_cli_command_processor_alloc>:

NfcCliProcessorContext* nfc_cli_command_processor_alloc(Nfc* nfc) {
    3304:	b570      	push	{r4, r5, r6, lr}
    furi_assert(nfc);
    3306:	b188      	cbz	r0, 332c <nfc_cli_command_processor_alloc+0x28>
    3308:	4606      	mov	r6, r0
    NfcCliProcessorContext* instance = malloc(sizeof(NfcCliProcessorContext));
    330a:	201c      	movs	r0, #28
    330c:	4d09      	ldr	r5, [pc, #36]	@ (3334 <sukima1899+0x4>)
    330e:	47a8      	blx	r5
    3310:	4604      	mov	r4, r0
    instance->nfc = nfc;
    3312:	6106      	str	r6, [r0, #16]
    instance->keys_found = malloc(NFC_CLI_KEYS_FOUND_SIZE_BYTES);
    3314:	2028      	movs	r0, #40	@ 0x28
    3316:	47a8      	blx	r5
    3318:	60a0      	str	r0, [r4, #8]
    instance->total_keys_found = 0;
    331a:	2300      	movs	r3, #0
    331c:	7323      	strb	r3, [r4, #12]
    instance->required_keys_found = 0;
    331e:	73a3      	strb	r3, [r4, #14]
    instance->required_keys_expected = 0;
    3320:	7363      	strb	r3, [r4, #13]

    instance->error_message = furi_string_alloc();
    3322:	4b05      	ldr	r3, [pc, #20]	@ (3338 <sukima1899+0x8>)
    3324:	4798      	blx	r3
    3326:	61a0      	str	r0, [r4, #24]
    return instance;
}
    3328:	4620      	mov	r0, r4
    332a:	bd70      	pop	{r4, r5, r6, pc}
    furi_assert(nfc);
    332c:	f04f 0c01 	mov.w	ip, #1

00003330 <sukima1899>:
    3330:	4b02      	ldr	r3, [pc, #8]	@ (333c <sukima1899+0xc>)
    3332:	4798      	blx	r3
	...

00003340 <nfc_cli_command_processor_free>:

void nfc_cli_command_processor_free(NfcCliProcessorContext* instance) {
    3340:	b538      	push	{r3, r4, r5, lr}
    furi_assert(instance);
    3342:	b168      	cbz	r0, 3360 <nfc_cli_command_processor_free+0x20>
    3344:	4604      	mov	r4, r0
    nfc_cli_action_free(instance);
    3346:	4b08      	ldr	r3, [pc, #32]	@ (3368 <sukima1966+0x4>)
    3348:	4798      	blx	r3
    free(instance->keys_found);
    334a:	68a0      	ldr	r0, [r4, #8]
    334c:	4d07      	ldr	r5, [pc, #28]	@ (336c <sukima1966+0x8>)
    334e:	47a8      	blx	r5
    furi_string_free(instance->error_message);
    3350:	69a0      	ldr	r0, [r4, #24]
    3352:	4b07      	ldr	r3, [pc, #28]	@ (3370 <sukima1966+0xc>)
    3354:	4798      	blx	r3

    instance->nfc = NULL;
    3356:	2300      	movs	r3, #0
    3358:	6123      	str	r3, [r4, #16]
    free(instance);
    335a:	4620      	mov	r0, r4
    335c:	47a8      	blx	r5
}
    335e:	bd38      	pop	{r3, r4, r5, pc}
    furi_assert(instance);
    3360:	f04f 0c01 	mov.w	ip, #1

00003364 <sukima1966>:
    3364:	4b03      	ldr	r3, [pc, #12]	@ (3374 <sukima1966+0x10>)
    3366:	4798      	blx	r3
	...

00003378 <nfc_cli_raw_iso14443_3b_process_error>:
#define TAG "ISO14B"

#define BIT_BUFFER_EMPTY(buffer) ((bit_buffer_get_size_bytes(buffer) == 0))

static NfcCliRawError nfc_cli_raw_iso14443_3b_process_error(Iso14443_3bError error) {
    switch(error) {
    3378:	2807      	cmp	r0, #7
    337a:	d809      	bhi.n	3390 <nfc_cli_raw_iso14443_3b_process_error+0x18>
    337c:	e8df f000 	tbb	[pc, r0]
    3380:	0808060b 	.word	0x0808060b
    3384:	0a040808 	.word	0x0a040808
    case Iso14443_3bErrorNone:
        return NfcCliRawErrorNone;
    case Iso14443_3bErrorTimeout:
        return NfcCliRawErrorTimeout;
    case Iso14443_3bErrorWrongCrc:
        return NfcCliRawErrorWrongCrc;
    3388:	2003      	movs	r0, #3
    338a:	4770      	bx	lr
    case Iso14443_3bErrorNotPresent:
        return NfcCliRawErrorNotPresent;
    338c:	2002      	movs	r0, #2
    338e:	4770      	bx	lr
    default:
        return NfcCliRawErrorProtocol;
    3390:	2004      	movs	r0, #4
    3392:	4770      	bx	lr
        return NfcCliRawErrorTimeout;
    3394:	2001      	movs	r0, #1
    }
}
    3396:	4770      	bx	lr

00003398 <nfc_cli_raw_iso14443_3b_poller_process_error>:

static Iso14443_3bError nfc_cli_raw_iso14443_3b_poller_process_error(NfcError error) {
    switch(error) {
    3398:	b118      	cbz	r0, 33a2 <nfc_cli_raw_iso14443_3b_poller_process_error+0xa>
    339a:	2802      	cmp	r0, #2
    339c:	d102      	bne.n	33a4 <nfc_cli_raw_iso14443_3b_poller_process_error+0xc>
    case NfcErrorNone:
        return Iso14443_3bErrorNone;
    case NfcErrorTimeout:
        return Iso14443_3bErrorTimeout;
    339e:	2007      	movs	r0, #7
    33a0:	4770      	bx	lr
    33a2:	4770      	bx	lr
    default:
        return Iso14443_3bErrorNotPresent;
    33a4:	2001      	movs	r0, #1
    }
}
    33a6:	4770      	bx	lr

000033a8 <iso14443_3b_format_activation_data>:

static void iso14443_3b_format_activation_data(const Iso14443_3bData* data, FuriString* output) {
    33a8:	b570      	push	{r4, r5, r6, lr}
    33aa:	b084      	sub	sp, #16
    33ac:	4604      	mov	r4, r0
    33ae:	460d      	mov	r5, r1
    nfc_cli_format_array(data->uid, ISO14443_3B_UID_SIZE, "UID: ", output);
    33b0:	460b      	mov	r3, r1
    33b2:	4a0c      	ldr	r2, [pc, #48]	@ (33e4 <iso14443_3b_format_activation_data+0x3c>)
    33b4:	2104      	movs	r1, #4
    33b6:	4e0c      	ldr	r6, [pc, #48]	@ (33e8 <iso14443_3b_format_activation_data+0x40>)
    33b8:	47b0      	blx	r6
    const Iso14443_3bProtocolInfo* info = &data->protocol_info;
    furi_string_cat_printf(
        output,
        " BitRate: %d, Protocol: %d, Max Frame Size: %d, Fo: %d, Adc: %d, Fwi: %d",
        info->bit_rate_capability,
        info->protocol_type,
    33ba:	7a63      	ldrb	r3, [r4, #9]
        info->max_frame_size,
    33bc:	0919      	lsrs	r1, r3, #4
        info->fo,
    33be:	7aa2      	ldrb	r2, [r4, #10]
    33c0:	f002 0003 	and.w	r0, r2, #3
        info->adc,
    33c4:	f3c2 0681 	ubfx	r6, r2, #2, #2
        info->fwi);
    33c8:	0912      	lsrs	r2, r2, #4
    furi_string_cat_printf(
    33ca:	9203      	str	r2, [sp, #12]
    33cc:	9602      	str	r6, [sp, #8]
    33ce:	9001      	str	r0, [sp, #4]
    33d0:	9100      	str	r1, [sp, #0]
    33d2:	f003 030f 	and.w	r3, r3, #15
    33d6:	7a22      	ldrb	r2, [r4, #8]
    33d8:	4904      	ldr	r1, [pc, #16]	@ (33ec <iso14443_3b_format_activation_data+0x44>)
    33da:	4628      	mov	r0, r5
    33dc:	4c04      	ldr	r4, [pc, #16]	@ (33f0 <iso14443_3b_format_activation_data+0x48>)
    33de:	47a0      	blx	r4
}
    33e0:	b004      	add	sp, #16
    33e2:	bd70      	pop	{r4, r5, r6, pc}
    33e4:	00001aac 	.word	0x00001aac
    33e8:	00000000 	.word	0x00000000
    33ec:	00001ab4 	.word	0x00001ab4
    33f0:	00000000 	.word	0x00000000

000033f4 <nfc_cli_raw_iso14443_3b_activate>:

static inline NfcCliRawError nfc_cli_raw_iso14443_3b_activate(
    NfcGenericInstance* poller,
    Iso14443_3bData* iso3b_data,
    FuriString* activation_string) {
    33f4:	b570      	push	{r4, r5, r6, lr}
    33f6:	4605      	mov	r5, r0
    33f8:	460c      	mov	r4, r1
    33fa:	4616      	mov	r6, r2
    FURI_LOG_D(TAG, "Activating...");
    33fc:	4a09      	ldr	r2, [pc, #36]	@ (3424 <nfc_cli_raw_iso14443_3b_activate+0x30>)
    33fe:	490a      	ldr	r1, [pc, #40]	@ (3428 <nfc_cli_raw_iso14443_3b_activate+0x34>)
    3400:	2005      	movs	r0, #5
    3402:	4b0a      	ldr	r3, [pc, #40]	@ (342c <nfc_cli_raw_iso14443_3b_activate+0x38>)
    3404:	4798      	blx	r3

    Iso14443_3bError error = iso14443_3b_poller_activate(poller, iso3b_data);
    3406:	4621      	mov	r1, r4
    3408:	4628      	mov	r0, r5
    340a:	4b09      	ldr	r3, [pc, #36]	@ (3430 <nfc_cli_raw_iso14443_3b_activate+0x3c>)
    340c:	4798      	blx	r3
    if(error == Iso14443_3bErrorNone)
    340e:	4605      	mov	r5, r0
    3410:	b118      	cbz	r0, 341a <nfc_cli_raw_iso14443_3b_activate+0x26>
        iso14443_3b_format_activation_data(iso3b_data, activation_string);

    return nfc_cli_raw_iso14443_3b_process_error(error);
    3412:	4628      	mov	r0, r5
    3414:	4b07      	ldr	r3, [pc, #28]	@ (3434 <nfc_cli_raw_iso14443_3b_activate+0x40>)
    3416:	4798      	blx	r3
}
    3418:	bd70      	pop	{r4, r5, r6, pc}
        iso14443_3b_format_activation_data(iso3b_data, activation_string);
    341a:	4631      	mov	r1, r6
    341c:	4620      	mov	r0, r4
    341e:	4b06      	ldr	r3, [pc, #24]	@ (3438 <nfc_cli_raw_iso14443_3b_activate+0x44>)
    3420:	4798      	blx	r3
    3422:	e7f6      	b.n	3412 <nfc_cli_raw_iso14443_3b_activate+0x1e>
    3424:	00001b00 	.word	0x00001b00
    3428:	00001b10 	.word	0x00001b10
	...

0000343c <nfc_cli_raw_iso14443_3b_txrx>:

static inline NfcCliRawError nfc_cli_raw_iso14443_3b_txrx(
    NfcGenericInstance* poller,
    BitBuffer* tx_buffer,
    BitBuffer* rx_buffer,
    uint32_t timeout) {
    343c:	b5f8      	push	{r3, r4, r5, r6, r7, lr}
    343e:	4605      	mov	r5, r0
    3440:	460e      	mov	r6, r1
    3442:	4614      	mov	r4, r2
    3444:	461f      	mov	r7, r3
    FURI_LOG_D(TAG, "TxRx");
    3446:	4a0f      	ldr	r2, [pc, #60]	@ (3484 <nfc_cli_raw_iso14443_3b_txrx+0x48>)
    3448:	490f      	ldr	r1, [pc, #60]	@ (3488 <nfc_cli_raw_iso14443_3b_txrx+0x4c>)
    344a:	2005      	movs	r0, #5
    344c:	4b0f      	ldr	r3, [pc, #60]	@ (348c <nfc_cli_raw_iso14443_3b_txrx+0x50>)
    344e:	4798      	blx	r3
    Iso14443_3bPoller* iso14b_poller = poller;

    bit_buffer_reset(rx_buffer);
    3450:	4620      	mov	r0, r4
    3452:	4b0f      	ldr	r3, [pc, #60]	@ (3490 <nfc_cli_raw_iso14443_3b_txrx+0x54>)
    3454:	4798      	blx	r3

    Iso14443_3bError error = Iso14443_3bErrorNone;

    NfcError nfc_error = nfc_poller_trx(iso14b_poller->nfc, tx_buffer, rx_buffer, timeout);
    3456:	463b      	mov	r3, r7
    3458:	4622      	mov	r2, r4
    345a:	4631      	mov	r1, r6
    345c:	6828      	ldr	r0, [r5, #0]
    345e:	4d0d      	ldr	r5, [pc, #52]	@ (3494 <nfc_cli_raw_iso14443_3b_txrx+0x58>)
    3460:	47a8      	blx	r5
    if(nfc_error != NfcErrorNone) {
    3462:	4605      	mov	r5, r0
    3464:	b130      	cbz	r0, 3474 <nfc_cli_raw_iso14443_3b_txrx+0x38>
        error = nfc_cli_raw_iso14443_3b_poller_process_error(nfc_error);
    3466:	4b0c      	ldr	r3, [pc, #48]	@ (3498 <nfc_cli_raw_iso14443_3b_txrx+0x5c>)
    3468:	4798      	blx	r3
    346a:	4605      	mov	r5, r0
    } else if(!iso14443_crc_check(Iso14443CrcTypeB, rx_buffer)) {
        error = Iso14443_3bErrorWrongCrc;
    }

    return nfc_cli_raw_iso14443_3b_process_error(error);
    346c:	4628      	mov	r0, r5
    346e:	4b0b      	ldr	r3, [pc, #44]	@ (349c <nfc_cli_raw_iso14443_3b_txrx+0x60>)
    3470:	4798      	blx	r3
}
    3472:	bdf8      	pop	{r3, r4, r5, r6, r7, pc}
    } else if(!iso14443_crc_check(Iso14443CrcTypeB, rx_buffer)) {
    3474:	4621      	mov	r1, r4
    3476:	2001      	movs	r0, #1
    3478:	4b09      	ldr	r3, [pc, #36]	@ (34a0 <nfc_cli_raw_iso14443_3b_txrx+0x64>)
    347a:	4798      	blx	r3
    347c:	2800      	cmp	r0, #0
    347e:	d1f5      	bne.n	346c <nfc_cli_raw_iso14443_3b_txrx+0x30>
        error = Iso14443_3bErrorWrongCrc;
    3480:	2506      	movs	r5, #6
    3482:	e7f3      	b.n	346c <nfc_cli_raw_iso14443_3b_txrx+0x30>
    3484:	00001b18 	.word	0x00001b18
    3488:	00001b10 	.word	0x00001b10
	...

000034a4 <nfc_cli_raw_iso14443_3b_handler>:

NfcCommand nfc_cli_raw_iso14443_3b_handler(
    NfcGenericInstance* poller,
    const NfcCliRawRequest* request,
    NfcCliRawResponse* const response) {
    34a4:	e92d 41f0 	stmdb	sp!, {r4, r5, r6, r7, r8, lr}
    34a8:	b084      	sub	sp, #16
    34aa:	4607      	mov	r7, r0
    34ac:	460d      	mov	r5, r1
    34ae:	4614      	mov	r4, r2
    Iso14443_3bData iso3b_data = {0};
    34b0:	2300      	movs	r3, #0
    34b2:	9301      	str	r3, [sp, #4]
    34b4:	9302      	str	r3, [sp, #8]
    34b6:	f8cd 300b 	str.w	r3, [sp, #11]
    bool activated = false;
    do {
        response->result = NfcCliRawErrorNone;
    34ba:	7013      	strb	r3, [r2, #0]
        if(request->select) {
    34bc:	780e      	ldrb	r6, [r1, #0]
    34be:	b946      	cbnz	r6, 34d2 <nfc_cli_raw_iso14443_3b_handler+0x2e>
            response->result =
                nfc_cli_raw_iso14443_3b_activate(poller, &iso3b_data, response->activation_string);
            activated = response->result == NfcCliRawErrorNone;
        }

        if(response->result != NfcCliRawErrorNone) break;
    34c0:	7823      	ldrb	r3, [r4, #0]
    34c2:	b17b      	cbz	r3, 34e4 <nfc_cli_raw_iso14443_3b_handler+0x40>
        }

        response->result =
            nfc_cli_raw_iso14443_3b_txrx(poller, request->tx_buffer, response->rx_buffer, timeout);
    } while(false);
    return request->keep_field ? NfcCommandContinue : NfcCommandStop;
    34c4:	786b      	ldrb	r3, [r5, #1]
    34c6:	2b00      	cmp	r3, #0
    34c8:	d032      	beq.n	3530 <nfc_cli_raw_iso14443_3b_handler+0x8c>
    34ca:	2000      	movs	r0, #0
}
    34cc:	b004      	add	sp, #16
    34ce:	e8bd 81f0 	ldmia.w	sp!, {r4, r5, r6, r7, r8, pc}
                nfc_cli_raw_iso14443_3b_activate(poller, &iso3b_data, response->activation_string);
    34d2:	6892      	ldr	r2, [r2, #8]
    34d4:	a901      	add	r1, sp, #4
    34d6:	4b17      	ldr	r3, [pc, #92]	@ (3534 <nfc_cli_raw_iso14443_3b_handler+0x90>)
    34d8:	4798      	blx	r3
            response->result =
    34da:	7020      	strb	r0, [r4, #0]
            activated = response->result == NfcCliRawErrorNone;
    34dc:	fab0 f680 	clz	r6, r0
    34e0:	0976      	lsrs	r6, r6, #5
    34e2:	e7ed      	b.n	34c0 <nfc_cli_raw_iso14443_3b_handler+0x1c>
        if(BIT_BUFFER_EMPTY(request->tx_buffer)) break;
    34e4:	6868      	ldr	r0, [r5, #4]
    34e6:	4b14      	ldr	r3, [pc, #80]	@ (3538 <nfc_cli_raw_iso14443_3b_handler+0x94>)
    34e8:	4798      	blx	r3
    34ea:	2800      	cmp	r0, #0
    34ec:	d0ea      	beq.n	34c4 <nfc_cli_raw_iso14443_3b_handler+0x20>
        if(request->timeout > 0) {
    34ee:	f8d5 8008 	ldr.w	r8, [r5, #8]
    34f2:	f1b8 0f00 	cmp.w	r8, #0
    34f6:	d102      	bne.n	34fe <nfc_cli_raw_iso14443_3b_handler+0x5a>
        } else if(activated) {
    34f8:	b95e      	cbnz	r6, 3512 <nfc_cli_raw_iso14443_3b_handler+0x6e>
        uint32_t timeout = ISO14443_3B_FDT_POLL_FC;
    34fa:	f242 3828 	movw	r8, #9000	@ 0x2328
        if(request->append_crc) {
    34fe:	78ab      	ldrb	r3, [r5, #2]
    3500:	b963      	cbnz	r3, 351c <nfc_cli_raw_iso14443_3b_handler+0x78>
            nfc_cli_raw_iso14443_3b_txrx(poller, request->tx_buffer, response->rx_buffer, timeout);
    3502:	4643      	mov	r3, r8
    3504:	6862      	ldr	r2, [r4, #4]
    3506:	6869      	ldr	r1, [r5, #4]
    3508:	4638      	mov	r0, r7
    350a:	4e0c      	ldr	r6, [pc, #48]	@ (353c <nfc_cli_raw_iso14443_3b_handler+0x98>)
    350c:	47b0      	blx	r6
        response->result =
    350e:	7020      	strb	r0, [r4, #0]
    3510:	e7d8      	b.n	34c4 <nfc_cli_raw_iso14443_3b_handler+0x20>
            timeout = iso14443_3b_get_fwt_fc_max(&iso3b_data);
    3512:	a801      	add	r0, sp, #4
    3514:	4b0a      	ldr	r3, [pc, #40]	@ (3540 <nfc_cli_raw_iso14443_3b_handler+0x9c>)
    3516:	4798      	blx	r3
    3518:	4680      	mov	r8, r0
    351a:	e7f0      	b.n	34fe <nfc_cli_raw_iso14443_3b_handler+0x5a>
            FURI_LOG_D(TAG, "Add CRC");
    351c:	4a09      	ldr	r2, [pc, #36]	@ (3544 <nfc_cli_raw_iso14443_3b_handler+0xa0>)
    351e:	490a      	ldr	r1, [pc, #40]	@ (3548 <nfc_cli_raw_iso14443_3b_handler+0xa4>)
    3520:	2005      	movs	r0, #5
    3522:	4b0a      	ldr	r3, [pc, #40]	@ (354c <nfc_cli_raw_iso14443_3b_handler+0xa8>)
    3524:	4798      	blx	r3
            iso14443_crc_append(Iso14443CrcTypeB, request->tx_buffer);
    3526:	6869      	ldr	r1, [r5, #4]
    3528:	2001      	movs	r0, #1
    352a:	4b09      	ldr	r3, [pc, #36]	@ (3550 <nfc_cli_raw_iso14443_3b_handler+0xac>)
    352c:	4798      	blx	r3
    352e:	e7e8      	b.n	3502 <nfc_cli_raw_iso14443_3b_handler+0x5e>
    return request->keep_field ? NfcCommandContinue : NfcCommandStop;
    3530:	2002      	movs	r0, #2
    3532:	e7cb      	b.n	34cc <nfc_cli_raw_iso14443_3b_handler+0x28>
	...
    3544:	00001b20 	.word	0x00001b20
    3548:	00001b10 	.word	0x00001b10
	...

00003554 <nfc_cli_dump_poller_callback_st25tb>:
#include "nfc_cli_dump_st25tb.h"
#include <nfc/protocols/st25tb/st25tb_poller.h>

NfcCommand nfc_cli_dump_poller_callback_st25tb(NfcGenericEvent event, void* context) {
    3554:	b530      	push	{r4, r5, lr}
    3556:	b085      	sub	sp, #20
    3558:	ac04      	add	r4, sp, #16
    355a:	e904 0007 	stmdb	r4, {r0, r1, r2}
    furi_assert(event.protocol == NfcProtocolSt25tb);
    355e:	f89d 2004 	ldrb.w	r2, [sp, #4]
    3562:	2a0b      	cmp	r2, #11
    3564:	d10b      	bne.n	357e <nfc_cli_dump_poller_callback_st25tb+0x2a>
    3566:	461c      	mov	r4, r3

    NfcCliDumpContext* instance = context;
    const St25tbPollerEvent* st25tb_event = event.event_data;
    3568:	9903      	ldr	r1, [sp, #12]

    NfcCommand command = NfcCommandContinue;

    if(st25tb_event->type == St25tbPollerEventTypeRequestMode) {
    356a:	780a      	ldrb	r2, [r1, #0]
    356c:	2a01      	cmp	r2, #1
    356e:	d00a      	beq.n	3586 <sukima76+0x4>
        st25tb_event->data->mode_request.mode = St25tbPollerModeRead;
    } else if(st25tb_event->type == St25tbPollerEventTypeSuccess) {
    3570:	2a03      	cmp	r2, #3
    3572:	d00c      	beq.n	358e <sukima76+0xc>
        nfc_device_set_data(
            instance->nfc_device, NfcProtocolSt25tb, nfc_poller_get_data(instance->poller));
        instance->result = NfcCliDumpErrorNone;
        command = NfcCommandStop;
    } else if(st25tb_event->type == St25tbPollerEventTypeFailure) {
    3574:	2a02      	cmp	r2, #2
    3576:	d016      	beq.n	35a6 <sukima76+0x24>
    NfcCommand command = NfcCommandContinue;
    3578:	2000      	movs	r0, #0
    if(command == NfcCommandStop) {
        furi_semaphore_release(instance->sem_done);
    }

    return command;
}
    357a:	b005      	add	sp, #20
    357c:	bd30      	pop	{r4, r5, pc}
    furi_assert(event.protocol == NfcProtocolSt25tb);
    357e:	f04f 0c01 	mov.w	ip, #1

00003582 <sukima76>:
    3582:	4b0c      	ldr	r3, [pc, #48]	@ (35b4 <sukima76+0x32>)
    3584:	4798      	blx	r3
        st25tb_event->data->mode_request.mode = St25tbPollerModeRead;
    3586:	684b      	ldr	r3, [r1, #4]
    3588:	2000      	movs	r0, #0
    358a:	7018      	strb	r0, [r3, #0]
    if(command == NfcCommandStop) {
    358c:	e7f5      	b.n	357a <nfc_cli_dump_poller_callback_st25tb+0x26>
        nfc_device_set_data(
    358e:	6b9d      	ldr	r5, [r3, #56]	@ 0x38
    3590:	6b58      	ldr	r0, [r3, #52]	@ 0x34
    3592:	4b09      	ldr	r3, [pc, #36]	@ (35b8 <sukima76+0x36>)
    3594:	4798      	blx	r3
    3596:	4602      	mov	r2, r0
    3598:	210b      	movs	r1, #11
    359a:	4628      	mov	r0, r5
    359c:	4b07      	ldr	r3, [pc, #28]	@ (35bc <sukima76+0x3a>)
    359e:	4798      	blx	r3
        instance->result = NfcCliDumpErrorNone;
    35a0:	2300      	movs	r3, #0
    35a2:	7723      	strb	r3, [r4, #28]
    if(command == NfcCommandStop) {
    35a4:	e001      	b.n	35aa <sukima76+0x28>
        instance->result = NfcCliDumpErrorFailedToRead;
    35a6:	2303      	movs	r3, #3
    35a8:	7723      	strb	r3, [r4, #28]
        furi_semaphore_release(instance->sem_done);
    35aa:	69a0      	ldr	r0, [r4, #24]
    35ac:	4b04      	ldr	r3, [pc, #16]	@ (35c0 <sukima76+0x3e>)
    35ae:	4798      	blx	r3
    35b0:	2002      	movs	r0, #2
    35b2:	e7e2      	b.n	357a <nfc_cli_dump_poller_callback_st25tb+0x26>
	...

000035c4 <nfc_cli_dump_poller_callback_mf_plus>:
#include "nfc_cli_dump_mf_plus.h"
#include <nfc/protocols/mf_plus/mf_plus_poller.h>

#define TAG "MFPLUS"

NfcCommand nfc_cli_dump_poller_callback_mf_plus(NfcGenericEvent event, void* context) {
    35c4:	b530      	push	{r4, r5, lr}
    35c6:	b085      	sub	sp, #20
    35c8:	ac04      	add	r4, sp, #16
    35ca:	e904 0007 	stmdb	r4, {r0, r1, r2}
    furi_assert(context);
    35ce:	b16b      	cbz	r3, 35ec <nfc_cli_dump_poller_callback_mf_plus+0x28>
    35d0:	461c      	mov	r4, r3
    furi_assert(event.protocol == NfcProtocolMfPlus);
    35d2:	f89d 3004 	ldrb.w	r3, [sp, #4]
    35d6:	2b08      	cmp	r3, #8
    35d8:	d10c      	bne.n	35f4 <sukima85+0x4>
    furi_assert(event.event_data);
    35da:	9b03      	ldr	r3, [sp, #12]
    35dc:	b173      	cbz	r3, 35fc <sukima100+0x4>
    NfcCliDumpContext* instance = context;
    const MfPlusPollerEvent* mf_plus_event = event.event_data;

    NfcCommand command = NfcCommandContinue;

    if(mf_plus_event->type == MfPlusPollerEventTypeReadSuccess) {
    35de:	7818      	ldrb	r0, [r3, #0]
    35e0:	b180      	cbz	r0, 3604 <sukima113+0x4>
        nfc_device_set_data(
            instance->nfc_device, NfcProtocolMfPlus, nfc_poller_get_data(instance->poller));
        instance->result = NfcCliDumpErrorNone;
        command = NfcCommandStop;
    } else if(mf_plus_event->type == MfPlusPollerEventTypeReadFailed) {
    35e2:	2801      	cmp	r0, #1
    35e4:	d01e      	beq.n	3624 <sukima113+0x24>
    NfcCommand command = NfcCommandContinue;
    35e6:	2000      	movs	r0, #0
    if(command == NfcCommandStop) {
        furi_semaphore_release(instance->sem_done);
    }

    return command;
}
    35e8:	b005      	add	sp, #20
    35ea:	bd30      	pop	{r4, r5, pc}
    furi_assert(context);
    35ec:	f04f 0c01 	mov.w	ip, #1

000035f0 <sukima85>:
    35f0:	4b0e      	ldr	r3, [pc, #56]	@ (362c <sukima113+0x2c>)
    35f2:	4798      	blx	r3
    furi_assert(event.protocol == NfcProtocolMfPlus);
    35f4:	f04f 0c01 	mov.w	ip, #1

000035f8 <sukima100>:
    35f8:	4b0c      	ldr	r3, [pc, #48]	@ (362c <sukima113+0x2c>)
    35fa:	4798      	blx	r3
    furi_assert(event.event_data);
    35fc:	f04f 0c01 	mov.w	ip, #1

00003600 <sukima113>:
    3600:	4b0a      	ldr	r3, [pc, #40]	@ (362c <sukima113+0x2c>)
    3602:	4798      	blx	r3
        nfc_device_set_data(
    3604:	6ba5      	ldr	r5, [r4, #56]	@ 0x38
    3606:	6b60      	ldr	r0, [r4, #52]	@ 0x34
    3608:	4b09      	ldr	r3, [pc, #36]	@ (3630 <sukima113+0x30>)
    360a:	4798      	blx	r3
    360c:	4602      	mov	r2, r0
    360e:	2108      	movs	r1, #8
    3610:	4628      	mov	r0, r5
    3612:	4b08      	ldr	r3, [pc, #32]	@ (3634 <sukima113+0x34>)
    3614:	4798      	blx	r3
        instance->result = NfcCliDumpErrorNone;
    3616:	2300      	movs	r3, #0
    3618:	7723      	strb	r3, [r4, #28]
        furi_semaphore_release(instance->sem_done);
    361a:	69a0      	ldr	r0, [r4, #24]
    361c:	4b06      	ldr	r3, [pc, #24]	@ (3638 <sukima113+0x38>)
    361e:	4798      	blx	r3
        command = NfcCommandStop;
    3620:	2002      	movs	r0, #2
    3622:	e7e1      	b.n	35e8 <nfc_cli_dump_poller_callback_mf_plus+0x24>
        instance->result = NfcCliDumpErrorFailedToRead;
    3624:	2303      	movs	r3, #3
    3626:	7723      	strb	r3, [r4, #28]
    if(command == NfcCommandStop) {
    3628:	e7de      	b.n	35e8 <nfc_cli_dump_poller_callback_mf_plus+0x24>
    362a:	bf00      	nop
	...

0000363c <nfc_get_key_cache_file_path>:
    MfClassicDeviceKeys keys;
    MfClassicKeyType current_key_type;
    uint8_t current_sector;
};

static void nfc_get_key_cache_file_path(const uint8_t* uid, size_t uid_len, FuriString* path) {
    363c:	b5f8      	push	{r3, r4, r5, r6, r7, lr}
    363e:	4607      	mov	r7, r0
    3640:	460e      	mov	r6, r1
    3642:	4615      	mov	r5, r2
    furi_string_printf(path, "%s/", NFC_APP_KEY_CACHE_FOLDER);
    3644:	4a0a      	ldr	r2, [pc, #40]	@ (3670 <nfc_get_key_cache_file_path+0x34>)
    3646:	490b      	ldr	r1, [pc, #44]	@ (3674 <nfc_get_key_cache_file_path+0x38>)
    3648:	4628      	mov	r0, r5
    364a:	4b0b      	ldr	r3, [pc, #44]	@ (3678 <nfc_get_key_cache_file_path+0x3c>)
    364c:	4798      	blx	r3
    for(size_t i = 0; i < uid_len; i++) {
    364e:	2400      	movs	r4, #0
    3650:	e005      	b.n	365e <nfc_get_key_cache_file_path+0x22>
        furi_string_cat_printf(path, "%02X", uid[i]);
    3652:	5d3a      	ldrb	r2, [r7, r4]
    3654:	4909      	ldr	r1, [pc, #36]	@ (367c <nfc_get_key_cache_file_path+0x40>)
    3656:	4628      	mov	r0, r5
    3658:	4b09      	ldr	r3, [pc, #36]	@ (3680 <nfc_get_key_cache_file_path+0x44>)
    365a:	4798      	blx	r3
    for(size_t i = 0; i < uid_len; i++) {
    365c:	3401      	adds	r4, #1
    365e:	42b4      	cmp	r4, r6
    3660:	d3f7      	bcc.n	3652 <nfc_get_key_cache_file_path+0x16>
    }
    furi_string_cat_printf(path, "%s", NFC_APP_KEYS_EXTENSION);
    3662:	4a08      	ldr	r2, [pc, #32]	@ (3684 <nfc_get_key_cache_file_path+0x48>)
    3664:	4908      	ldr	r1, [pc, #32]	@ (3688 <nfc_get_key_cache_file_path+0x4c>)
    3666:	4628      	mov	r0, r5
    3668:	4b05      	ldr	r3, [pc, #20]	@ (3680 <nfc_get_key_cache_file_path+0x44>)
    366a:	4798      	blx	r3
}
    366c:	bdf8      	pop	{r3, r4, r5, r6, r7, pc}
    366e:	bf00      	nop
    3670:	00001b28 	.word	0x00001b28
    3674:	00001b38 	.word	0x00001b38
    3678:	00000000 	.word	0x00000000
    367c:	00001b3c 	.word	0x00001b3c
    3680:	00000000 	.word	0x00000000
    3684:	00001b44 	.word	0x00001b44
    3688:	00001b4c 	.word	0x00001b4c

0000368c <mf_classic_key_cache_alloc>:

MfClassicKeyCache* mf_classic_key_cache_alloc(void) {
    368c:	b508      	push	{r3, lr}
    MfClassicKeyCache* instance = malloc(sizeof(MfClassicKeyCache));
    368e:	f44f 70fc 	mov.w	r0, #504	@ 0x1f8
    3692:	4b01      	ldr	r3, [pc, #4]	@ (3698 <mf_classic_key_cache_alloc+0xc>)
    3694:	4798      	blx	r3

    return instance;
}
    3696:	bd08      	pop	{r3, pc}
    3698:	00000000 	.word	0x00000000

0000369c <mf_classic_key_cache_free>:

void mf_classic_key_cache_free(MfClassicKeyCache* instance) {
    369c:	b508      	push	{r3, lr}
    furi_assert(instance);
    369e:	b110      	cbz	r0, 36a6 <mf_classic_key_cache_free+0xa>

    free(instance);
    36a0:	4b03      	ldr	r3, [pc, #12]	@ (36b0 <sukima149+0x6>)
    36a2:	4798      	blx	r3
}
    36a4:	bd08      	pop	{r3, pc}
    furi_assert(instance);
    36a6:	f04f 0c01 	mov.w	ip, #1

000036aa <sukima149>:
    36aa:	4b02      	ldr	r3, [pc, #8]	@ (36b4 <sukima149+0xa>)
    36ac:	4798      	blx	r3
    36ae:	bf00      	nop
	...

000036b8 <mf_classic_key_cache_get_next_key>:

bool mf_classic_key_cache_get_next_key(
    MfClassicKeyCache* instance,
    uint8_t* sector_num,
    MfClassicKey* key,
    MfClassicKeyType* key_type) {
    36b8:	e92d 41f0 	stmdb	sp!, {r4, r5, r6, r7, r8, lr}
    furi_assert(instance);
    36bc:	b3b0      	cbz	r0, 372c <mf_classic_key_cache_get_next_key+0x74>
    36be:	4686      	mov	lr, r0
    furi_assert(sector_num);
    36c0:	2900      	cmp	r1, #0
    36c2:	d037      	beq.n	3734 <sukima706+0x4>
    furi_assert(key);
    36c4:	2a00      	cmp	r2, #0
    36c6:	d039      	beq.n	373c <sukima727+0x4>
    furi_assert(key_type);
    36c8:	2b00      	cmp	r3, #0
    36ca:	d03b      	beq.n	3744 <sukima748+0x4>

    bool next_key_found = false;
    for(uint8_t i = instance->current_sector; i < MF_CLASSIC_TOTAL_SECTORS_MAX; i++) {
    36cc:	f890 c1f1 	ldrb.w	ip, [r0, #497]	@ 0x1f1
    36d0:	f1bc 0f27 	cmp.w	ip, #39	@ 0x27
    36d4:	d87f      	bhi.n	37d6 <sukima769+0x8e>
        if(FURI_BIT(instance->keys.key_a_mask, i)) {
    36d6:	f8de 8000 	ldr.w	r8, [lr]
    36da:	f8de 6004 	ldr.w	r6, [lr, #4]
    36de:	f1cc 0520 	rsb	r5, ip, #32
    36e2:	f1ac 0420 	sub.w	r4, ip, #32
    36e6:	fa28 f00c 	lsr.w	r0, r8, ip
    36ea:	fa06 f505 	lsl.w	r5, r6, r5
    36ee:	4328      	orrs	r0, r5
    36f0:	fa26 f404 	lsr.w	r4, r6, r4
    36f4:	4320      	orrs	r0, r4
    36f6:	f010 0f01 	tst.w	r0, #1
    36fa:	d127      	bne.n	374c <sukima769+0x4>
            *sector_num = i;

            next_key_found = true;
            break;
        }
        if(FURI_BIT(instance->keys.key_b_mask, i)) {
    36fc:	f8de 80f8 	ldr.w	r8, [lr, #248]	@ 0xf8
    3700:	f8de 60fc 	ldr.w	r6, [lr, #252]	@ 0xfc
    3704:	f1cc 0520 	rsb	r5, ip, #32
    3708:	f1ac 0420 	sub.w	r4, ip, #32
    370c:	fa28 f00c 	lsr.w	r0, r8, ip
    3710:	fa06 f505 	lsl.w	r5, r6, r5
    3714:	4328      	orrs	r0, r5
    3716:	fa26 f404 	lsr.w	r4, r6, r4
    371a:	4320      	orrs	r0, r4
    371c:	f010 0f01 	tst.w	r0, #1
    3720:	d135      	bne.n	378e <sukima769+0x46>
    for(uint8_t i = instance->current_sector; i < MF_CLASSIC_TOTAL_SECTORS_MAX; i++) {
    3722:	f10c 0c01 	add.w	ip, ip, #1
    3726:	fa5f fc8c 	uxtb.w	ip, ip
    372a:	e7d1      	b.n	36d0 <mf_classic_key_cache_get_next_key+0x18>
    furi_assert(instance);
    372c:	f04f 0c01 	mov.w	ip, #1

00003730 <sukima706>:
    3730:	4b2a      	ldr	r3, [pc, #168]	@ (37dc <sukima769+0x94>)
    3732:	4798      	blx	r3
    furi_assert(sector_num);
    3734:	f04f 0c01 	mov.w	ip, #1

00003738 <sukima727>:
    3738:	4b28      	ldr	r3, [pc, #160]	@ (37dc <sukima769+0x94>)
    373a:	4798      	blx	r3
    furi_assert(key);
    373c:	f04f 0c01 	mov.w	ip, #1

00003740 <sukima748>:
    3740:	4b26      	ldr	r3, [pc, #152]	@ (37dc <sukima769+0x94>)
    3742:	4798      	blx	r3
    furi_assert(key_type);
    3744:	f04f 0c01 	mov.w	ip, #1

00003748 <sukima769>:
    3748:	4b24      	ldr	r3, [pc, #144]	@ (37dc <sukima769+0x94>)
    374a:	4798      	blx	r3
            FURI_BIT_CLEAR(instance->keys.key_a_mask, i);
    374c:	2001      	movs	r0, #1
    374e:	f1ac 0420 	sub.w	r4, ip, #32
    3752:	f1cc 0520 	rsb	r5, ip, #32
    3756:	fa00 f404 	lsl.w	r4, r0, r4
    375a:	fa20 f505 	lsr.w	r5, r0, r5
    375e:	4325      	orrs	r5, r4
    3760:	fa00 f40c 	lsl.w	r4, r0, ip
    3764:	ea28 0404 	bic.w	r4, r8, r4
    3768:	ea26 0605 	bic.w	r6, r6, r5
    376c:	f8ce 4000 	str.w	r4, [lr]
    3770:	f8ce 6004 	str.w	r6, [lr, #4]
            *key = instance->keys.key_a[i];
    3774:	eb0c 044c 	add.w	r4, ip, ip, lsl #1
    3778:	eb0e 0444 	add.w	r4, lr, r4, lsl #1
    377c:	68a5      	ldr	r5, [r4, #8]
    377e:	6015      	str	r5, [r2, #0]
    3780:	89a4      	ldrh	r4, [r4, #12]
    3782:	8094      	strh	r4, [r2, #4]
            *key_type = MfClassicKeyTypeA;
    3784:	2200      	movs	r2, #0
    3786:	701a      	strb	r2, [r3, #0]
            *sector_num = i;
    3788:	f881 c000 	strb.w	ip, [r1]
            break;
    378c:	e024      	b.n	37d8 <sukima769+0x90>
            FURI_BIT_CLEAR(instance->keys.key_b_mask, i);
    378e:	2001      	movs	r0, #1
    3790:	f1ac 0420 	sub.w	r4, ip, #32
    3794:	f1cc 0520 	rsb	r5, ip, #32
    3798:	fa00 f404 	lsl.w	r4, r0, r4
    379c:	fa20 f505 	lsr.w	r5, r0, r5
    37a0:	4325      	orrs	r5, r4
    37a2:	fa00 f40c 	lsl.w	r4, r0, ip
    37a6:	ea28 0404 	bic.w	r4, r8, r4
    37aa:	ea26 0605 	bic.w	r6, r6, r5
    37ae:	f8ce 40f8 	str.w	r4, [lr, #248]	@ 0xf8
    37b2:	f8ce 60fc 	str.w	r6, [lr, #252]	@ 0xfc
            *key = instance->keys.key_b[i];
    37b6:	eb0c 074c 	add.w	r7, ip, ip, lsl #1
    37ba:	eb0e 0747 	add.w	r7, lr, r7, lsl #1
    37be:	f8d7 4100 	ldr.w	r4, [r7, #256]	@ 0x100
    37c2:	6014      	str	r4, [r2, #0]
    37c4:	f8b7 4104 	ldrh.w	r4, [r7, #260]	@ 0x104
    37c8:	8094      	strh	r4, [r2, #4]
            *key_type = MfClassicKeyTypeB;
    37ca:	7018      	strb	r0, [r3, #0]
            *sector_num = i;
    37cc:	f881 c000 	strb.w	ip, [r1]

            next_key_found = true;
            instance->current_sector = i;
    37d0:	f88e c1f1 	strb.w	ip, [lr, #497]	@ 0x1f1
            break;
    37d4:	e000      	b.n	37d8 <sukima769+0x90>
    bool next_key_found = false;
    37d6:	2000      	movs	r0, #0
        }
    }

    return next_key_found;
}
    37d8:	e8bd 81f0 	ldmia.w	sp!, {r4, r5, r6, r7, r8, pc}
    37dc:	00000000 	.word	0x00000000

000037e0 <mf_classic_key_cache_reset>:

void mf_classic_key_cache_reset(MfClassicKeyCache* instance) {
    37e0:	b508      	push	{r3, lr}
    furi_assert(instance);
    37e2:	b160      	cbz	r0, 37fe <mf_classic_key_cache_reset+0x1e>
    37e4:	4603      	mov	r3, r0

    instance->current_key_type = MfClassicKeyTypeA;
    37e6:	2200      	movs	r2, #0
    37e8:	f880 21f0 	strb.w	r2, [r0, #496]	@ 0x1f0
    instance->current_sector = 0;
    37ec:	f880 21f1 	strb.w	r2, [r0, #497]	@ 0x1f1
    instance->keys.key_a_mask = 0;
    37f0:	2000      	movs	r0, #0
    37f2:	2100      	movs	r1, #0
    37f4:	e9c3 0100 	strd	r0, r1, [r3]
    instance->keys.key_b_mask = 0;
    37f8:	e9c3 013e 	strd	r0, r1, [r3, #248]	@ 0xf8
}
    37fc:	bd08      	pop	{r3, pc}
    furi_assert(instance);
    37fe:	f04f 0c01 	mov.w	ip, #1

00003802 <sukima946>:
    3802:	4b01      	ldr	r3, [pc, #4]	@ (3808 <sukima946+0x6>)
    3804:	4798      	blx	r3
    3806:	bf00      	nop
    3808:	00000000 	.word	0x00000000

0000380c <mf_classic_key_cache_load>:
bool mf_classic_key_cache_load(MfClassicKeyCache* instance, const uint8_t* uid, size_t uid_len) {
    380c:	e92d 43f0 	stmdb	sp!, {r4, r5, r6, r7, r8, r9, lr}
    3810:	b083      	sub	sp, #12
    furi_assert(instance);
    3812:	2800      	cmp	r0, #0
    3814:	d031      	beq.n	387a <mf_classic_key_cache_load+0x6e>
    3816:	460c      	mov	r4, r1
    3818:	4616      	mov	r6, r2
    381a:	4680      	mov	r8, r0
    furi_assert(uid);
    381c:	2900      	cmp	r1, #0
    381e:	d030      	beq.n	3882 <sukima1110+0x4>
    mf_classic_key_cache_reset(instance);
    3820:	4b58      	ldr	r3, [pc, #352]	@ (3984 <sukima1129+0xfe>)
    3822:	4798      	blx	r3
    FuriString* file_path = furi_string_alloc();
    3824:	4f58      	ldr	r7, [pc, #352]	@ (3988 <sukima1129+0x102>)
    3826:	47b8      	blx	r7
    3828:	4605      	mov	r5, r0
    nfc_get_key_cache_file_path(uid, uid_len, file_path);
    382a:	4602      	mov	r2, r0
    382c:	4631      	mov	r1, r6
    382e:	4620      	mov	r0, r4
    3830:	4b56      	ldr	r3, [pc, #344]	@ (398c <sukima1129+0x106>)
    3832:	4798      	blx	r3
    Storage* storage = furi_record_open(RECORD_STORAGE);
    3834:	4856      	ldr	r0, [pc, #344]	@ (3990 <sukima1129+0x10a>)
    3836:	4b57      	ldr	r3, [pc, #348]	@ (3994 <sukima1129+0x10e>)
    3838:	4798      	blx	r3
    FlipperFormat* ff = flipper_format_buffered_file_alloc(storage);
    383a:	4b57      	ldr	r3, [pc, #348]	@ (3998 <sukima1129+0x112>)
    383c:	4798      	blx	r3
    383e:	4604      	mov	r4, r0
    FuriString* temp_str = furi_string_alloc();
    3840:	47b8      	blx	r7
    3842:	4606      	mov	r6, r0
        if(!flipper_format_buffered_file_open_existing(ff, furi_string_get_cstr(file_path))) break;
    3844:	4628      	mov	r0, r5
    3846:	4b55      	ldr	r3, [pc, #340]	@ (399c <sukima1129+0x116>)
    3848:	4798      	blx	r3
    384a:	4601      	mov	r1, r0
    384c:	4620      	mov	r0, r4
    384e:	4b54      	ldr	r3, [pc, #336]	@ (39a0 <sukima1129+0x11a>)
    3850:	4798      	blx	r3
    3852:	b9d0      	cbnz	r0, 388a <sukima1129+0x4>
    bool load_success = false;
    3854:	2700      	movs	r7, #0
    flipper_format_buffered_file_close(ff);
    3856:	4620      	mov	r0, r4
    3858:	4b52      	ldr	r3, [pc, #328]	@ (39a4 <sukima1129+0x11e>)
    385a:	4798      	blx	r3
    flipper_format_free(ff);
    385c:	4620      	mov	r0, r4
    385e:	4b52      	ldr	r3, [pc, #328]	@ (39a8 <sukima1129+0x122>)
    3860:	4798      	blx	r3
    furi_string_free(temp_str);
    3862:	4630      	mov	r0, r6
    3864:	4c51      	ldr	r4, [pc, #324]	@ (39ac <sukima1129+0x126>)
    3866:	47a0      	blx	r4
    furi_string_free(file_path);
    3868:	4628      	mov	r0, r5
    386a:	47a0      	blx	r4
    furi_record_close(RECORD_STORAGE);
    386c:	4848      	ldr	r0, [pc, #288]	@ (3990 <sukima1129+0x10a>)
    386e:	4b50      	ldr	r3, [pc, #320]	@ (39b0 <sukima1129+0x12a>)
    3870:	4798      	blx	r3
}
    3872:	4638      	mov	r0, r7
    3874:	b003      	add	sp, #12
    3876:	e8bd 83f0 	ldmia.w	sp!, {r4, r5, r6, r7, r8, r9, pc}
    furi_assert(instance);
    387a:	f04f 0c01 	mov.w	ip, #1

0000387e <sukima1110>:
    387e:	4b4d      	ldr	r3, [pc, #308]	@ (39b4 <sukima1129+0x12e>)
    3880:	4798      	blx	r3
    furi_assert(uid);
    3882:	f04f 0c01 	mov.w	ip, #1

00003886 <sukima1129>:
    3886:	4b4b      	ldr	r3, [pc, #300]	@ (39b4 <sukima1129+0x12e>)
    3888:	4798      	blx	r3
        uint32_t version = 0;
    388a:	2300      	movs	r3, #0
    388c:	9301      	str	r3, [sp, #4]
        if(!flipper_format_read_header(ff, temp_str, &version)) break;
    388e:	aa01      	add	r2, sp, #4
    3890:	4631      	mov	r1, r6
    3892:	4620      	mov	r0, r4
    3894:	4b48      	ldr	r3, [pc, #288]	@ (39b8 <sukima1129+0x132>)
    3896:	4798      	blx	r3
    3898:	2800      	cmp	r0, #0
    389a:	d0db      	beq.n	3854 <mf_classic_key_cache_load+0x48>
        if(furi_string_cmp_str(temp_str, mf_classic_key_cache_file_header)) break;
    389c:	4947      	ldr	r1, [pc, #284]	@ (39bc <sukima1129+0x136>)
    389e:	4630      	mov	r0, r6
    38a0:	4b47      	ldr	r3, [pc, #284]	@ (39c0 <sukima1129+0x13a>)
    38a2:	4798      	blx	r3
    38a4:	2800      	cmp	r0, #0
    38a6:	d1d5      	bne.n	3854 <mf_classic_key_cache_load+0x48>
        if(version != mf_classic_key_cache_file_version) break;
    38a8:	9b01      	ldr	r3, [sp, #4]
    38aa:	2b01      	cmp	r3, #1
    38ac:	d1d2      	bne.n	3854 <mf_classic_key_cache_load+0x48>
        if(!flipper_format_read_hex_uint64(ff, "Key A map", &instance->keys.key_a_mask, 1)) break;
    38ae:	4642      	mov	r2, r8
    38b0:	4944      	ldr	r1, [pc, #272]	@ (39c4 <sukima1129+0x13e>)
    38b2:	4620      	mov	r0, r4
    38b4:	4f44      	ldr	r7, [pc, #272]	@ (39c8 <sukima1129+0x142>)
    38b6:	47b8      	blx	r7
    38b8:	2800      	cmp	r0, #0
    38ba:	d0cb      	beq.n	3854 <mf_classic_key_cache_load+0x48>
        if(!flipper_format_read_hex_uint64(ff, "Key B map", &instance->keys.key_b_mask, 1)) break;
    38bc:	2301      	movs	r3, #1
    38be:	f108 02f8 	add.w	r2, r8, #248	@ 0xf8
    38c2:	4942      	ldr	r1, [pc, #264]	@ (39cc <sukima1129+0x146>)
    38c4:	4620      	mov	r0, r4
    38c6:	47b8      	blx	r7
    38c8:	4607      	mov	r7, r0
    38ca:	2800      	cmp	r0, #0
    38cc:	d0c2      	beq.n	3854 <mf_classic_key_cache_load+0x48>
        for(size_t i = 0; (i < MF_CLASSIC_TOTAL_SECTORS_MAX) && (key_read_success); i++) {
    38ce:	f04f 0900 	mov.w	r9, #0
    38d2:	e015      	b.n	3900 <sukima1129+0x7a>
                furi_string_printf(temp_str, "Key A sector %d", i);
    38d4:	464a      	mov	r2, r9
    38d6:	493e      	ldr	r1, [pc, #248]	@ (39d0 <sukima1129+0x14a>)
    38d8:	4630      	mov	r0, r6
    38da:	4b3e      	ldr	r3, [pc, #248]	@ (39d4 <sukima1129+0x14e>)
    38dc:	4798      	blx	r3
                key_read_success = flipper_format_read_hex(
    38de:	4630      	mov	r0, r6
    38e0:	4b2e      	ldr	r3, [pc, #184]	@ (399c <sukima1129+0x116>)
    38e2:	4798      	blx	r3
    38e4:	4601      	mov	r1, r0
                    instance->keys.key_a[i].data,
    38e6:	eb09 0249 	add.w	r2, r9, r9, lsl #1
    38ea:	0052      	lsls	r2, r2, #1
    38ec:	3208      	adds	r2, #8
                key_read_success = flipper_format_read_hex(
    38ee:	2306      	movs	r3, #6
    38f0:	4442      	add	r2, r8
    38f2:	4620      	mov	r0, r4
    38f4:	4f38      	ldr	r7, [pc, #224]	@ (39d8 <sukima1129+0x152>)
    38f6:	47b8      	blx	r7
    38f8:	4607      	mov	r7, r0
    38fa:	e019      	b.n	3930 <sukima1129+0xaa>
        for(size_t i = 0; (i < MF_CLASSIC_TOTAL_SECTORS_MAX) && (key_read_success); i++) {
    38fc:	f109 0901 	add.w	r9, r9, #1
    3900:	f1b9 0f27 	cmp.w	r9, #39	@ 0x27
    3904:	d8a7      	bhi.n	3856 <mf_classic_key_cache_load+0x4a>
    3906:	2f00      	cmp	r7, #0
    3908:	d0a5      	beq.n	3856 <mf_classic_key_cache_load+0x4a>
            if(FURI_BIT(instance->keys.key_a_mask, i)) {
    390a:	f8d8 3000 	ldr.w	r3, [r8]
    390e:	f8d8 0004 	ldr.w	r0, [r8, #4]
    3912:	f1c9 0120 	rsb	r1, r9, #32
    3916:	f1a9 0220 	sub.w	r2, r9, #32
    391a:	fa23 f309 	lsr.w	r3, r3, r9
    391e:	fa00 f101 	lsl.w	r1, r0, r1
    3922:	430b      	orrs	r3, r1
    3924:	fa20 f202 	lsr.w	r2, r0, r2
    3928:	4313      	orrs	r3, r2
    392a:	f013 0f01 	tst.w	r3, #1
    392e:	d1d1      	bne.n	38d4 <sukima1129+0x4e>
            if(!key_read_success) break;
    3930:	2f00      	cmp	r7, #0
    3932:	d090      	beq.n	3856 <mf_classic_key_cache_load+0x4a>
            if(FURI_BIT(instance->keys.key_b_mask, i)) {
    3934:	f8d8 30f8 	ldr.w	r3, [r8, #248]	@ 0xf8
    3938:	f8d8 00fc 	ldr.w	r0, [r8, #252]	@ 0xfc
    393c:	f1c9 0120 	rsb	r1, r9, #32
    3940:	f1a9 0220 	sub.w	r2, r9, #32
    3944:	fa23 f309 	lsr.w	r3, r3, r9
    3948:	fa00 f101 	lsl.w	r1, r0, r1
    394c:	430b      	orrs	r3, r1
    394e:	fa20 f202 	lsr.w	r2, r0, r2
    3952:	4313      	orrs	r3, r2
    3954:	f013 0f01 	tst.w	r3, #1
    3958:	d0d0      	beq.n	38fc <sukima1129+0x76>
                furi_string_printf(temp_str, "Key B sector %d", i);
    395a:	464a      	mov	r2, r9
    395c:	491f      	ldr	r1, [pc, #124]	@ (39dc <sukima1129+0x156>)
    395e:	4630      	mov	r0, r6
    3960:	4b1c      	ldr	r3, [pc, #112]	@ (39d4 <sukima1129+0x14e>)
    3962:	4798      	blx	r3
                key_read_success = flipper_format_read_hex(
    3964:	4630      	mov	r0, r6
    3966:	4b0d      	ldr	r3, [pc, #52]	@ (399c <sukima1129+0x116>)
    3968:	4798      	blx	r3
    396a:	4601      	mov	r1, r0
                    instance->keys.key_b[i].data,
    396c:	eb09 0249 	add.w	r2, r9, r9, lsl #1
    3970:	0052      	lsls	r2, r2, #1
    3972:	f502 7280 	add.w	r2, r2, #256	@ 0x100
                key_read_success = flipper_format_read_hex(
    3976:	2306      	movs	r3, #6
    3978:	4442      	add	r2, r8
    397a:	4620      	mov	r0, r4
    397c:	4f16      	ldr	r7, [pc, #88]	@ (39d8 <sukima1129+0x152>)
    397e:	47b8      	blx	r7
    3980:	4607      	mov	r7, r0
    3982:	e7bb      	b.n	38fc <sukima1129+0x76>
	...
    3990:	00001b50 	.word	0x00001b50
	...
    39bc:	00001b58 	.word	0x00001b58
    39c0:	00000000 	.word	0x00000000
    39c4:	00001b80 	.word	0x00001b80
    39c8:	00000000 	.word	0x00000000
    39cc:	00001b8c 	.word	0x00001b8c
    39d0:	00001b98 	.word	0x00001b98
	...
    39dc:	00001ba8 	.word	0x00001ba8

000039e0 <nfc_cli_command_scanner_parse_tree>:
}

static bool nfc_cli_command_scanner_parse_tree(FuriString* value, void* output) {
    UNUSED(value);
    NfcCliCmdScannerContext* ctx = output;
    ctx->display_tree = true;
    39e0:	2001      	movs	r0, #1
    39e2:	7108      	strb	r0, [r1, #4]
    return true;
}
    39e4:	4770      	bx	lr
	...

000039e8 <nfc_cli_command_scanner_free_ctx>:
static void nfc_cli_command_scanner_free_ctx(NfcCliActionContext* ctx) {
    39e8:	b510      	push	{r4, lr}
    furi_assert(ctx);
    39ea:	b138      	cbz	r0, 39fc <nfc_cli_command_scanner_free_ctx+0x14>
    39ec:	4604      	mov	r4, r0
    nfc_cli_scanner_free(instance->scanner);
    39ee:	6800      	ldr	r0, [r0, #0]
    39f0:	4b04      	ldr	r3, [pc, #16]	@ (3a04 <sukima65+0x4>)
    39f2:	4798      	blx	r3
    free(instance);
    39f4:	4620      	mov	r0, r4
    39f6:	4b04      	ldr	r3, [pc, #16]	@ (3a08 <sukima65+0x8>)
    39f8:	4798      	blx	r3
}
    39fa:	bd10      	pop	{r4, pc}
    furi_assert(ctx);
    39fc:	f04f 0c01 	mov.w	ip, #1

00003a00 <sukima65>:
    3a00:	4b02      	ldr	r3, [pc, #8]	@ (3a0c <sukima65+0xc>)
    3a02:	4798      	blx	r3
	...

00003a10 <nfc_cli_command_scanner_alloc_ctx>:
static NfcCliActionContext* nfc_cli_command_scanner_alloc_ctx(Nfc* nfc) {
    3a10:	b538      	push	{r3, r4, r5, lr}
    furi_assert(nfc);
    3a12:	b160      	cbz	r0, 3a2e <nfc_cli_command_scanner_alloc_ctx+0x1e>
    3a14:	4605      	mov	r5, r0
    NfcCliCmdScannerContext* instance = malloc(sizeof(NfcCliCmdScannerContext));
    3a16:	2008      	movs	r0, #8
    3a18:	4b07      	ldr	r3, [pc, #28]	@ (3a38 <sukima134+0x6>)
    3a1a:	4798      	blx	r3
    3a1c:	4604      	mov	r4, r0
    instance->scanner = nfc_cli_scanner_alloc(nfc);
    3a1e:	4628      	mov	r0, r5
    3a20:	4b06      	ldr	r3, [pc, #24]	@ (3a3c <sukima134+0xa>)
    3a22:	4798      	blx	r3
    3a24:	6020      	str	r0, [r4, #0]
    instance->display_tree = false;
    3a26:	2300      	movs	r3, #0
    3a28:	7123      	strb	r3, [r4, #4]
}
    3a2a:	4620      	mov	r0, r4
    3a2c:	bd38      	pop	{r3, r4, r5, pc}
    furi_assert(nfc);
    3a2e:	f04f 0c01 	mov.w	ip, #1

00003a32 <sukima134>:
    3a32:	4b03      	ldr	r3, [pc, #12]	@ (3a40 <sukima134+0xe>)
    3a34:	4798      	blx	r3
    3a36:	bf00      	nop
	...

00003a44 <nfc_cli_command_scanner_format_protocol_tree>:
    nfc_cli_command_scanner_format_protocol_tree(NfcProtocol protocol, FuriString* output) {
    3a44:	b5f0      	push	{r4, r5, r6, r7, lr}
    3a46:	b08b      	sub	sp, #44	@ 0x2c
    3a48:	4605      	mov	r5, r0
    3a4a:	460e      	mov	r6, r1
    const char* names[10] = {0};
    3a4c:	2228      	movs	r2, #40	@ 0x28
    3a4e:	2100      	movs	r1, #0
    3a50:	4668      	mov	r0, sp
    3a52:	4b15      	ldr	r3, [pc, #84]	@ (3aa8 <nfc_cli_command_scanner_format_protocol_tree+0x64>)
    3a54:	4798      	blx	r3
    uint8_t cnt = 0;
    3a56:	2400      	movs	r4, #0
    while(protocol != NfcProtocolInvalid) {
    3a58:	e00e      	b.n	3a78 <nfc_cli_command_scanner_format_protocol_tree+0x34>
        names[cnt++] = nfc_cli_get_protocol_name(protocol);
    3a5a:	1c67      	adds	r7, r4, #1
    3a5c:	b2ff      	uxtb	r7, r7
    3a5e:	4628      	mov	r0, r5
    3a60:	4b12      	ldr	r3, [pc, #72]	@ (3aac <nfc_cli_command_scanner_format_protocol_tree+0x68>)
    3a62:	4798      	blx	r3
    3a64:	ab0a      	add	r3, sp, #40	@ 0x28
    3a66:	eb03 0484 	add.w	r4, r3, r4, lsl #2
    3a6a:	f844 0c28 	str.w	r0, [r4, #-40]
        protocol = nfc_protocol_get_parent(protocol);
    3a6e:	4628      	mov	r0, r5
    3a70:	4b0f      	ldr	r3, [pc, #60]	@ (3ab0 <nfc_cli_command_scanner_format_protocol_tree+0x6c>)
    3a72:	4798      	blx	r3
    3a74:	4605      	mov	r5, r0
        names[cnt++] = nfc_cli_get_protocol_name(protocol);
    3a76:	463c      	mov	r4, r7
    while(protocol != NfcProtocolInvalid) {
    3a78:	2d0d      	cmp	r5, #13
    3a7a:	d1ee      	bne.n	3a5a <nfc_cli_command_scanner_format_protocol_tree+0x16>
    for(int8_t i = cnt - 1; i >= 0; i--) {
    3a7c:	3c01      	subs	r4, #1
    3a7e:	b264      	sxtb	r4, r4
    3a80:	e00a      	b.n	3a98 <nfc_cli_command_scanner_format_protocol_tree+0x54>
        furi_string_cat_printf(output, (i == 0) ? "%s" : "%s -> ", names[i]);
    3a82:	490c      	ldr	r1, [pc, #48]	@ (3ab4 <nfc_cli_command_scanner_format_protocol_tree+0x70>)
    3a84:	ab0a      	add	r3, sp, #40	@ 0x28
    3a86:	eb03 0384 	add.w	r3, r3, r4, lsl #2
    3a8a:	f853 2c28 	ldr.w	r2, [r3, #-40]
    3a8e:	4630      	mov	r0, r6
    3a90:	4b09      	ldr	r3, [pc, #36]	@ (3ab8 <nfc_cli_command_scanner_format_protocol_tree+0x74>)
    3a92:	4798      	blx	r3
    for(int8_t i = cnt - 1; i >= 0; i--) {
    3a94:	3c01      	subs	r4, #1
    3a96:	b264      	sxtb	r4, r4
    3a98:	2c00      	cmp	r4, #0
    3a9a:	db03      	blt.n	3aa4 <nfc_cli_command_scanner_format_protocol_tree+0x60>
        furi_string_cat_printf(output, (i == 0) ? "%s" : "%s -> ", names[i]);
    3a9c:	2c00      	cmp	r4, #0
    3a9e:	d0f0      	beq.n	3a82 <nfc_cli_command_scanner_format_protocol_tree+0x3e>
    3aa0:	4906      	ldr	r1, [pc, #24]	@ (3abc <nfc_cli_command_scanner_format_protocol_tree+0x78>)
    3aa2:	e7ef      	b.n	3a84 <nfc_cli_command_scanner_format_protocol_tree+0x40>
}
    3aa4:	b00b      	add	sp, #44	@ 0x2c
    3aa6:	bdf0      	pop	{r4, r5, r6, r7, pc}
	...
    3ab4:	00001bb8 	.word	0x00001bb8
    3ab8:	00000000 	.word	0x00000000
    3abc:	00001bbc 	.word	0x00001bbc

00003ac0 <nfc_cli_command_scanner_format_detected_protocols>:
static void nfc_cli_command_scanner_format_detected_protocols(NfcCliScanner* instance) {
    3ac0:	b570      	push	{r4, r5, r6, lr}
    3ac2:	4606      	mov	r6, r0
    FuriString* str = furi_string_alloc();
    3ac4:	4b11      	ldr	r3, [pc, #68]	@ (3b0c <nfc_cli_command_scanner_format_detected_protocols+0x4c>)
    3ac6:	4798      	blx	r3
    3ac8:	4605      	mov	r5, r0
    printf("Protocols detected: \r\n");
    3aca:	4811      	ldr	r0, [pc, #68]	@ (3b10 <nfc_cli_command_scanner_format_detected_protocols+0x50>)
    3acc:	4b11      	ldr	r3, [pc, #68]	@ (3b14 <nfc_cli_command_scanner_format_detected_protocols+0x54>)
    3ace:	4798      	blx	r3
    for(size_t i = 0; i < nfc_cli_scanner_detected_protocol_num(instance); i++) {
    3ad0:	2400      	movs	r4, #0
    3ad2:	e012      	b.n	3afa <nfc_cli_command_scanner_format_detected_protocols+0x3a>
        furi_string_reset(str);
    3ad4:	4628      	mov	r0, r5
    3ad6:	4b10      	ldr	r3, [pc, #64]	@ (3b18 <nfc_cli_command_scanner_format_detected_protocols+0x58>)
    3ad8:	4798      	blx	r3
        NfcProtocol protocol = nfc_cli_scanner_get_protocol(instance, i);
    3ada:	4621      	mov	r1, r4
    3adc:	4630      	mov	r0, r6
    3ade:	4b0f      	ldr	r3, [pc, #60]	@ (3b1c <nfc_cli_command_scanner_format_detected_protocols+0x5c>)
    3ae0:	4798      	blx	r3
        nfc_cli_command_scanner_format_protocol_tree(protocol, str);
    3ae2:	4629      	mov	r1, r5
    3ae4:	4b0e      	ldr	r3, [pc, #56]	@ (3b20 <nfc_cli_command_scanner_format_detected_protocols+0x60>)
    3ae6:	4798      	blx	r3
        printf("Protocol [%zu]: %s\r\n", i + 1, furi_string_get_cstr(str));
    3ae8:	3401      	adds	r4, #1
    3aea:	4628      	mov	r0, r5
    3aec:	4b0d      	ldr	r3, [pc, #52]	@ (3b24 <nfc_cli_command_scanner_format_detected_protocols+0x64>)
    3aee:	4798      	blx	r3
    3af0:	4602      	mov	r2, r0
    3af2:	4621      	mov	r1, r4
    3af4:	480c      	ldr	r0, [pc, #48]	@ (3b28 <nfc_cli_command_scanner_format_detected_protocols+0x68>)
    3af6:	4b0d      	ldr	r3, [pc, #52]	@ (3b2c <nfc_cli_command_scanner_format_detected_protocols+0x6c>)
    3af8:	4798      	blx	r3
    for(size_t i = 0; i < nfc_cli_scanner_detected_protocol_num(instance); i++) {
    3afa:	4630      	mov	r0, r6
    3afc:	4b0c      	ldr	r3, [pc, #48]	@ (3b30 <nfc_cli_command_scanner_format_detected_protocols+0x70>)
    3afe:	4798      	blx	r3
    3b00:	42a0      	cmp	r0, r4
    3b02:	d8e7      	bhi.n	3ad4 <nfc_cli_command_scanner_format_detected_protocols+0x14>
    furi_string_free(str);
    3b04:	4628      	mov	r0, r5
    3b06:	4b0b      	ldr	r3, [pc, #44]	@ (3b34 <nfc_cli_command_scanner_format_detected_protocols+0x74>)
    3b08:	4798      	blx	r3
}
    3b0a:	bd70      	pop	{r4, r5, r6, pc}
    3b0c:	00000000 	.word	0x00000000
    3b10:	00001bc4 	.word	0x00001bc4
	...
    3b28:	00001bdc 	.word	0x00001bdc
	...

00003b38 <nfc_cli_command_scanner_execute>:
static void nfc_cli_command_scanner_execute(PipeSide* pipe, void* context) {
    3b38:	b538      	push	{r3, r4, r5, lr}
    3b3a:	4605      	mov	r5, r0
    3b3c:	460c      	mov	r4, r1
    printf("Press Ctrl+C to abort\r\n\n");
    3b3e:	480e      	ldr	r0, [pc, #56]	@ (3b78 <nfc_cli_command_scanner_execute+0x40>)
    3b40:	4b0e      	ldr	r3, [pc, #56]	@ (3b7c <nfc_cli_command_scanner_execute+0x44>)
    3b42:	4798      	blx	r3
    nfc_cli_scanner_begin_scan(instance->scanner);
    3b44:	6820      	ldr	r0, [r4, #0]
    3b46:	4b0e      	ldr	r3, [pc, #56]	@ (3b80 <nfc_cli_command_scanner_execute+0x48>)
    3b48:	4798      	blx	r3
    while(!cli_is_pipe_broken_or_is_etx_next_char(pipe) &&
    3b4a:	4628      	mov	r0, r5
    3b4c:	4b0d      	ldr	r3, [pc, #52]	@ (3b84 <nfc_cli_command_scanner_execute+0x4c>)
    3b4e:	4798      	blx	r3
    3b50:	b928      	cbnz	r0, 3b5e <nfc_cli_command_scanner_execute+0x26>
          !nfc_cli_scanner_wait_scan(instance->scanner, 50))
    3b52:	2132      	movs	r1, #50	@ 0x32
    3b54:	6820      	ldr	r0, [r4, #0]
    3b56:	4b0c      	ldr	r3, [pc, #48]	@ (3b88 <nfc_cli_command_scanner_execute+0x50>)
    3b58:	4798      	blx	r3
    while(!cli_is_pipe_broken_or_is_etx_next_char(pipe) &&
    3b5a:	2800      	cmp	r0, #0
    3b5c:	d0f5      	beq.n	3b4a <nfc_cli_command_scanner_execute+0x12>
    nfc_cli_scanner_end_scan(instance->scanner);
    3b5e:	6820      	ldr	r0, [r4, #0]
    3b60:	4b0a      	ldr	r3, [pc, #40]	@ (3b8c <nfc_cli_command_scanner_execute+0x54>)
    3b62:	4798      	blx	r3
    if(!instance->display_tree)
    3b64:	7923      	ldrb	r3, [r4, #4]
    3b66:	b91b      	cbnz	r3, 3b70 <nfc_cli_command_scanner_execute+0x38>
        nfc_cli_scanner_list_detected_protocols(instance->scanner);
    3b68:	6820      	ldr	r0, [r4, #0]
    3b6a:	4b09      	ldr	r3, [pc, #36]	@ (3b90 <nfc_cli_command_scanner_execute+0x58>)
    3b6c:	4798      	blx	r3
}
    3b6e:	bd38      	pop	{r3, r4, r5, pc}
        nfc_cli_command_scanner_format_detected_protocols(instance->scanner);
    3b70:	6820      	ldr	r0, [r4, #0]
    3b72:	4b08      	ldr	r3, [pc, #32]	@ (3b94 <nfc_cli_command_scanner_execute+0x5c>)
    3b74:	4798      	blx	r3
}
    3b76:	e7fa      	b.n	3b6e <nfc_cli_command_scanner_execute+0x36>
    3b78:	00001bf4 	.word	0x00001bf4
	...

00003b98 <nfc_cli_command_scanner_callback>:
    .free = nfc_cli_command_scanner_free_ctx,
};

const NfcCliActionDescriptor* scanner_actions_collection[] = {&scanner_action};

ADD_NFC_CLI_COMMAND(scanner, "", scanner_actions_collection);
    3b98:	b510      	push	{r4, lr}
    3b9a:	4613      	mov	r3, r2
    3b9c:	460a      	mov	r2, r1
    3b9e:	4601      	mov	r1, r0
    3ba0:	4801      	ldr	r0, [pc, #4]	@ (3ba8 <nfc_cli_command_scanner_callback+0x10>)
    3ba2:	4c02      	ldr	r4, [pc, #8]	@ (3bac <nfc_cli_command_scanner_callback+0x14>)
    3ba4:	47a0      	blx	r4
    3ba6:	bd10      	pop	{r4, pc}
	...

00003bb0 <nfc_cli_dump_poller_callback_iso14443_3b>:
#include "nfc_cli_dump_iso14443_3b.h"
#include <nfc/protocols/iso14443_3b/iso14443_3b_poller.h>

NfcCommand nfc_cli_dump_poller_callback_iso14443_3b(NfcGenericEvent event, void* context) {
    3bb0:	b530      	push	{r4, r5, lr}
    3bb2:	b085      	sub	sp, #20
    3bb4:	ac04      	add	r4, sp, #16
    3bb6:	e904 0007 	stmdb	r4, {r0, r1, r2}
    3bba:	461c      	mov	r4, r3
    furi_assert(event.protocol == NfcProtocolIso14443_3b);
    3bbc:	f89d 3004 	ldrb.w	r3, [sp, #4]
    3bc0:	2b01      	cmp	r3, #1
    3bc2:	d10c      	bne.n	3bde <nfc_cli_dump_poller_callback_iso14443_3b+0x2e>

    NfcCliDumpContext* instance = context;
    const Iso14443_3bPollerEvent* iso14443_3b_event = event.event_data;
    3bc4:	9b03      	ldr	r3, [sp, #12]

    NfcCommand command = NfcCommandContinue;
    if(iso14443_3b_event->type == Iso14443_3bPollerEventTypeReady) {
    3bc6:	781b      	ldrb	r3, [r3, #0]
    3bc8:	2b01      	cmp	r3, #1
    3bca:	d00c      	beq.n	3be6 <sukima87+0x4>
        nfc_device_set_data(
            instance->nfc_device, NfcProtocolIso14443_3b, nfc_poller_get_data(instance->poller));

        instance->result = NfcCliDumpErrorNone;
        command = NfcCommandStop;
    } else if(iso14443_3b_event->type == Iso14443_3bPollerEventTypeError) {
    3bcc:	b923      	cbnz	r3, 3bd8 <nfc_cli_dump_poller_callback_iso14443_3b+0x28>
        instance->result = NfcCliDumpErrorFailedToRead;
    3bce:	2303      	movs	r3, #3
    3bd0:	7723      	strb	r3, [r4, #28]
        command = NfcCommandStop;
    }

    if(command == NfcCommandStop) {
        furi_semaphore_release(instance->sem_done);
    3bd2:	69a0      	ldr	r0, [r4, #24]
    3bd4:	4b0a      	ldr	r3, [pc, #40]	@ (3c00 <sukima87+0x1e>)
    3bd6:	4798      	blx	r3
    }

    return NfcCommandContinue;
}
    3bd8:	2000      	movs	r0, #0
    3bda:	b005      	add	sp, #20
    3bdc:	bd30      	pop	{r4, r5, pc}
    furi_assert(event.protocol == NfcProtocolIso14443_3b);
    3bde:	f04f 0c01 	mov.w	ip, #1

00003be2 <sukima87>:
    3be2:	4b08      	ldr	r3, [pc, #32]	@ (3c04 <sukima87+0x22>)
    3be4:	4798      	blx	r3
        nfc_device_set_data(
    3be6:	6ba5      	ldr	r5, [r4, #56]	@ 0x38
    3be8:	6b60      	ldr	r0, [r4, #52]	@ 0x34
    3bea:	4b07      	ldr	r3, [pc, #28]	@ (3c08 <sukima87+0x26>)
    3bec:	4798      	blx	r3
    3bee:	4602      	mov	r2, r0
    3bf0:	2101      	movs	r1, #1
    3bf2:	4628      	mov	r0, r5
    3bf4:	4b05      	ldr	r3, [pc, #20]	@ (3c0c <sukima87+0x2a>)
    3bf6:	4798      	blx	r3
        instance->result = NfcCliDumpErrorNone;
    3bf8:	2300      	movs	r3, #0
    3bfa:	7723      	strb	r3, [r4, #28]
    if(command == NfcCommandStop) {
    3bfc:	e7e9      	b.n	3bd2 <nfc_cli_dump_poller_callback_iso14443_3b+0x22>
    3bfe:	bf00      	nop
	...

00003c10 <nfc_cli_raw_felica_process_error>:
    nfc_cli_format_array(data->idm.data, FELICA_IDM_SIZE, "IDm: ", output);
    nfc_cli_format_array(data->pmm.data, FELICA_PMM_SIZE, " PMm: ", output);
}

static NfcCliRawError nfc_cli_raw_felica_process_error(FelicaError error) {
    switch(error) {
    3c10:	2808      	cmp	r0, #8
    3c12:	d80a      	bhi.n	3c2a <nfc_cli_raw_felica_process_error+0x1a>
    3c14:	e8df f000 	tbb	[pc, r0]
    3c18:	0909070c 	.word	0x0909070c
    3c1c:	09050909 	.word	0x09050909
    3c20:	0b          	.byte	0x0b
    3c21:	00          	.byte	0x00
    case FelicaErrorNone:
        return NfcCliRawErrorNone;
    case FelicaErrorTimeout:
        return NfcCliRawErrorTimeout;
    case FelicaErrorWrongCrc:
        return NfcCliRawErrorWrongCrc;
    3c22:	2003      	movs	r0, #3
    3c24:	4770      	bx	lr
    case FelicaErrorNotPresent:
        return NfcCliRawErrorNotPresent;
    3c26:	2002      	movs	r0, #2
    3c28:	4770      	bx	lr
    default:
        return NfcCliRawErrorProtocol;
    3c2a:	2004      	movs	r0, #4
    3c2c:	4770      	bx	lr
        return NfcCliRawErrorTimeout;
    3c2e:	2001      	movs	r0, #1
    }
}
    3c30:	4770      	bx	lr

00003c32 <nfc_cli_raw_felica_poller_process_error>:

static FelicaError nfc_cli_raw_felica_poller_process_error(NfcError error) {
    switch(error) {
    3c32:	b118      	cbz	r0, 3c3c <nfc_cli_raw_felica_poller_process_error+0xa>
    3c34:	2802      	cmp	r0, #2
    3c36:	d102      	bne.n	3c3e <nfc_cli_raw_felica_poller_process_error+0xc>
    case NfcErrorNone:
        return FelicaErrorNone;
    case NfcErrorTimeout:
        return FelicaErrorTimeout;
    3c38:	2008      	movs	r0, #8
    3c3a:	4770      	bx	lr
    3c3c:	4770      	bx	lr
    default:
        return FelicaErrorNotPresent;
    3c3e:	2001      	movs	r0, #1
    }
}
    3c40:	4770      	bx	lr
	...

00003c44 <felica_format_activation_data>:
static inline void felica_format_activation_data(const FelicaData* data, FuriString* output) {
    3c44:	b570      	push	{r4, r5, r6, lr}
    3c46:	4605      	mov	r5, r0
    3c48:	460c      	mov	r4, r1
    nfc_cli_format_array(data->idm.data, FELICA_IDM_SIZE, "IDm: ", output);
    3c4a:	460b      	mov	r3, r1
    3c4c:	4a04      	ldr	r2, [pc, #16]	@ (3c60 <felica_format_activation_data+0x1c>)
    3c4e:	2108      	movs	r1, #8
    3c50:	4e04      	ldr	r6, [pc, #16]	@ (3c64 <felica_format_activation_data+0x20>)
    3c52:	47b0      	blx	r6
    nfc_cli_format_array(data->pmm.data, FELICA_PMM_SIZE, " PMm: ", output);
    3c54:	4623      	mov	r3, r4
    3c56:	4a04      	ldr	r2, [pc, #16]	@ (3c68 <felica_format_activation_data+0x24>)
    3c58:	2108      	movs	r1, #8
    3c5a:	1868      	adds	r0, r5, r1
    3c5c:	47b0      	blx	r6
}
    3c5e:	bd70      	pop	{r4, r5, r6, pc}
    3c60:	00001cb4 	.word	0x00001cb4
    3c64:	00000000 	.word	0x00000000
    3c68:	00001cbc 	.word	0x00001cbc

00003c6c <nfc_cli_raw_felica_activate>:

static inline NfcCliRawError
    nfc_cli_raw_felica_activate(NfcGenericInstance* poller, FuriString* activation_string) {
    3c6c:	b530      	push	{r4, r5, lr}
    3c6e:	f5ad 7d07 	sub.w	sp, sp, #540	@ 0x21c
    3c72:	4604      	mov	r4, r0
    3c74:	460d      	mov	r5, r1
    FelicaData felica_data = {};
    3c76:	f44f 7205 	mov.w	r2, #532	@ 0x214
    3c7a:	2100      	movs	r1, #0
    3c7c:	a801      	add	r0, sp, #4
    3c7e:	4b0c      	ldr	r3, [pc, #48]	@ (3cb0 <nfc_cli_raw_felica_activate+0x44>)
    3c80:	4798      	blx	r3
    FelicaPoller* felica_poller = poller;
    FURI_LOG_D(TAG, "Activating...");
    3c82:	4a0c      	ldr	r2, [pc, #48]	@ (3cb4 <nfc_cli_raw_felica_activate+0x48>)
    3c84:	490c      	ldr	r1, [pc, #48]	@ (3cb8 <nfc_cli_raw_felica_activate+0x4c>)
    3c86:	2005      	movs	r0, #5
    3c88:	4b0c      	ldr	r3, [pc, #48]	@ (3cbc <nfc_cli_raw_felica_activate+0x50>)
    3c8a:	4798      	blx	r3

    FelicaError error = felica_poller_activate(felica_poller, &felica_data);
    3c8c:	a901      	add	r1, sp, #4
    3c8e:	4620      	mov	r0, r4
    3c90:	4b0b      	ldr	r3, [pc, #44]	@ (3cc0 <nfc_cli_raw_felica_activate+0x54>)
    3c92:	4798      	blx	r3
    if(error == FelicaErrorNone) {
    3c94:	4604      	mov	r4, r0
    3c96:	b128      	cbz	r0, 3ca4 <nfc_cli_raw_felica_activate+0x38>
        felica_format_activation_data(&felica_data, activation_string);
    }

    return nfc_cli_raw_felica_process_error(error);
    3c98:	4620      	mov	r0, r4
    3c9a:	4b0a      	ldr	r3, [pc, #40]	@ (3cc4 <nfc_cli_raw_felica_activate+0x58>)
    3c9c:	4798      	blx	r3
}
    3c9e:	f50d 7d07 	add.w	sp, sp, #540	@ 0x21c
    3ca2:	bd30      	pop	{r4, r5, pc}
        felica_format_activation_data(&felica_data, activation_string);
    3ca4:	4629      	mov	r1, r5
    3ca6:	a801      	add	r0, sp, #4
    3ca8:	4b07      	ldr	r3, [pc, #28]	@ (3cc8 <nfc_cli_raw_felica_activate+0x5c>)
    3caa:	4798      	blx	r3
    3cac:	e7f4      	b.n	3c98 <nfc_cli_raw_felica_activate+0x2c>
    3cae:	bf00      	nop
    3cb0:	00000000 	.word	0x00000000
    3cb4:	00001cc4 	.word	0x00001cc4
    3cb8:	00001cd4 	.word	0x00001cd4
	...

00003ccc <nfc_cli_raw_felica_txrx>:

static inline NfcCliRawError nfc_cli_raw_felica_txrx(
    NfcGenericInstance* poller,
    BitBuffer* tx_buffer,
    BitBuffer* rx_buffer,
    uint32_t timeout) {
    3ccc:	b5f8      	push	{r3, r4, r5, r6, r7, lr}
    3cce:	4605      	mov	r5, r0
    3cd0:	460e      	mov	r6, r1
    3cd2:	4614      	mov	r4, r2
    3cd4:	461f      	mov	r7, r3
    FURI_LOG_D(TAG, "TxRx");
    3cd6:	4a0f      	ldr	r2, [pc, #60]	@ (3d14 <nfc_cli_raw_felica_txrx+0x48>)
    3cd8:	490f      	ldr	r1, [pc, #60]	@ (3d18 <nfc_cli_raw_felica_txrx+0x4c>)
    3cda:	2005      	movs	r0, #5
    3cdc:	4b0f      	ldr	r3, [pc, #60]	@ (3d1c <nfc_cli_raw_felica_txrx+0x50>)
    3cde:	4798      	blx	r3
    FelicaPoller* felica_poller = poller;

    bit_buffer_reset(rx_buffer);
    3ce0:	4620      	mov	r0, r4
    3ce2:	4b0f      	ldr	r3, [pc, #60]	@ (3d20 <nfc_cli_raw_felica_txrx+0x54>)
    3ce4:	4798      	blx	r3

    FelicaError error = FelicaErrorNone;

    NfcError nfc_error = nfc_poller_trx(felica_poller->nfc, tx_buffer, rx_buffer, timeout);
    3ce6:	463b      	mov	r3, r7
    3ce8:	4622      	mov	r2, r4
    3cea:	4631      	mov	r1, r6
    3cec:	6828      	ldr	r0, [r5, #0]
    3cee:	4d0d      	ldr	r5, [pc, #52]	@ (3d24 <nfc_cli_raw_felica_txrx+0x58>)
    3cf0:	47a8      	blx	r5
    if(nfc_error != NfcErrorNone) {
    3cf2:	4605      	mov	r5, r0
    3cf4:	b130      	cbz	r0, 3d04 <nfc_cli_raw_felica_txrx+0x38>
        error = nfc_cli_raw_felica_poller_process_error(nfc_error);
    3cf6:	4b0c      	ldr	r3, [pc, #48]	@ (3d28 <nfc_cli_raw_felica_txrx+0x5c>)
    3cf8:	4798      	blx	r3
    3cfa:	4605      	mov	r5, r0
    } else if(!felica_crc_check(rx_buffer)) {
        error = FelicaErrorWrongCrc;
    }

    return nfc_cli_raw_felica_process_error(error);
    3cfc:	4628      	mov	r0, r5
    3cfe:	4b0b      	ldr	r3, [pc, #44]	@ (3d2c <nfc_cli_raw_felica_txrx+0x60>)
    3d00:	4798      	blx	r3
}
    3d02:	bdf8      	pop	{r3, r4, r5, r6, r7, pc}
    } else if(!felica_crc_check(rx_buffer)) {
    3d04:	4620      	mov	r0, r4
    3d06:	4b0a      	ldr	r3, [pc, #40]	@ (3d30 <nfc_cli_raw_felica_txrx+0x64>)
    3d08:	4798      	blx	r3
    3d0a:	2800      	cmp	r0, #0
    3d0c:	d1f6      	bne.n	3cfc <nfc_cli_raw_felica_txrx+0x30>
        error = FelicaErrorWrongCrc;
    3d0e:	2506      	movs	r5, #6
    3d10:	e7f4      	b.n	3cfc <nfc_cli_raw_felica_txrx+0x30>
    3d12:	bf00      	nop
    3d14:	00001cdc 	.word	0x00001cdc
    3d18:	00001cd4 	.word	0x00001cd4
	...

00003d34 <nfc_cli_raw_felica_handler>:

NfcCommand nfc_cli_raw_felica_handler(
    NfcGenericInstance* poller,
    const NfcCliRawRequest* request,
    NfcCliRawResponse* const response) {
    3d34:	b570      	push	{r4, r5, r6, lr}
    3d36:	4606      	mov	r6, r0
    3d38:	460c      	mov	r4, r1
    3d3a:	4615      	mov	r5, r2
    do {
        if(request->select) {
    3d3c:	780b      	ldrb	r3, [r1, #0]
    3d3e:	b92b      	cbnz	r3, 3d4c <nfc_cli_raw_felica_handler+0x18>
            response->result = nfc_cli_raw_felica_activate(poller, response->activation_string);
        }

        if(response->result != NfcCliRawErrorNone) break;
    3d40:	782b      	ldrb	r3, [r5, #0]
    3d42:	b143      	cbz	r3, 3d56 <nfc_cli_raw_felica_handler+0x22>

        uint32_t timeout = request->timeout > 0 ? request->timeout : FELICA_FDT_POLL_FC;
        response->result =
            nfc_cli_raw_felica_txrx(poller, request->tx_buffer, response->rx_buffer, timeout);
    } while(false);
    return request->keep_field ? NfcCommandContinue : NfcCommandStop;
    3d44:	7863      	ldrb	r3, [r4, #1]
    3d46:	b30b      	cbz	r3, 3d8c <nfc_cli_raw_felica_handler+0x58>
    3d48:	2000      	movs	r0, #0
}
    3d4a:	bd70      	pop	{r4, r5, r6, pc}
            response->result = nfc_cli_raw_felica_activate(poller, response->activation_string);
    3d4c:	6891      	ldr	r1, [r2, #8]
    3d4e:	4b10      	ldr	r3, [pc, #64]	@ (3d90 <nfc_cli_raw_felica_handler+0x5c>)
    3d50:	4798      	blx	r3
    3d52:	7028      	strb	r0, [r5, #0]
    3d54:	e7f4      	b.n	3d40 <nfc_cli_raw_felica_handler+0xc>
        if(BIT_BUFFER_EMPTY(request->tx_buffer)) break;
    3d56:	6860      	ldr	r0, [r4, #4]
    3d58:	4b0e      	ldr	r3, [pc, #56]	@ (3d94 <nfc_cli_raw_felica_handler+0x60>)
    3d5a:	4798      	blx	r3
    3d5c:	2800      	cmp	r0, #0
    3d5e:	d0f1      	beq.n	3d44 <nfc_cli_raw_felica_handler+0x10>
        if(request->append_crc) {
    3d60:	78a3      	ldrb	r3, [r4, #2]
    3d62:	b953      	cbnz	r3, 3d7a <nfc_cli_raw_felica_handler+0x46>
        uint32_t timeout = request->timeout > 0 ? request->timeout : FELICA_FDT_POLL_FC;
    3d64:	68a3      	ldr	r3, [r4, #8]
    3d66:	b90b      	cbnz	r3, 3d6c <nfc_cli_raw_felica_handler+0x38>
    3d68:	f242 7310 	movw	r3, #10000	@ 0x2710
            nfc_cli_raw_felica_txrx(poller, request->tx_buffer, response->rx_buffer, timeout);
    3d6c:	686a      	ldr	r2, [r5, #4]
    3d6e:	6861      	ldr	r1, [r4, #4]
    3d70:	4630      	mov	r0, r6
    3d72:	4e09      	ldr	r6, [pc, #36]	@ (3d98 <nfc_cli_raw_felica_handler+0x64>)
    3d74:	47b0      	blx	r6
        response->result =
    3d76:	7028      	strb	r0, [r5, #0]
    3d78:	e7e4      	b.n	3d44 <nfc_cli_raw_felica_handler+0x10>
            FURI_LOG_D(TAG, "Add CRC");
    3d7a:	4a08      	ldr	r2, [pc, #32]	@ (3d9c <nfc_cli_raw_felica_handler+0x68>)
    3d7c:	4908      	ldr	r1, [pc, #32]	@ (3da0 <nfc_cli_raw_felica_handler+0x6c>)
    3d7e:	2005      	movs	r0, #5
    3d80:	4b08      	ldr	r3, [pc, #32]	@ (3da4 <nfc_cli_raw_felica_handler+0x70>)
    3d82:	4798      	blx	r3
            felica_crc_append(request->tx_buffer);
    3d84:	6860      	ldr	r0, [r4, #4]
    3d86:	4b08      	ldr	r3, [pc, #32]	@ (3da8 <nfc_cli_raw_felica_handler+0x74>)
    3d88:	4798      	blx	r3
    3d8a:	e7eb      	b.n	3d64 <nfc_cli_raw_felica_handler+0x30>
    return request->keep_field ? NfcCommandContinue : NfcCommandStop;
    3d8c:	2002      	movs	r0, #2
    3d8e:	e7dc      	b.n	3d4a <nfc_cli_raw_felica_handler+0x16>
	...
    3d9c:	00001ce4 	.word	0x00001ce4
    3da0:	00001cd4 	.word	0x00001cd4
	...
