
build/f7-firmware-D/.extapps/example_thermo_d.elf:     file format elf32-littlearm


Disassembly of section .text:

00000000 <__aeabi_drsub>:
   0:	f081 4100 	eor.w	r1, r1, #2147483648	@ 0x80000000
   4:	e002      	b.n	c <__adddf3>
   6:	bf00      	nop

00000008 <__aeabi_dsub>:
   8:	f083 4300 	eor.w	r3, r3, #2147483648	@ 0x80000000

0000000c <__adddf3>:
   c:	b530      	push	{r4, r5, lr}
   e:	ea4f 0441 	mov.w	r4, r1, lsl #1
  12:	ea4f 0543 	mov.w	r5, r3, lsl #1
  16:	ea94 0f05 	teq	r4, r5
  1a:	bf08      	it	eq
  1c:	ea90 0f02 	teqeq	r0, r2
  20:	bf1f      	itttt	ne
  22:	ea54 0c00 	orrsne.w	ip, r4, r0
  26:	ea55 0c02 	orrsne.w	ip, r5, r2
  2a:	ea7f 5c64 	mvnsne.w	ip, r4, asr #21
  2e:	ea7f 5c65 	mvnsne.w	ip, r5, asr #21
  32:	f000 80e2 	beq.w	1fa <__adddf3+0x1ee>
  36:	ea4f 5454 	mov.w	r4, r4, lsr #21
  3a:	ebd4 5555 	rsbs	r5, r4, r5, lsr #21
  3e:	bfb8      	it	lt
  40:	426d      	neglt	r5, r5
  42:	dd0c      	ble.n	5e <__adddf3+0x52>
  44:	442c      	add	r4, r5
  46:	ea80 0202 	eor.w	r2, r0, r2
  4a:	ea81 0303 	eor.w	r3, r1, r3
  4e:	ea82 0000 	eor.w	r0, r2, r0
  52:	ea83 0101 	eor.w	r1, r3, r1
  56:	ea80 0202 	eor.w	r2, r0, r2
  5a:	ea81 0303 	eor.w	r3, r1, r3
  5e:	2d36      	cmp	r5, #54	@ 0x36
  60:	bf88      	it	hi
  62:	bd30      	pophi	{r4, r5, pc}
  64:	f011 4f00 	tst.w	r1, #2147483648	@ 0x80000000
  68:	ea4f 3101 	mov.w	r1, r1, lsl #12
  6c:	f44f 1c80 	mov.w	ip, #1048576	@ 0x100000
  70:	ea4c 3111 	orr.w	r1, ip, r1, lsr #12
  74:	d002      	beq.n	7c <__adddf3+0x70>
  76:	4240      	negs	r0, r0
  78:	eb61 0141 	sbc.w	r1, r1, r1, lsl #1
  7c:	f013 4f00 	tst.w	r3, #2147483648	@ 0x80000000
  80:	ea4f 3303 	mov.w	r3, r3, lsl #12
  84:	ea4c 3313 	orr.w	r3, ip, r3, lsr #12
  88:	d002      	beq.n	90 <__adddf3+0x84>
  8a:	4252      	negs	r2, r2
  8c:	eb63 0343 	sbc.w	r3, r3, r3, lsl #1
  90:	ea94 0f05 	teq	r4, r5
  94:	f000 80a7 	beq.w	1e6 <__adddf3+0x1da>
  98:	f1a4 0401 	sub.w	r4, r4, #1
  9c:	f1d5 0e20 	rsbs	lr, r5, #32
  a0:	db0d      	blt.n	be <__adddf3+0xb2>
  a2:	fa02 fc0e 	lsl.w	ip, r2, lr
  a6:	fa22 f205 	lsr.w	r2, r2, r5
  aa:	1880      	adds	r0, r0, r2
  ac:	f141 0100 	adc.w	r1, r1, #0
  b0:	fa03 f20e 	lsl.w	r2, r3, lr
  b4:	1880      	adds	r0, r0, r2
  b6:	fa43 f305 	asr.w	r3, r3, r5
  ba:	4159      	adcs	r1, r3
  bc:	e00e      	b.n	dc <__adddf3+0xd0>
  be:	f1a5 0520 	sub.w	r5, r5, #32
  c2:	f10e 0e20 	add.w	lr, lr, #32
  c6:	2a01      	cmp	r2, #1
  c8:	fa03 fc0e 	lsl.w	ip, r3, lr
  cc:	bf28      	it	cs
  ce:	f04c 0c02 	orrcs.w	ip, ip, #2
  d2:	fa43 f305 	asr.w	r3, r3, r5
  d6:	18c0      	adds	r0, r0, r3
  d8:	eb51 71e3 	adcs.w	r1, r1, r3, asr #31
  dc:	f001 4500 	and.w	r5, r1, #2147483648	@ 0x80000000
  e0:	d507      	bpl.n	f2 <__adddf3+0xe6>
  e2:	f04f 0e00 	mov.w	lr, #0
  e6:	f1dc 0c00 	rsbs	ip, ip, #0
  ea:	eb7e 0000 	sbcs.w	r0, lr, r0
  ee:	eb6e 0101 	sbc.w	r1, lr, r1
  f2:	f5b1 1f80 	cmp.w	r1, #1048576	@ 0x100000
  f6:	d31b      	bcc.n	130 <__adddf3+0x124>
  f8:	f5b1 1f00 	cmp.w	r1, #2097152	@ 0x200000
  fc:	d30c      	bcc.n	118 <__adddf3+0x10c>
  fe:	0849      	lsrs	r1, r1, #1
 100:	ea5f 0030 	movs.w	r0, r0, rrx
 104:	ea4f 0c3c 	mov.w	ip, ip, rrx
 108:	f104 0401 	add.w	r4, r4, #1
 10c:	ea4f 5244 	mov.w	r2, r4, lsl #21
 110:	f512 0f80 	cmn.w	r2, #4194304	@ 0x400000
 114:	f080 809a 	bcs.w	24c <__adddf3+0x240>
 118:	f1bc 4f00 	cmp.w	ip, #2147483648	@ 0x80000000
 11c:	bf08      	it	eq
 11e:	ea5f 0c50 	movseq.w	ip, r0, lsr #1
 122:	f150 0000 	adcs.w	r0, r0, #0
 126:	eb41 5104 	adc.w	r1, r1, r4, lsl #20
 12a:	ea41 0105 	orr.w	r1, r1, r5
 12e:	bd30      	pop	{r4, r5, pc}
 130:	ea5f 0c4c 	movs.w	ip, ip, lsl #1
 134:	4140      	adcs	r0, r0
 136:	eb41 0101 	adc.w	r1, r1, r1
 13a:	3c01      	subs	r4, #1
 13c:	bf28      	it	cs
 13e:	f5b1 1f80 	cmpcs.w	r1, #1048576	@ 0x100000
 142:	d2e9      	bcs.n	118 <__adddf3+0x10c>
 144:	f091 0f00 	teq	r1, #0
 148:	bf04      	itt	eq
 14a:	4601      	moveq	r1, r0
 14c:	2000      	moveq	r0, #0
 14e:	fab1 f381 	clz	r3, r1
 152:	bf08      	it	eq
 154:	3320      	addeq	r3, #32
 156:	f1a3 030b 	sub.w	r3, r3, #11
 15a:	f1b3 0220 	subs.w	r2, r3, #32
 15e:	da0c      	bge.n	17a <__adddf3+0x16e>
 160:	320c      	adds	r2, #12
 162:	dd08      	ble.n	176 <__adddf3+0x16a>
 164:	f102 0c14 	add.w	ip, r2, #20
 168:	f1c2 020c 	rsb	r2, r2, #12
 16c:	fa01 f00c 	lsl.w	r0, r1, ip
 170:	fa21 f102 	lsr.w	r1, r1, r2
 174:	e00c      	b.n	190 <__adddf3+0x184>
 176:	f102 0214 	add.w	r2, r2, #20
 17a:	bfd8      	it	le
 17c:	f1c2 0c20 	rsble	ip, r2, #32
 180:	fa01 f102 	lsl.w	r1, r1, r2
 184:	fa20 fc0c 	lsr.w	ip, r0, ip
 188:	bfdc      	itt	le
 18a:	ea41 010c 	orrle.w	r1, r1, ip
 18e:	4090      	lslle	r0, r2
 190:	1ae4      	subs	r4, r4, r3
 192:	bfa2      	ittt	ge
 194:	eb01 5104 	addge.w	r1, r1, r4, lsl #20
 198:	4329      	orrge	r1, r5
 19a:	bd30      	popge	{r4, r5, pc}
 19c:	ea6f 0404 	mvn.w	r4, r4
 1a0:	3c1f      	subs	r4, #31
 1a2:	da1c      	bge.n	1de <__adddf3+0x1d2>
 1a4:	340c      	adds	r4, #12
 1a6:	dc0e      	bgt.n	1c6 <__adddf3+0x1ba>
 1a8:	f104 0414 	add.w	r4, r4, #20
 1ac:	f1c4 0220 	rsb	r2, r4, #32
 1b0:	fa20 f004 	lsr.w	r0, r0, r4
 1b4:	fa01 f302 	lsl.w	r3, r1, r2
 1b8:	ea40 0003 	orr.w	r0, r0, r3
 1bc:	fa21 f304 	lsr.w	r3, r1, r4
 1c0:	ea45 0103 	orr.w	r1, r5, r3
 1c4:	bd30      	pop	{r4, r5, pc}
 1c6:	f1c4 040c 	rsb	r4, r4, #12
 1ca:	f1c4 0220 	rsb	r2, r4, #32
 1ce:	fa20 f002 	lsr.w	r0, r0, r2
 1d2:	fa01 f304 	lsl.w	r3, r1, r4
 1d6:	ea40 0003 	orr.w	r0, r0, r3
 1da:	4629      	mov	r1, r5
 1dc:	bd30      	pop	{r4, r5, pc}
 1de:	fa21 f004 	lsr.w	r0, r1, r4
 1e2:	4629      	mov	r1, r5
 1e4:	bd30      	pop	{r4, r5, pc}
 1e6:	f094 0f00 	teq	r4, #0
 1ea:	f483 1380 	eor.w	r3, r3, #1048576	@ 0x100000
 1ee:	bf06      	itte	eq
 1f0:	f481 1180 	eoreq.w	r1, r1, #1048576	@ 0x100000
 1f4:	3401      	addeq	r4, #1
 1f6:	3d01      	subne	r5, #1
 1f8:	e74e      	b.n	98 <__adddf3+0x8c>
 1fa:	ea7f 5c64 	mvns.w	ip, r4, asr #21
 1fe:	bf18      	it	ne
 200:	ea7f 5c65 	mvnsne.w	ip, r5, asr #21
 204:	d029      	beq.n	25a <__adddf3+0x24e>
 206:	ea94 0f05 	teq	r4, r5
 20a:	bf08      	it	eq
 20c:	ea90 0f02 	teqeq	r0, r2
 210:	d005      	beq.n	21e <__adddf3+0x212>
 212:	ea54 0c00 	orrs.w	ip, r4, r0
 216:	bf04      	itt	eq
 218:	4619      	moveq	r1, r3
 21a:	4610      	moveq	r0, r2
 21c:	bd30      	pop	{r4, r5, pc}
 21e:	ea91 0f03 	teq	r1, r3
 222:	bf1e      	ittt	ne
 224:	2100      	movne	r1, #0
 226:	2000      	movne	r0, #0
 228:	bd30      	popne	{r4, r5, pc}
 22a:	ea5f 5c54 	movs.w	ip, r4, lsr #21
 22e:	d105      	bne.n	23c <__adddf3+0x230>
 230:	0040      	lsls	r0, r0, #1
 232:	4149      	adcs	r1, r1
 234:	bf28      	it	cs
 236:	f041 4100 	orrcs.w	r1, r1, #2147483648	@ 0x80000000
 23a:	bd30      	pop	{r4, r5, pc}
 23c:	f514 0480 	adds.w	r4, r4, #4194304	@ 0x400000
 240:	bf3c      	itt	cc
 242:	f501 1180 	addcc.w	r1, r1, #1048576	@ 0x100000
 246:	bd30      	popcc	{r4, r5, pc}
 248:	f001 4500 	and.w	r5, r1, #2147483648	@ 0x80000000
 24c:	f045 41fe 	orr.w	r1, r5, #2130706432	@ 0x7f000000
 250:	f441 0170 	orr.w	r1, r1, #15728640	@ 0xf00000
 254:	f04f 0000 	mov.w	r0, #0
 258:	bd30      	pop	{r4, r5, pc}
 25a:	ea7f 5c64 	mvns.w	ip, r4, asr #21
 25e:	bf1a      	itte	ne
 260:	4619      	movne	r1, r3
 262:	4610      	movne	r0, r2
 264:	ea7f 5c65 	mvnseq.w	ip, r5, asr #21
 268:	bf1c      	itt	ne
 26a:	460b      	movne	r3, r1
 26c:	4602      	movne	r2, r0
 26e:	ea50 3401 	orrs.w	r4, r0, r1, lsl #12
 272:	bf06      	itte	eq
 274:	ea52 3503 	orrseq.w	r5, r2, r3, lsl #12
 278:	ea91 0f03 	teqeq	r1, r3
 27c:	f441 2100 	orrne.w	r1, r1, #524288	@ 0x80000
 280:	bd30      	pop	{r4, r5, pc}
 282:	bf00      	nop

00000284 <__aeabi_ui2d>:
 284:	f090 0f00 	teq	r0, #0
 288:	bf04      	itt	eq
 28a:	2100      	moveq	r1, #0
 28c:	4770      	bxeq	lr
 28e:	b530      	push	{r4, r5, lr}
 290:	f44f 6480 	mov.w	r4, #1024	@ 0x400
 294:	f104 0432 	add.w	r4, r4, #50	@ 0x32
 298:	f04f 0500 	mov.w	r5, #0
 29c:	f04f 0100 	mov.w	r1, #0
 2a0:	e750      	b.n	144 <__adddf3+0x138>
 2a2:	bf00      	nop

000002a4 <__aeabi_i2d>:
 2a4:	f090 0f00 	teq	r0, #0
 2a8:	bf04      	itt	eq
 2aa:	2100      	moveq	r1, #0
 2ac:	4770      	bxeq	lr
 2ae:	b530      	push	{r4, r5, lr}
 2b0:	f44f 6480 	mov.w	r4, #1024	@ 0x400
 2b4:	f104 0432 	add.w	r4, r4, #50	@ 0x32
 2b8:	f010 4500 	ands.w	r5, r0, #2147483648	@ 0x80000000
 2bc:	bf48      	it	mi
 2be:	4240      	negmi	r0, r0
 2c0:	f04f 0100 	mov.w	r1, #0
 2c4:	e73e      	b.n	144 <__adddf3+0x138>
 2c6:	bf00      	nop

000002c8 <__aeabi_f2d>:
 2c8:	0042      	lsls	r2, r0, #1
 2ca:	ea4f 01e2 	mov.w	r1, r2, asr #3
 2ce:	ea4f 0131 	mov.w	r1, r1, rrx
 2d2:	ea4f 7002 	mov.w	r0, r2, lsl #28
 2d6:	bf1f      	itttt	ne
 2d8:	f012 437f 	andsne.w	r3, r2, #4278190080	@ 0xff000000
 2dc:	f093 4f7f 	teqne	r3, #4278190080	@ 0xff000000
 2e0:	f081 5160 	eorne.w	r1, r1, #939524096	@ 0x38000000
 2e4:	4770      	bxne	lr
 2e6:	f032 427f 	bics.w	r2, r2, #4278190080	@ 0xff000000
 2ea:	bf08      	it	eq
 2ec:	4770      	bxeq	lr
 2ee:	f093 4f7f 	teq	r3, #4278190080	@ 0xff000000
 2f2:	bf04      	itt	eq
 2f4:	f441 2100 	orreq.w	r1, r1, #524288	@ 0x80000
 2f8:	4770      	bxeq	lr
 2fa:	b530      	push	{r4, r5, lr}
 2fc:	f44f 7460 	mov.w	r4, #896	@ 0x380
 300:	f001 4500 	and.w	r5, r1, #2147483648	@ 0x80000000
 304:	f021 4100 	bic.w	r1, r1, #2147483648	@ 0x80000000
 308:	e71c      	b.n	144 <__adddf3+0x138>
 30a:	bf00      	nop

0000030c <__aeabi_ul2d>:
 30c:	ea50 0201 	orrs.w	r2, r0, r1
 310:	bf08      	it	eq
 312:	4770      	bxeq	lr
 314:	b530      	push	{r4, r5, lr}
 316:	f04f 0500 	mov.w	r5, #0
 31a:	e00a      	b.n	332 <__aeabi_l2d+0x16>

0000031c <__aeabi_l2d>:
 31c:	ea50 0201 	orrs.w	r2, r0, r1
 320:	bf08      	it	eq
 322:	4770      	bxeq	lr
 324:	b530      	push	{r4, r5, lr}
 326:	f011 4500 	ands.w	r5, r1, #2147483648	@ 0x80000000
 32a:	d502      	bpl.n	332 <__aeabi_l2d+0x16>
 32c:	4240      	negs	r0, r0
 32e:	eb61 0141 	sbc.w	r1, r1, r1, lsl #1
 332:	f44f 6480 	mov.w	r4, #1024	@ 0x400
 336:	f104 0432 	add.w	r4, r4, #50	@ 0x32
 33a:	ea5f 5c91 	movs.w	ip, r1, lsr #22
 33e:	f43f aed8 	beq.w	f2 <__adddf3+0xe6>
 342:	f04f 0203 	mov.w	r2, #3
 346:	ea5f 0cdc 	movs.w	ip, ip, lsr #3
 34a:	bf18      	it	ne
 34c:	3203      	addne	r2, #3
 34e:	ea5f 0cdc 	movs.w	ip, ip, lsr #3
 352:	bf18      	it	ne
 354:	3203      	addne	r2, #3
 356:	eb02 02dc 	add.w	r2, r2, ip, lsr #3
 35a:	f1c2 0320 	rsb	r3, r2, #32
 35e:	fa00 fc03 	lsl.w	ip, r0, r3
 362:	fa20 f002 	lsr.w	r0, r0, r2
 366:	fa01 fe03 	lsl.w	lr, r1, r3
 36a:	ea40 000e 	orr.w	r0, r0, lr
 36e:	fa21 f102 	lsr.w	r1, r1, r2
 372:	4414      	add	r4, r2
 374:	e6bd      	b.n	f2 <__adddf3+0xe6>
 376:	bf00      	nop

00000378 <example_thermo_context_alloc>:
}

/******************** Initialisation & startup *****************************/

/* Allocate the memory and initialise the variables */
static ExampleThermoContext* example_thermo_context_alloc(void) {
 378:	b538      	push	{r3, r4, r5, lr}
    ExampleThermoContext* context = malloc(sizeof(ExampleThermoContext));
 37a:	2020      	movs	r0, #32
 37c:	4b19      	ldr	r3, [pc, #100]	@ (3e4 <example_thermo_context_alloc+0x6c>)
 37e:	4798      	blx	r3
 380:	4604      	mov	r4, r0

    context->view_port = view_port_alloc();
 382:	4b19      	ldr	r3, [pc, #100]	@ (3e8 <example_thermo_context_alloc+0x70>)
 384:	4798      	blx	r3
 386:	6060      	str	r0, [r4, #4]
    view_port_draw_callback_set(context->view_port, example_thermo_draw_callback, context);
 388:	4622      	mov	r2, r4
 38a:	4918      	ldr	r1, [pc, #96]	@ (3ec <example_thermo_context_alloc+0x74>)
 38c:	4b18      	ldr	r3, [pc, #96]	@ (3f0 <example_thermo_context_alloc+0x78>)
 38e:	4798      	blx	r3
    view_port_input_callback_set(context->view_port, example_thermo_input_callback, context);
 390:	4622      	mov	r2, r4
 392:	4918      	ldr	r1, [pc, #96]	@ (3f4 <example_thermo_context_alloc+0x7c>)
 394:	6860      	ldr	r0, [r4, #4]
 396:	4b18      	ldr	r3, [pc, #96]	@ (3f8 <example_thermo_context_alloc+0x80>)
 398:	4798      	blx	r3

    context->event_queue = furi_message_queue_alloc(8, sizeof(InputEvent));
 39a:	2108      	movs	r1, #8
 39c:	4608      	mov	r0, r1
 39e:	4b17      	ldr	r3, [pc, #92]	@ (3fc <example_thermo_context_alloc+0x84>)
 3a0:	4798      	blx	r3
 3a2:	60e0      	str	r0, [r4, #12]

    context->reader_thread = furi_thread_alloc();
 3a4:	4b16      	ldr	r3, [pc, #88]	@ (400 <example_thermo_context_alloc+0x88>)
 3a6:	4798      	blx	r3
 3a8:	60a0      	str	r0, [r4, #8]
    furi_thread_set_stack_size(context->reader_thread, 1024U);
 3aa:	f44f 6180 	mov.w	r1, #1024	@ 0x400
 3ae:	4b15      	ldr	r3, [pc, #84]	@ (404 <example_thermo_context_alloc+0x8c>)
 3b0:	4798      	blx	r3
    furi_thread_set_context(context->reader_thread, context);
 3b2:	4621      	mov	r1, r4
 3b4:	68a0      	ldr	r0, [r4, #8]
 3b6:	4b14      	ldr	r3, [pc, #80]	@ (408 <example_thermo_context_alloc+0x90>)
 3b8:	4798      	blx	r3
    furi_thread_set_callback(context->reader_thread, example_thermo_reader_thread_callback);
 3ba:	4914      	ldr	r1, [pc, #80]	@ (40c <example_thermo_context_alloc+0x94>)
 3bc:	68a0      	ldr	r0, [r4, #8]
 3be:	4b14      	ldr	r3, [pc, #80]	@ (410 <example_thermo_context_alloc+0x98>)
 3c0:	4798      	blx	r3

    context->gui = furi_record_open(RECORD_GUI);
 3c2:	4814      	ldr	r0, [pc, #80]	@ (414 <example_thermo_context_alloc+0x9c>)
 3c4:	4d14      	ldr	r5, [pc, #80]	@ (418 <example_thermo_context_alloc+0xa0>)
 3c6:	47a8      	blx	r5
 3c8:	6020      	str	r0, [r4, #0]
    gui_add_view_port(context->gui, context->view_port, GuiLayerFullscreen);
 3ca:	2204      	movs	r2, #4
 3cc:	6861      	ldr	r1, [r4, #4]
 3ce:	4b13      	ldr	r3, [pc, #76]	@ (41c <example_thermo_context_alloc+0xa4>)
 3d0:	4798      	blx	r3

    context->onewire = onewire_host_alloc(&THERMO_GPIO_PIN);
 3d2:	4813      	ldr	r0, [pc, #76]	@ (420 <example_thermo_context_alloc+0xa8>)
 3d4:	4b13      	ldr	r3, [pc, #76]	@ (424 <example_thermo_context_alloc+0xac>)
 3d6:	4798      	blx	r3
 3d8:	6120      	str	r0, [r4, #16]

    context->power = furi_record_open(RECORD_POWER);
 3da:	4813      	ldr	r0, [pc, #76]	@ (428 <example_thermo_context_alloc+0xb0>)
 3dc:	47a8      	blx	r5
 3de:	6160      	str	r0, [r4, #20]

    return context;
}
 3e0:	4620      	mov	r0, r4
 3e2:	bd38      	pop	{r3, r4, r5, pc}
	...
 428:	00000004 	.word	0x00000004

0000042c <example_thermo_request_temperature>:
static void example_thermo_request_temperature(ExampleThermoContext* context) {
 42c:	b5f0      	push	{r4, r5, r6, r7, lr}
 42e:	b083      	sub	sp, #12
 430:	4604      	mov	r4, r0
    OneWireHost* onewire = context->onewire;
 432:	6905      	ldr	r5, [r0, #16]
    FURI_CRITICAL_ENTER();
 434:	4668      	mov	r0, sp
 436:	4b0b      	ldr	r3, [pc, #44]	@ (464 <example_thermo_request_temperature+0x38>)
 438:	4798      	blx	r3
        if(!onewire_host_reset(onewire)) break;
 43a:	4628      	mov	r0, r5
 43c:	4b0a      	ldr	r3, [pc, #40]	@ (468 <example_thermo_request_temperature+0x3c>)
 43e:	4798      	blx	r3
 440:	4606      	mov	r6, r0
 442:	b938      	cbnz	r0, 454 <example_thermo_request_temperature+0x28>
    context->has_device = success;
 444:	7726      	strb	r6, [r4, #28]
    FURI_CRITICAL_EXIT();
 446:	ab02      	add	r3, sp, #8
 448:	e913 0003 	ldmdb	r3, {r0, r1}
 44c:	4b07      	ldr	r3, [pc, #28]	@ (46c <example_thermo_request_temperature+0x40>)
 44e:	4798      	blx	r3
}
 450:	b003      	add	sp, #12
 452:	bdf0      	pop	{r4, r5, r6, r7, pc}
        onewire_host_write(onewire, DS18B20_CMD_SKIP_ROM);
 454:	21cc      	movs	r1, #204	@ 0xcc
 456:	4628      	mov	r0, r5
 458:	4f05      	ldr	r7, [pc, #20]	@ (470 <example_thermo_request_temperature+0x44>)
 45a:	47b8      	blx	r7
        onewire_host_write(onewire, DS18B20_CMD_CONVERT);
 45c:	2144      	movs	r1, #68	@ 0x44
 45e:	4628      	mov	r0, r5
 460:	47b8      	blx	r7
        success = true;
 462:	e7ef      	b.n	444 <example_thermo_request_temperature+0x18>
	...

00000474 <example_thermo_read_temperature>:
static void example_thermo_read_temperature(ExampleThermoContext* context) {
 474:	e92d 41f0 	stmdb	sp!, {r4, r5, r6, r7, r8, lr}
 478:	b086      	sub	sp, #24
    if(!context->has_device) {
 47a:	f890 801c 	ldrb.w	r8, [r0, #28]
 47e:	f1b8 0f00 	cmp.w	r8, #0
 482:	d102      	bne.n	48a <example_thermo_read_temperature+0x16>
}
 484:	b006      	add	sp, #24
 486:	e8bd 81f0 	ldmia.w	sp!, {r4, r5, r6, r7, r8, pc}
 48a:	4607      	mov	r7, r0
    OneWireHost* onewire = context->onewire;
 48c:	6905      	ldr	r5, [r0, #16]
    FURI_CRITICAL_ENTER();
 48e:	a804      	add	r0, sp, #16
 490:	4b29      	ldr	r3, [pc, #164]	@ (538 <example_thermo_read_temperature+0xc4>)
 492:	4798      	blx	r3
        size_t attempts_left = 10;
 494:	240a      	movs	r4, #10
 496:	e001      	b.n	49c <example_thermo_read_temperature+0x28>
        } while(--attempts_left);
 498:	3c01      	subs	r4, #1
 49a:	d019      	beq.n	4d0 <example_thermo_read_temperature+0x5c>
            if(!onewire_host_reset(onewire)) continue;
 49c:	4628      	mov	r0, r5
 49e:	4b27      	ldr	r3, [pc, #156]	@ (53c <example_thermo_read_temperature+0xc8>)
 4a0:	4798      	blx	r3
 4a2:	2800      	cmp	r0, #0
 4a4:	d0f8      	beq.n	498 <example_thermo_read_temperature+0x24>
            onewire_host_write(onewire, DS18B20_CMD_SKIP_ROM);
 4a6:	21cc      	movs	r1, #204	@ 0xcc
 4a8:	4628      	mov	r0, r5
 4aa:	4e25      	ldr	r6, [pc, #148]	@ (540 <example_thermo_read_temperature+0xcc>)
 4ac:	47b0      	blx	r6
            onewire_host_write(onewire, DS18B20_CMD_READ_SCRATCHPAD);
 4ae:	21be      	movs	r1, #190	@ 0xbe
 4b0:	4628      	mov	r0, r5
 4b2:	47b0      	blx	r6
            onewire_host_read_bytes(onewire, buf.bytes, sizeof(buf.bytes));
 4b4:	2209      	movs	r2, #9
 4b6:	a901      	add	r1, sp, #4
 4b8:	4628      	mov	r0, r5
 4ba:	4b22      	ldr	r3, [pc, #136]	@ (544 <example_thermo_read_temperature+0xd0>)
 4bc:	4798      	blx	r3
            const uint8_t crc = maxim_crc8(buf.bytes, sizeof(buf.bytes) - 1, MAXIM_CRC8_INIT);
 4be:	2200      	movs	r2, #0
 4c0:	2108      	movs	r1, #8
 4c2:	a801      	add	r0, sp, #4
 4c4:	4b20      	ldr	r3, [pc, #128]	@ (548 <example_thermo_read_temperature+0xd4>)
 4c6:	4798      	blx	r3
            if(crc == buf.fields.crc) break;
 4c8:	f89d 300c 	ldrb.w	r3, [sp, #12]
 4cc:	4283      	cmp	r3, r0
 4ce:	d1e3      	bne.n	498 <example_thermo_read_temperature+0x24>
        if(attempts_left == 0) break;
 4d0:	b37c      	cbz	r4, 532 <example_thermo_read_temperature+0xbe>
        const uint8_t resolution_mode = (buf.fields.config >> DS18B20_CFG_RESOLUTION_POS) &
 4d2:	f89d 3008 	ldrb.w	r3, [sp, #8]
 4d6:	f3c3 1341 	ubfx	r3, r3, #5, #2
            (DS18B20_DECIMAL_PART_MASK << (DS18B20_CFG_RESOLUTION_MASK - resolution_mode)) &
 4da:	f1c3 0303 	rsb	r3, r3, #3
 4de:	210f      	movs	r1, #15
 4e0:	4099      	lsls	r1, r3
        const uint8_t decimal_mask =
 4e2:	f001 010f 	and.w	r1, r1, #15
        const uint8_t integer_part = (buf.fields.temp_msb << 4U) | (buf.fields.temp_lsb >> 4U);
 4e6:	f89d 0005 	ldrb.w	r0, [sp, #5]
 4ea:	f89d 2004 	ldrb.w	r2, [sp, #4]
 4ee:	0913      	lsrs	r3, r2, #4
 4f0:	ea43 1300 	orr.w	r3, r3, r0, lsl #4
 4f4:	b2db      	uxtb	r3, r3
 4f6:	ee07 3a90 	vmov	s15, r3
        const uint8_t decimal_part = buf.fields.temp_lsb & decimal_mask;
 4fa:	ea02 0301 	and.w	r3, r2, r1
 4fe:	ee07 3a10 	vmov	s14, r3
        const float temp_celsius_abs = integer_part + decimal_part / 16.f;
 502:	eef8 7ae7 	vcvt.f32.s32	s15, s15
 506:	eeb8 7ac7 	vcvt.f32.s32	s14, s14
 50a:	eddf 6a10 	vldr	s13, [pc, #64]	@ 54c <example_thermo_read_temperature+0xd8>
 50e:	ee27 7a26 	vmul.f32	s14, s14, s13
 512:	ee77 7a87 	vadd.f32	s15, s15, s14
        context->temp_celsius = is_negative ? -temp_celsius_abs : temp_celsius_abs;
 516:	280f      	cmp	r0, #15
 518:	d901      	bls.n	51e <example_thermo_read_temperature+0xaa>
 51a:	eef1 7a67 	vneg.f32	s15, s15
 51e:	edc7 7a06 	vstr	s15, [r7, #24]
    context->has_device = success;
 522:	f887 801c 	strb.w	r8, [r7, #28]
    FURI_CRITICAL_EXIT();
 526:	ab06      	add	r3, sp, #24
 528:	e913 0003 	ldmdb	r3, {r0, r1}
 52c:	4b08      	ldr	r3, [pc, #32]	@ (550 <example_thermo_read_temperature+0xdc>)
 52e:	4798      	blx	r3
 530:	e7a8      	b.n	484 <example_thermo_read_temperature+0x10>
    bool success = false;
 532:	f04f 0800 	mov.w	r8, #0
 536:	e7f4      	b.n	522 <example_thermo_read_temperature+0xae>
	...
 54c:	3d800000 	.word	0x3d800000
 550:	00000000 	.word	0x00000000

00000554 <example_thermo_reader_thread_callback>:
static int32_t example_thermo_reader_thread_callback(void* ctx) {
 554:	b510      	push	{r4, lr}
 556:	4604      	mov	r4, r0
    ExampleThermoContext* context = ctx;
 558:	e002      	b.n	560 <example_thermo_reader_thread_callback+0xc>
        example_thermo_read_temperature(context);
 55a:	4620      	mov	r0, r4
 55c:	4b07      	ldr	r3, [pc, #28]	@ (57c <example_thermo_reader_thread_callback+0x28>)
 55e:	4798      	blx	r3
        example_thermo_request_temperature(context);
 560:	4620      	mov	r0, r4
 562:	4b07      	ldr	r3, [pc, #28]	@ (580 <example_thermo_reader_thread_callback+0x2c>)
 564:	4798      	blx	r3
            furi_thread_flags_wait(ReaderThreadFlagExit, FuriFlagWaitAny, UPDATE_PERIOD_MS);
 566:	f44f 727a 	mov.w	r2, #1000	@ 0x3e8
 56a:	2100      	movs	r1, #0
 56c:	2001      	movs	r0, #1
 56e:	4b05      	ldr	r3, [pc, #20]	@ (584 <example_thermo_reader_thread_callback+0x30>)
 570:	4798      	blx	r3
        if(flags != (unsigned)FuriFlagErrorTimeout) break;
 572:	f110 0f02 	cmn.w	r0, #2
 576:	d0f0      	beq.n	55a <example_thermo_reader_thread_callback+0x6>
}
 578:	2000      	movs	r0, #0
 57a:	bd10      	pop	{r4, pc}
	...

00000588 <example_thermo_input_callback>:
static void example_thermo_input_callback(InputEvent* event, void* ctx) {
 588:	b508      	push	{r3, lr}
 58a:	460b      	mov	r3, r1
    furi_message_queue_put(context->event_queue, event, FuriWaitForever);
 58c:	f04f 32ff 	mov.w	r2, #4294967295	@ 0xffffffff
 590:	4601      	mov	r1, r0
 592:	68d8      	ldr	r0, [r3, #12]
 594:	4b01      	ldr	r3, [pc, #4]	@ (59c <example_thermo_input_callback+0x14>)
 596:	4798      	blx	r3
}
 598:	bd08      	pop	{r3, pc}
 59a:	bf00      	nop
 59c:	00000000 	.word	0x00000000

000005a0 <example_thermo_draw_callback>:
static void example_thermo_draw_callback(Canvas* canvas, void* ctx) {
 5a0:	e92d 4ff0 	stmdb	sp!, {r4, r5, r6, r7, r8, r9, sl, fp, lr}
 5a4:	b095      	sub	sp, #84	@ 0x54
 5a6:	4604      	mov	r4, r0
 5a8:	460e      	mov	r6, r1
    const size_t middle_x = canvas_width(canvas) / 2U;
 5aa:	4b39      	ldr	r3, [pc, #228]	@ (690 <sukima710+0x2a>)
 5ac:	4798      	blx	r3
 5ae:	0845      	lsrs	r5, r0, #1
    canvas_set_font(canvas, FontPrimary);
 5b0:	2100      	movs	r1, #0
 5b2:	4620      	mov	r0, r4
 5b4:	4f37      	ldr	r7, [pc, #220]	@ (694 <sukima710+0x2e>)
 5b6:	47b8      	blx	r7
    canvas_draw_str_aligned(canvas, middle_x, 12, AlignCenter, AlignBottom, "Thermometer Demo");
 5b8:	4b37      	ldr	r3, [pc, #220]	@ (698 <sukima710+0x32>)
 5ba:	9301      	str	r3, [sp, #4]
 5bc:	f04f 0903 	mov.w	r9, #3
 5c0:	f8cd 9000 	str.w	r9, [sp]
 5c4:	2304      	movs	r3, #4
 5c6:	220c      	movs	r2, #12
 5c8:	4629      	mov	r1, r5
 5ca:	4620      	mov	r0, r4
 5cc:	f8df 80fc 	ldr.w	r8, [pc, #252]	@ 6cc <sukima710+0x66>
 5d0:	47c0      	blx	r8
    canvas_draw_line(canvas, 0, 16, 128, 16);
 5d2:	2210      	movs	r2, #16
 5d4:	9200      	str	r2, [sp, #0]
 5d6:	2380      	movs	r3, #128	@ 0x80
 5d8:	2100      	movs	r1, #0
 5da:	4620      	mov	r0, r4
 5dc:	f8df a0f0 	ldr.w	sl, [pc, #240]	@ 6d0 <sukima710+0x6a>
 5e0:	47d0      	blx	sl
    canvas_set_font(canvas, FontSecondary);
 5e2:	2101      	movs	r1, #1
 5e4:	4620      	mov	r0, r4
 5e6:	47b8      	blx	r7
    canvas_draw_str_aligned(canvas, middle_x, 30, AlignCenter, AlignBottom, "Connect thermometer");
 5e8:	4b2c      	ldr	r3, [pc, #176]	@ (69c <sukima710+0x36>)
 5ea:	9301      	str	r3, [sp, #4]
 5ec:	f8cd 9000 	str.w	r9, [sp]
 5f0:	2304      	movs	r3, #4
 5f2:	221e      	movs	r2, #30
 5f4:	4629      	mov	r1, r5
 5f6:	4620      	mov	r0, r4
 5f8:	47c0      	blx	r8
    snprintf(
 5fa:	4829      	ldr	r0, [pc, #164]	@ (6a0 <sukima710+0x3a>)
 5fc:	4b29      	ldr	r3, [pc, #164]	@ (6a4 <sukima710+0x3e>)
 5fe:	4798      	blx	r3
 600:	4603      	mov	r3, r0
 602:	f10d 0a10 	add.w	sl, sp, #16
 606:	4a28      	ldr	r2, [pc, #160]	@ (6a8 <sukima710+0x42>)
 608:	2140      	movs	r1, #64	@ 0x40
 60a:	4650      	mov	r0, sl
 60c:	f8df b0ac 	ldr.w	fp, [pc, #172]	@ 6bc <sukima710+0x56>
 610:	47d8      	blx	fp
    canvas_draw_str_aligned(canvas, middle_x, 42, AlignCenter, AlignBottom, text_store);
 612:	f8cd a004 	str.w	sl, [sp, #4]
 616:	f8cd 9000 	str.w	r9, [sp]
 61a:	2304      	movs	r3, #4
 61c:	222a      	movs	r2, #42	@ 0x2a
 61e:	4629      	mov	r1, r5
 620:	4620      	mov	r0, r4
 622:	47c0      	blx	r8
    canvas_set_font(canvas, FontKeyboard);
 624:	2102      	movs	r1, #2
 626:	4620      	mov	r0, r4
 628:	47b8      	blx	r7
    if(context->has_device) {
 62a:	7f33      	ldrb	r3, [r6, #28]
 62c:	b1eb      	cbz	r3, 66a <sukima710+0x4>
        switch(locale_get_measurement_unit()) {
 62e:	4b1f      	ldr	r3, [pc, #124]	@ (6ac <sukima710+0x46>)
 630:	4798      	blx	r3
 632:	b148      	cbz	r0, 648 <example_thermo_draw_callback+0xa8>
 634:	2801      	cmp	r0, #1
 636:	d114      	bne.n	662 <example_thermo_draw_callback+0xc2>
            temp = locale_celsius_to_fahrenheit(context->temp_celsius);
 638:	ed96 0a06 	vldr	s0, [r6, #24]
 63c:	4b1c      	ldr	r3, [pc, #112]	@ (6b0 <sukima710+0x4a>)
 63e:	4798      	blx	r3
 640:	ee10 0a10 	vmov	r0, s0
            temp_units = 'F';
 644:	2346      	movs	r3, #70	@ 0x46
            break;
 646:	e001      	b.n	64c <example_thermo_draw_callback+0xac>
            temp = context->temp_celsius;
 648:	69b0      	ldr	r0, [r6, #24]
            temp_units = 'C';
 64a:	2343      	movs	r3, #67	@ 0x43
        snprintf(text_store, TEXT_STORE_SIZE, "Temperature: %+.1f%c", (double)temp, temp_units);
 64c:	9302      	str	r3, [sp, #8]
 64e:	4b19      	ldr	r3, [pc, #100]	@ (6b4 <sukima710+0x4e>)
 650:	4798      	blx	r3
 652:	e9cd 0100 	strd	r0, r1, [sp]
 656:	4a18      	ldr	r2, [pc, #96]	@ (6b8 <sukima710+0x52>)
 658:	2140      	movs	r1, #64	@ 0x40
 65a:	a804      	add	r0, sp, #16
 65c:	4b17      	ldr	r3, [pc, #92]	@ (6bc <sukima710+0x56>)
 65e:	4798      	blx	r3
 660:	e008      	b.n	674 <sukima710+0xe>
            furi_crash("Illegal measurement units");
 662:	f8df c070 	ldr.w	ip, [pc, #112]	@ 6d4 <sukima710+0x6e>

00000666 <sukima710>:
 666:	4b16      	ldr	r3, [pc, #88]	@ (6c0 <sukima710+0x5a>)
 668:	4798      	blx	r3
        strlcpy(text_store, "-- No data --", TEXT_STORE_SIZE);
 66a:	2240      	movs	r2, #64	@ 0x40
 66c:	4915      	ldr	r1, [pc, #84]	@ (6c4 <sukima710+0x5e>)
 66e:	a804      	add	r0, sp, #16
 670:	4b15      	ldr	r3, [pc, #84]	@ (6c8 <sukima710+0x62>)
 672:	4798      	blx	r3
    canvas_draw_str_aligned(canvas, middle_x, 58, AlignCenter, AlignBottom, text_store);
 674:	ab04      	add	r3, sp, #16
 676:	9301      	str	r3, [sp, #4]
 678:	2303      	movs	r3, #3
 67a:	9300      	str	r3, [sp, #0]
 67c:	2304      	movs	r3, #4
 67e:	223a      	movs	r2, #58	@ 0x3a
 680:	4629      	mov	r1, r5
 682:	4620      	mov	r0, r4
 684:	4c11      	ldr	r4, [pc, #68]	@ (6cc <sukima710+0x66>)
 686:	47a0      	blx	r4
}
 688:	b015      	add	sp, #84	@ 0x54
 68a:	e8bd 8ff0 	ldmia.w	sp!, {r4, r5, r6, r7, r8, r9, sl, fp, pc}
 68e:	bf00      	nop
	...
 698:	0000000c 	.word	0x0000000c
 69c:	00000020 	.word	0x00000020
	...
 6a8:	00000034 	.word	0x00000034
	...
 6b8:	00000060 	.word	0x00000060
	...
 6c4:	00000078 	.word	0x00000078
	...
 6d4:	00000044 	.word	0x00000044

000006d8 <example_thermo_run>:
static void example_thermo_run(ExampleThermoContext* context) {
 6d8:	b510      	push	{r4, lr}
 6da:	b082      	sub	sp, #8
 6dc:	4604      	mov	r4, r0
    power_enable_otg(context->power, true);
 6de:	2101      	movs	r1, #1
 6e0:	6940      	ldr	r0, [r0, #20]
 6e2:	4b15      	ldr	r3, [pc, #84]	@ (738 <example_thermo_run+0x60>)
 6e4:	4798      	blx	r3
    onewire_host_start(context->onewire);
 6e6:	6920      	ldr	r0, [r4, #16]
 6e8:	4b14      	ldr	r3, [pc, #80]	@ (73c <example_thermo_run+0x64>)
 6ea:	4798      	blx	r3
    furi_thread_start(context->reader_thread);
 6ec:	68a0      	ldr	r0, [r4, #8]
 6ee:	4b14      	ldr	r3, [pc, #80]	@ (740 <example_thermo_run+0x68>)
 6f0:	4798      	blx	r3
            furi_message_queue_get(context->event_queue, &event, FuriWaitForever);
 6f2:	f04f 32ff 	mov.w	r2, #4294967295	@ 0xffffffff
 6f6:	4669      	mov	r1, sp
 6f8:	68e0      	ldr	r0, [r4, #12]
 6fa:	4b12      	ldr	r3, [pc, #72]	@ (744 <example_thermo_run+0x6c>)
 6fc:	4798      	blx	r3
        if((status != FuriStatusOk) || (event.type != InputTypeShort)) {
 6fe:	2800      	cmp	r0, #0
 700:	d1f7      	bne.n	6f2 <example_thermo_run+0x1a>
 702:	f89d 3005 	ldrb.w	r3, [sp, #5]
 706:	2b02      	cmp	r3, #2
 708:	d1f3      	bne.n	6f2 <example_thermo_run+0x1a>
        if(event.key == InputKeyBack) {
 70a:	f89d 3004 	ldrb.w	r3, [sp, #4]
 70e:	2b05      	cmp	r3, #5
 710:	d1ef      	bne.n	6f2 <example_thermo_run+0x1a>
    furi_thread_flags_set(furi_thread_get_id(context->reader_thread), ReaderThreadFlagExit);
 712:	68a0      	ldr	r0, [r4, #8]
 714:	4b0c      	ldr	r3, [pc, #48]	@ (748 <example_thermo_run+0x70>)
 716:	4798      	blx	r3
 718:	2101      	movs	r1, #1
 71a:	4b0c      	ldr	r3, [pc, #48]	@ (74c <example_thermo_run+0x74>)
 71c:	4798      	blx	r3
    furi_thread_join(context->reader_thread);
 71e:	68a0      	ldr	r0, [r4, #8]
 720:	4b0b      	ldr	r3, [pc, #44]	@ (750 <example_thermo_run+0x78>)
 722:	4798      	blx	r3
    onewire_host_stop(context->onewire);
 724:	6920      	ldr	r0, [r4, #16]
 726:	4b0b      	ldr	r3, [pc, #44]	@ (754 <example_thermo_run+0x7c>)
 728:	4798      	blx	r3
    power_enable_otg(context->power, false);
 72a:	2100      	movs	r1, #0
 72c:	6960      	ldr	r0, [r4, #20]
 72e:	4b02      	ldr	r3, [pc, #8]	@ (738 <example_thermo_run+0x60>)
 730:	4798      	blx	r3
}
 732:	b002      	add	sp, #8
 734:	bd10      	pop	{r4, pc}
 736:	bf00      	nop
	...

00000758 <example_thermo_context_free>:

/* Release the unused resources and deallocate memory */
static void example_thermo_context_free(ExampleThermoContext* context) {
 758:	b510      	push	{r4, lr}
 75a:	4604      	mov	r4, r0
    view_port_enabled_set(context->view_port, false);
 75c:	2100      	movs	r1, #0
 75e:	6840      	ldr	r0, [r0, #4]
 760:	4b0b      	ldr	r3, [pc, #44]	@ (790 <example_thermo_context_free+0x38>)
 762:	4798      	blx	r3
    gui_remove_view_port(context->gui, context->view_port);
 764:	6861      	ldr	r1, [r4, #4]
 766:	6820      	ldr	r0, [r4, #0]
 768:	4b0a      	ldr	r3, [pc, #40]	@ (794 <example_thermo_context_free+0x3c>)
 76a:	4798      	blx	r3

    onewire_host_free(context->onewire);
 76c:	6920      	ldr	r0, [r4, #16]
 76e:	4b0a      	ldr	r3, [pc, #40]	@ (798 <example_thermo_context_free+0x40>)
 770:	4798      	blx	r3
    furi_thread_free(context->reader_thread);
 772:	68a0      	ldr	r0, [r4, #8]
 774:	4b09      	ldr	r3, [pc, #36]	@ (79c <example_thermo_context_free+0x44>)
 776:	4798      	blx	r3
    furi_message_queue_free(context->event_queue);
 778:	68e0      	ldr	r0, [r4, #12]
 77a:	4b09      	ldr	r3, [pc, #36]	@ (7a0 <example_thermo_context_free+0x48>)
 77c:	4798      	blx	r3
    view_port_free(context->view_port);
 77e:	6860      	ldr	r0, [r4, #4]
 780:	4b08      	ldr	r3, [pc, #32]	@ (7a4 <example_thermo_context_free+0x4c>)
 782:	4798      	blx	r3

    furi_record_close(RECORD_GUI);
 784:	4808      	ldr	r0, [pc, #32]	@ (7a8 <example_thermo_context_free+0x50>)
 786:	4c09      	ldr	r4, [pc, #36]	@ (7ac <example_thermo_context_free+0x54>)
 788:	47a0      	blx	r4
    furi_record_close(RECORD_POWER);
 78a:	4809      	ldr	r0, [pc, #36]	@ (7b0 <example_thermo_context_free+0x58>)
 78c:	47a0      	blx	r4
}
 78e:	bd10      	pop	{r4, pc}
	...
 7b0:	00000004 	.word	0x00000004

000007b4 <example_thermo_main>:

/* The application's entry point. Execution starts from here. */
int32_t example_thermo_main(void* p) {
 7b4:	b510      	push	{r4, lr}
    UNUSED(p);

    /* Allocate all of the necessary structures */
    ExampleThermoContext* context = example_thermo_context_alloc();
 7b6:	4b05      	ldr	r3, [pc, #20]	@ (7cc <example_thermo_main+0x18>)
 7b8:	4798      	blx	r3
 7ba:	4604      	mov	r4, r0

    /* Start the application's main loop. It won't return until the application was requested to exit. */
    example_thermo_run(context);
 7bc:	4b04      	ldr	r3, [pc, #16]	@ (7d0 <example_thermo_main+0x1c>)
 7be:	4798      	blx	r3

    /* Release all unneeded resources */
    example_thermo_context_free(context);
 7c0:	4620      	mov	r0, r4
 7c2:	4b04      	ldr	r3, [pc, #16]	@ (7d4 <example_thermo_main+0x20>)
 7c4:	4798      	blx	r3

    return 0;
}
 7c6:	2000      	movs	r0, #0
 7c8:	bd10      	pop	{r4, pc}
 7ca:	bf00      	nop
	...
